  Sun Jan 12 14:21:22 2003                                                                                               Page    1







               2500 A.D. 6502 Macro Assembler  -  Version 5.02b
               ------------------------------------------------

                       Input  Filename : mtowerdata.asm
                       Output Filename : mtowerdata.obj
                       Listing Has Been Relocated                               


    1                     	program_mtdata:	.section
    2                     	const_data_mtdata:	.section
    3                     	init_data_mtdata:	.section
    4                     	uninit_data_mtdata:	.section
    5                     	bank_table:	.section
    6                     	bank_table:	.section
    7                     			.program_mtdata
    8  00000000             			.filetype	C
    9                     			.symbols
   10                     			.llchar		?
   11                     			.longchk	off
   12                     			.extern	page0	__oper1
   13                     			.extern	page0	__oper1_high8
   14                     			.extern	page0	__oper2
   15                     			.extern	page0	__oper2_high8
   16                     			.extern	page0	__addr_reg
   17                     			.extern	page0	__stack_ptr
   18                     			.extern	page0	__lib_temp_ptr
   19                     	;.filename mtowerdata.c
   20                     	;
   21                     			.filename	mtowerdata.c
   22                     	;.filename inc\dictsys.h
   23                     	;
   24                     			.filename	inc\dictsys.h
   25                     	;.filename inc\keytable.h
   26                     	;
   27                     			.filename	inc\keytable.h
   28                     	;.endinc inc\dictsys.h
   29                     			.filename	inc\dictsys.h
   30                     	;struct tagMsgType {
   31                     	;	
   32                     			.strname  _tagMsgType
   33                     	;unsigned char 		type;
   34                     	;	
   35                     			.strdef	_type,86,v,c,u,0,g,d,d,d,d,00h
   36                     	;unsigned int 		param;
   37                     	;
   38                     			.strdef	_param,87,v,i,u,1,g,d,d,d,d,00h
   39                     	;}
   40                     			.strend	_tagMsgType,3,2
   41                     	;struct tagMsgByteType {
   42                     	;	
   43                     			.strname  _tagMsgByteType
   44                     	;unsigned char 		type;
   45                     	;	
   46                     			.strdef	_type,91,v,c,u,0,g,d,d,d,d,00h
  Sun Jan 12 14:21:22 2003                                                                                               Page    2




   47                     	;unsigned char 		prmLow;
   48                     	;	
   49                     			.strdef	_prmLow,92,v,c,u,1,g,d,d,d,d,00h
   50                     	;unsigned char 		prmHi;
   51                     	;
   52                     			.strdef	_prmHi,93,v,c,u,2,g,d,d,d,d,00h
   53                     	;}
   54                     			.strend	_tagMsgByteType,3,3
   55                     	;struct tagDate {
   56                     	;	
   57                     			.strname  _tagDate
   58                     	;unsigned char 	day;			
   59                     	;	
   60                     			.strdef	_day,128,v,c,u,0,g,d,d,d,d,00h
   61                     	;unsigned char 	month;
   62                     	;	
   63                     			.strdef	_month,129,v,c,u,1,g,d,d,d,d,00h
   64                     	;unsigned char 	year;
   65                     	;	
   66                     			.strdef	_year,130,v,c,u,2,g,d,d,d,d,00h
   67                     	;unsigned char 	wday;				
   68                     	;
   69                     			.strdef	_wday,131,v,c,u,3,g,d,d,d,d,00h
   70                     	;}
   71                     			.strend	_tagDate,4,4
   72                     	;struct tagTime {
   73                     	;	
   74                     			.strname  _tagTime
   75                     	;unsigned char 	second;
   76                     	;	
   77                     			.strdef	_second,136,v,c,u,0,g,d,d,d,d,00h
   78                     	;unsigned char 	minute;
   79                     	;	
   80                     			.strdef	_minute,137,v,c,u,1,g,d,d,d,d,00h
   81                     	;unsigned char 	hour;
   82                     	;
   83                     			.strdef	_hour,138,v,c,u,2,g,d,d,d,d,00h
   84                     	;}
   85                     			.strend	_tagTime,3,3
   86                     	;struct tagGuiMenuItemType {
   87                     	;	
   88                     			.strname  _tagGuiMenuItemType
   89                     	;unsigned char 		strLen;				
   90                     	;	
   91                     			.strdef	_strLen,156,v,c,u,0,g,d,d,d,d,00h
   92                     	;unsigned char 		*str;						
   93                     	;	
   94                     			.strdef	_str,157,v,pc1,u,1,g,d,d,d,d,00h
   95                     	;unsigned char 		*bmpData0;			
   96                     	;	
   97                     			.strdef	_bmpData0,158,v,pc1,u,3,g,d,d,d,d,00h
   98                     	;unsigned char 		*bmpData1;			
   99                     	;
  100                     			.strdef	_bmpData1,159,v,pc1,u,5,g,d,d,d,d,00h
  101                     	;}
  102                     			.strend	_tagGuiMenuItemType,7,4
  103                     	;struct tagGuiMenu {
  Sun Jan 12 14:21:22 2003                                                                                               Page    3




  104                     	;	
  105                     			.strname  _tagGuiMenu
  106                     	;unsigned char 					itemNum;			
  107                     	;	
  108                     			.strdef	_itemNum,164,v,c,u,0,g,d,d,d,d,00h
  109                     	;unsigned char 					colNum;				
  110                     	;	
  111                     			.strdef	_colNum,165,v,c,u,1,g,d,d,d,d,00h
  112                     	;unsigned char 					*colPos;			
  113                     	;	
  114                     			.strdef	_colPos,166,v,pc1,u,2,g,d,d,d,d,00h
  115                     	;unsigned char 					style;				
  116                     	;	
  117                     			.strdef	_style,167,v,c,u,4,g,d,d,d,d,00h
  118                     	;struct tagGuiMenuItemType *	*menuItems ;		
  119                     	;
  120                     			.strdef	_menuItems,168,v,ps2,_tagGuiMenuItemType,s,5,g,d,d,d,d,00h
  121                     	;}
  122                     			.strend	_tagGuiMenu,7,5
  123                     	;struct tagMenuEnv {
  124                     	;	
  125                     			.strname  _tagMenuEnv
  126                     	;unsigned char 		x0;					
  127                     	;	
  128                     			.strdef	_x0,173,v,c,u,0,g,d,d,d,d,00h
  129                     	;unsigned char 		x1;					
  130                     	;	
  131                     			.strdef	_x1,174,v,c,u,1,g,d,d,d,d,00h
  132                     	;unsigned char 		y0;
  133                     	;	
  134                     			.strdef	_y0,175,v,c,u,2,g,d,d,d,d,00h
  135                     	;unsigned char 		y1;
  136                     	;	
  137                     			.strdef	_y1,176,v,c,u,3,g,d,d,d,d,00h
  138                     	;unsigned char 		startDispItem;		
  139                     	;
  140                     	;
  141                     	;	
  142                     			.strdef	_startDispItem,177,v,c,u,4,g,d,d,d,d,00h
  143                     	;unsigned char 		maxDispItem;		
  144                     	;	
  145                     			.strdef	_maxDispItem,180,v,c,u,5,g,d,d,d,d,00h
  146                     	;unsigned char 		dispItemNum;		
  147                     	;	
  148                     			.strdef	_dispItemNum,181,v,c,u,6,g,d,d,d,d,00h
  149                     	;unsigned char 		nFocus;				
  150                     	;
  151                     			.strdef	_nFocus,182,v,c,u,7,g,d,d,d,d,00h
  152                     	;}
  153                     			.strend	_tagMenuEnv,8,8
  154                     	;struct tagRect {
  155                     	;	
  156                     			.strname  _tagRect
  157                     	;unsigned char 		left;					
  158                     	;	
  159                     			.strdef	_left,187,v,c,u,0,g,d,d,d,d,00h
  160                     	;unsigned char 		top;					
  Sun Jan 12 14:21:22 2003                                                                                               Page    4




  161                     	;	
  162                     			.strdef	_top,188,v,c,u,1,g,d,d,d,d,00h
  163                     	;unsigned char 		height;					 
  164                     	;	
  165                     			.strdef	_height,189,v,c,u,2,g,d,d,d,d,00h
  166                     	;unsigned char 		width;					
  167                     	;
  168                     			.strdef	_width,190,v,c,u,3,g,d,d,d,d,00h
  169                     	;}
  170                     			.strend	_tagRect,4,4
  171                     	;struct tagRandEnv {
  172                     	;	
  173                     			.strname  _tagRandEnv
  174                     	;unsigned long  next 	;
  175                     	; 	
  176                     			.strdef	_next,195,v,l,u,0,g,d,d,d,d,00h
  177                     	;unsigned int  randMax	;
  178                     	;
  179                     			.strdef	_randMax,196,v,i,u,4,g,d,d,d,d,00h
  180                     	;}
  181                     			.strend	_tagRandEnv,6,2
  182                     	;struct tagQryBoxBmp {
  183                     	;	
  184                     			.strname  _tagQryBoxBmp
  185                     	;unsigned char 		left;					
  186                     	;	
  187                     			.strdef	_left,201,v,c,u,0,g,d,d,d,d,00h
  188                     	;unsigned char 		top;					
  189                     	;	
  190                     			.strdef	_top,202,v,c,u,1,g,d,d,d,d,00h
  191                     	;unsigned char 		height;					 
  192                     	;	
  193                     			.strdef	_height,203,v,c,u,2,g,d,d,d,d,00h
  194                     	;unsigned char 		width;					
  195                     	;	
  196                     			.strdef	_width,204,v,c,u,3,g,d,d,d,d,00h
  197                     	;unsigned char 		*bmpData;				
  198                     	;
  199                     			.strdef	_bmpData,205,v,pc1,u,4,g,d,d,d,d,00h
  200                     	;}
  201                     			.strend	_tagQryBoxBmp,6,5
  202                     	;struct tagAppSwitchInfo {
  203                     	;	
  204                     			.strname  _tagAppSwitchInfo
  205                     	;unsigned int 		currentAppID;							
  206                     	;	
  207                     			.strdef	_currentAppID,250,v,i,u,0,g,d,d,d,d,00h
  208                     	;unsigned int 		heirAppID;								
  209                     	;	
  210                     			.strdef	_heirAppID,251,v,i,u,2,g,d,d,d,d,00h
  211                     	;unsigned long 		downAppPhyAddr;							
  212                     	;	
  213                     			.strdef	_downAppPhyAddr,252,v,l,u,4,g,d,d,d,d,00h
  214                     	;unsigned char 		currentAppAttr;							
  215                     	;	
  216                     			.strdef	_currentAppAttr,253,v,c,u,8,g,d,d,d,d,00h
  217                     	;unsigned char 		heirAppAttr;
  Sun Jan 12 14:21:22 2003                                                                                               Page    5




  218                     	;
  219                     			.strdef	_heirAppAttr,254,v,c,u,9,g,d,d,d,d,00h
  220                     	;}
  221                     			.strend	_tagAppSwitchInfo,10,5
  222                     	;struct tagSysIconEnv {
  223                     	;	
  224                     			.strname  _tagSysIconEnv
  225                     	;unsigned char 		iconSaveBuf[12];
  226                     	;
  227                     			.strdef	_iconSaveBuf,334,v,c,u,0,g,d,d,d,d,0ch,00h
  228                     	;}
  229                     			.strend	_tagSysIconEnv,12,1
  230                     	;.macstart 18849,513
  231                     	;
  232                     			.c_start  049a1h,513
  233                     	;.asm
  234                     	;	
  235  00000000             			.CHIP	6502
  236                     			.LINKLIST
  237                     			.SYMBOLS
  238                     			.DEBUG	ASM
  239                     			.LIST	ON
  240                     	;.optimize	off
  241                     	;	
  242                     	;.endasm
  243                     	;
  244                     	;
  245                     	;.macend 18932,520
  246                     	;
  247                     			.c_end	049f4h,520
  248                     	;.endinc mtowerdata.c
  249                     			.filename	mtowerdata.c
  250                     	;
  251                     			.const_data_mtdata
  252  9069     20 20 20 20 20 	_GameMTHelpData:	.byte	"        帮助        ",0o,""
              20 20 20 B0 EF 
              D6 FA 20 20 20 
              20 20 20 20 20 
              00 
  253  907E     2D 2D 2D 2D 2D 			.byte	"--------------------",0o,""
              2D 2D 2D 2D 2D 
              2D 2D 2D 2D 2D 
              2D 2D 2D 2D 2D 
              00 
  254  9093     A1 BE B7 BD CF 			.byte	"【方向键】上下左右",0o,""
              F2 BC FC A1 BF 
              C9 CF CF C2 D7 
              F3 D3 D2 00 
  255  90A6     D2 C6 B6 AF BA 			.byte	"移动和触发事件；",0o,""
              CD B4 A5 B7 A2 
              CA C2 BC FE A3 
              BB 00 
  256  90B7     A1 BE CC F8 B3 			.byte	"【跳出】退出。",0o,"",1o,"",0
              F6 A1 BF CD CB 
              B3 F6 A1 A3 00 
              01 00 
  257                     	;
  Sun Jan 12 14:21:22 2003                                                                                               Page    6




  258                     			.attrib	_GameMTHelpData,8,v,c,u,g,d,c,d,c,05fh,00h
  259                     	;
  260  90C8     07          	_GameMTHeroPic:	.byte	007h
  261                     	;
  262  90C9     E0          			.byte	0e0h
  263                     	;
  264  90CA     3F          			.byte	03fh
  265                     	;
  266  90CB     F0          			.byte	0f0h
  267                     	;
  268  90CC     1F          			.byte	01fh
  269                     	;
  270  90CD     F8          			.byte	0f8h
  271                     	;
  272  90CE     3F          			.byte	03fh
  273                     	;
  274  90CF     F8          			.byte	0f8h
  275                     	;
  276  90D0     1F          			.byte	01fh
  277                     	;
  278  90D1     F8          			.byte	0f8h
  279                     	;
  280  90D2     7F          			.byte	07fh
  281                     	;
  282  90D3     FE          			.byte	0feh
  283                     	;
  284  90D4     9F          			.byte	09fh
  285                     	;
  286  90D5     F3          			.byte	0f3h
  287                     	;
  288  90D6     77          			.byte	077h
  289                     	;
  290  90D7     EE          			.byte	0eeh
  291                     	;
  292  90D8     50          			.byte	050h
  293                     	;
  294  90D9     0A          			.byte	00ah
  295                     	;
  296  90DA     20          			.byte	020h
  297                     	;
  298  90DB     8A          			.byte	08ah
  299                     	;
  300  90DC     27          			.byte	027h
  301                     	;
  302  90DD     06          			.byte	006h
  303                     	;
  304  90DE     40          			.byte	040h
  305                     	;
  306  90DF     04          			.byte	004h
  307                     	;
  308  90E0     80          			.byte	080h
  309                     	;
  310  90E1     04          			.byte	004h
  311                     	;
  312  90E2     6F          			.byte	06fh
  313                     	;
  314  90E3     04          			.byte	004h
  Sun Jan 12 14:21:22 2003                                                                                               Page    7




  315                     	;
  316  90E4     10          			.byte	010h
  317                     	;
  318  90E5     F8          			.byte	0f8h
  319                     	;
  320  90E6     0F          			.byte	00fh
  321                     	;
  322  90E7     E0          			.byte	0e0h
  323                     	;
  324  90E8     07          			.byte	007h
  325                     	;
  326  90E9     E0          			.byte	0e0h
  327                     	;
  328  90EA     3F          			.byte	03fh
  329                     	;
  330  90EB     F0          			.byte	0f0h
  331                     	;
  332  90EC     1F          			.byte	01fh
  333                     	;
  334  90ED     F8          			.byte	0f8h
  335                     	;
  336  90EE     3F          			.byte	03fh
  337                     	;
  338  90EF     F8          			.byte	0f8h
  339                     	;
  340  90F0     1F          			.byte	01fh
  341                     	;
  342  90F1     F8          			.byte	0f8h
  343                     	;
  344  90F2     7F          			.byte	07fh
  345                     	;
  346  90F3     FE          			.byte	0feh
  347                     	;
  348  90F4     9F          			.byte	09fh
  349                     	;
  350  90F5     F3          			.byte	0f3h
  351                     	;
  352  90F6     77          			.byte	077h
  353                     	;
  354  90F7     EE          			.byte	0eeh
  355                     	;
  356  90F8     50          			.byte	050h
  357                     	;
  358  90F9     0A          			.byte	00ah
  359                     	;
  360  90FA     51          			.byte	051h
  361                     	;
  362  90FB     04          			.byte	004h
  363                     	;
  364  90FC     60          			.byte	060h
  365                     	;
  366  90FD     E4          			.byte	0e4h
  367                     	;
  368  90FE     20          			.byte	020h
  369                     	;
  370  90FF     02          			.byte	002h
  371                     	;
  Sun Jan 12 14:21:22 2003                                                                                               Page    8




  372  9100     20          			.byte	020h
  373                     	;
  374  9101     01          			.byte	001h
  375                     	;
  376  9102     20          			.byte	020h
  377                     	;
  378  9103     F6          			.byte	0f6h
  379                     	;
  380  9104     1F          			.byte	01fh
  381                     	;
  382  9105     08          			.byte	008h
  383                     	;
  384  9106     0F          			.byte	00fh
  385                     	;
  386  9107     F0          			.byte	0f0h
  387                     	;
  388  9108     07          			.byte	007h
  389                     	;
  390  9109     E0          			.byte	0e0h
  391                     	;
  392  910A     0F          			.byte	00fh
  393                     	;
  394  910B     FC          			.byte	0fch
  395                     	;
  396  910C     1F          			.byte	01fh
  397                     	;
  398  910D     F8          			.byte	0f8h
  399                     	;
  400  910E     1F          			.byte	01fh
  401                     	;
  402  910F     BC          			.byte	0bch
  403                     	;
  404  9110     1F          			.byte	01fh
  405                     	;
  406  9111     18          			.byte	018h
  407                     	;
  408  9112     7E          			.byte	07eh
  409                     	;
  410  9113     5E          			.byte	05eh
  411                     	;
  412  9114     CA          			.byte	0cah
  413                     	;
  414  9115     53          			.byte	053h
  415                     	;
  416  9116     7C          			.byte	07ch
  417                     	;
  418  9117     3E          			.byte	03eh
  419                     	;
  420  9118     8B          			.byte	08bh
  421                     	;
  422  9119     D6          			.byte	0d6h
  423                     	;
  424  911A     D8          			.byte	0d8h
  425                     	;
  426  911B     1A          			.byte	01ah
  427                     	;
  428  911C     8F          			.byte	08fh
  Sun Jan 12 14:21:22 2003                                                                                               Page    9




  429                     	;
  430  911D     EF          			.byte	0efh
  431                     	;
  432  911E     CC          			.byte	0cch
  433                     	;
  434  911F     1B          			.byte	01bh
  435                     	;
  436  9120     FD          			.byte	0fdh
  437                     	;
  438  9121     5F          			.byte	05fh
  439                     	;
  440  9122     AB          			.byte	0abh
  441                     	;
  442  9123     AD          			.byte	0adh
  443                     	;
  444  9124     65          			.byte	065h
  445                     	;
  446  9125     16          			.byte	016h
  447                     	;
  448  9126     20          			.byte	020h
  449                     	;
  450  9127     E4          			.byte	0e4h
  451                     	;
  452  9128     07          			.byte	007h
  453                     	;
  454  9129     E0          			.byte	0e0h
  455                     	;
  456  912A     0F          			.byte	00fh
  457                     	;
  458  912B     FC          			.byte	0fch
  459                     	;
  460  912C     1F          			.byte	01fh
  461                     	;
  462  912D     F8          			.byte	0f8h
  463                     	;
  464  912E     1F          			.byte	01fh
  465                     	;
  466  912F     BC          			.byte	0bch
  467                     	;
  468  9130     1F          			.byte	01fh
  469                     	;
  470  9131     18          			.byte	018h
  471                     	;
  472  9132     7E          			.byte	07eh
  473                     	;
  474  9133     5E          			.byte	05eh
  475                     	;
  476  9134     CA          			.byte	0cah
  477                     	;
  478  9135     53          			.byte	053h
  479                     	;
  480  9136     7C          			.byte	07ch
  481                     	;
  482  9137     3E          			.byte	03eh
  483                     	;
  484  9138     6B          			.byte	06bh
  485                     	;
  Sun Jan 12 14:21:22 2003                                                                                               Page   10




  486  9139     D1          			.byte	0d1h
  487                     	;
  488  913A     58          			.byte	058h
  489                     	;
  490  913B     1B          			.byte	01bh
  491                     	;
  492  913C     F7          			.byte	0f7h
  493                     	;
  494  913D     F1          			.byte	0f1h
  495                     	;
  496  913E     D8          			.byte	0d8h
  497                     	;
  498  913F     33          			.byte	033h
  499                     	;
  500  9140     FA          			.byte	0fah
  501                     	;
  502  9141     BF          			.byte	0bfh
  503                     	;
  504  9142     B5          			.byte	0b5h
  505                     	;
  506  9143     D5          			.byte	0d5h
  507                     	;
  508  9144     68          			.byte	068h
  509                     	;
  510  9145     A6          			.byte	0a6h
  511                     	;
  512  9146     27          			.byte	027h
  513                     	;
  514  9147     04          			.byte	004h
  515                     	;
  516  9148     03          			.byte	003h
  517                     	;
  518  9149     F0          			.byte	0f0h
  519                     	;
  520  914A     0F          			.byte	00fh
  521                     	;
  522  914B     F8          			.byte	0f8h
  523                     	;
  524  914C     1F          			.byte	01fh
  525                     	;
  526  914D     FC          			.byte	0fch
  527                     	;
  528  914E     0F          			.byte	00fh
  529                     	;
  530  914F     9E          			.byte	09eh
  531                     	;
  532  9150     0F          			.byte	00fh
  533                     	;
  534  9151     2C          			.byte	02ch
  535                     	;
  536  9152     05          			.byte	005h
  537                     	;
  538  9153     28          			.byte	028h
  539                     	;
  540  9154     0F          			.byte	00fh
  541                     	;
  542  9155     08          			.byte	008h
  Sun Jan 12 14:21:22 2003                                                                                               Page   11




  543                     	;
  544  9156     10          			.byte	010h
  545                     	;
  546  9157     90          			.byte	090h
  547                     	;
  548  9158     17          			.byte	017h
  549                     	;
  550  9159     F0          			.byte	0f0h
  551                     	;
  552  915A     39          			.byte	039h
  553                     	;
  554  915B     10          			.byte	010h
  555                     	;
  556  915C     3B          			.byte	03bh
  557                     	;
  558  915D     B0          			.byte	0b0h
  559                     	;
  560  915E     2C          			.byte	02ch
  561                     	;
  562  915F     A0          			.byte	0a0h
  563                     	;
  564  9160     54          			.byte	054h
  565                     	;
  566  9161     E0          			.byte	0e0h
  567                     	;
  568  9162     6F          			.byte	06fh
  569                     	;
  570  9163     E0          			.byte	0e0h
  571                     	;
  572  9164     DE          			.byte	0deh
  573                     	;
  574  9165     10          			.byte	010h
  575                     	;
  576  9166     7F          			.byte	07fh
  577                     	;
  578  9167     E0          			.byte	0e0h
  579                     	;
  580  9168     00          			.byte	000h
  581                     	;
  582  9169     00          			.byte	000h
  583                     	;
  584  916A     01          			.byte	001h
  585                     	;
  586  916B     F8          			.byte	0f8h
  587                     	;
  588  916C     07          			.byte	007h
  589                     	;
  590  916D     FC          			.byte	0fch
  591                     	;
  592  916E     0F          			.byte	00fh
  593                     	;
  594  916F     FE          			.byte	0feh
  595                     	;
  596  9170     07          			.byte	007h
  597                     	;
  598  9171     CF          			.byte	0cfh
  599                     	;
  Sun Jan 12 14:21:22 2003                                                                                               Page   12




  600  9172     07          			.byte	007h
  601                     	;
  602  9173     96          			.byte	096h
  603                     	;
  604  9174     02          			.byte	002h
  605                     	;
  606  9175     94          			.byte	094h
  607                     	;
  608  9176     07          			.byte	007h
  609                     	;
  610  9177     04          			.byte	004h
  611                     	;
  612  9178     08          			.byte	008h
  613                     	;
  614  9179     88          			.byte	088h
  615                     	;
  616  917A     13          			.byte	013h
  617                     	;
  618  917B     F8          			.byte	0f8h
  619                     	;
  620  917C     1C          			.byte	01ch
  621                     	;
  622  917D     C8          			.byte	0c8h
  623                     	;
  624  917E     16          			.byte	016h
  625                     	;
  626  917F     B8          			.byte	0b8h
  627                     	;
  628  9180     35          			.byte	035h
  629                     	;
  630  9181     2E          			.byte	02eh
  631                     	;
  632  9182     6B          			.byte	06bh
  633                     	;
  634  9183     D2          			.byte	0d2h
  635                     	;
  636  9184     DD          			.byte	0ddh
  637                     	;
  638  9185     E4          			.byte	0e4h
  639                     	;
  640  9186     77          			.byte	077h
  641                     	;
  642  9187     38          			.byte	038h
  643                     	;
  644  9188     0F          			.byte	00fh
  645                     	;
  646  9189     C0          			.byte	0c0h
  647                     	;
  648  918A     1F          			.byte	01fh
  649                     	;
  650  918B     F0          			.byte	0f0h
  651                     	;
  652  918C     3F          			.byte	03fh
  653                     	;
  654  918D     F8          			.byte	0f8h
  655                     	;
  656  918E     79          			.byte	079h
  Sun Jan 12 14:21:22 2003                                                                                               Page   13




  657                     	;
  658  918F     F0          			.byte	0f0h
  659                     	;
  660  9190     34          			.byte	034h
  661                     	;
  662  9191     F0          			.byte	0f0h
  663                     	;
  664  9192     14          			.byte	014h
  665                     	;
  666  9193     A0          			.byte	0a0h
  667                     	;
  668  9194     10          			.byte	010h
  669                     	;
  670  9195     F0          			.byte	0f0h
  671                     	;
  672  9196     09          			.byte	009h
  673                     	;
  674  9197     08          			.byte	008h
  675                     	;
  676  9198     0F          			.byte	00fh
  677                     	;
  678  9199     E8          			.byte	0e8h
  679                     	;
  680  919A     08          			.byte	008h
  681                     	;
  682  919B     9C          			.byte	09ch
  683                     	;
  684  919C     0D          			.byte	00dh
  685                     	;
  686  919D     DC          			.byte	0dch
  687                     	;
  688  919E     05          			.byte	005h
  689                     	;
  690  919F     34          			.byte	034h
  691                     	;
  692  91A0     07          			.byte	007h
  693                     	;
  694  91A1     2A          			.byte	02ah
  695                     	;
  696  91A2     07          			.byte	007h
  697                     	;
  698  91A3     F6          			.byte	0f6h
  699                     	;
  700  91A4     08          			.byte	008h
  701                     	;
  702  91A5     7B          			.byte	07bh
  703                     	;
  704  91A6     07          			.byte	007h
  705                     	;
  706  91A7     FE          			.byte	0feh
  707                     	;
  708  91A8     00          			.byte	000h
  709                     	;
  710  91A9     00          			.byte	000h
  711                     	;
  712  91AA     1F          			.byte	01fh
  713                     	;
  Sun Jan 12 14:21:22 2003                                                                                               Page   14




  714  91AB     80          			.byte	080h
  715                     	;
  716  91AC     3F          			.byte	03fh
  717                     	;
  718  91AD     E0          			.byte	0e0h
  719                     	;
  720  91AE     7F          			.byte	07fh
  721                     	;
  722  91AF     F0          			.byte	0f0h
  723                     	;
  724  91B0     F3          			.byte	0f3h
  725                     	;
  726  91B1     E0          			.byte	0e0h
  727                     	;
  728  91B2     69          			.byte	069h
  729                     	;
  730  91B3     E0          			.byte	0e0h
  731                     	;
  732  91B4     29          			.byte	029h
  733                     	;
  734  91B5     40          			.byte	040h
  735                     	;
  736  91B6     20          			.byte	020h
  737                     	;
  738  91B7     E0          			.byte	0e0h
  739                     	;
  740  91B8     11          			.byte	011h
  741                     	;
  742  91B9     10          			.byte	010h
  743                     	;
  744  91BA     1F          			.byte	01fh
  745                     	;
  746  91BB     C8          			.byte	0c8h
  747                     	;
  748  91BC     13          			.byte	013h
  749                     	;
  750  91BD     38          			.byte	038h
  751                     	;
  752  91BE     1D          			.byte	01dh
  753                     	;
  754  91BF     68          			.byte	068h
  755                     	;
  756  91C0     74          			.byte	074h
  757                     	;
  758  91C1     AC          			.byte	0ach
  759                     	;
  760  91C2     4B          			.byte	04bh
  761                     	;
  762  91C3     D6          			.byte	0d6h
  763                     	;
  764  91C4     27          			.byte	027h
  765                     	;
  766  91C5     BB          			.byte	0bbh
  767                     	;
  768  91C6     1C          			.byte	01ch
  769                     	;
  770  91C7     EE          			.byte	0eeh
  Sun Jan 12 14:21:22 2003                                                                                               Page   15




  771                     	;
  772                     			.attrib	_GameMTHeroPic,43,v,c,u,g,d,c,d,c,0100h,020h,00h
  773                     	;
  774  91C8     22          	_GameMTTalkUp:	.byte	022h
  775                     	;
  776  91C9     22          			.byte	022h
  777                     	;
  778  91CA     22          			.byte	022h
  779                     	;
  780  91CB     22          			.byte	022h
  781                     	;
  782  91CC     22          			.byte	022h
  783                     	;
  784  91CD     22          			.byte	022h
  785                     	;
  786  91CE     22          			.byte	022h
  787                     	;
  788  91CF     22          			.byte	022h
  789                     	;
  790  91D0     22          			.byte	022h
  791                     	;
  792  91D1     22          			.byte	022h
  793                     	;
  794  91D2     22          			.byte	022h
  795                     	;
  796  91D3     22          			.byte	022h
  797                     	;
  798  91D4     22          			.byte	022h
  799                     	;
  800  91D5     22          			.byte	022h
  801                     	;
  802  91D6     22          			.byte	022h
  803                     	;
  804  91D7     22          			.byte	022h
  805                     	;
  806  91D8     22          			.byte	022h
  807                     	;
  808  91D9     22          			.byte	022h
  809                     	;
  810  91DA     20          			.byte	020h
  811                     	;
  812  91DB     55          			.byte	055h
  813                     	;
  814  91DC     55          			.byte	055h
  815                     	;
  816  91DD     55          			.byte	055h
  817                     	;
  818  91DE     55          			.byte	055h
  819                     	;
  820  91DF     55          			.byte	055h
  821                     	;
  822  91E0     55          			.byte	055h
  823                     	;
  824  91E1     55          			.byte	055h
  825                     	;
  826  91E2     55          			.byte	055h
  827                     	;
  Sun Jan 12 14:21:22 2003                                                                                               Page   16




  828  91E3     55          			.byte	055h
  829                     	;
  830  91E4     55          			.byte	055h
  831                     	;
  832  91E5     55          			.byte	055h
  833                     	;
  834  91E6     55          			.byte	055h
  835                     	;
  836  91E7     55          			.byte	055h
  837                     	;
  838  91E8     55          			.byte	055h
  839                     	;
  840  91E9     55          			.byte	055h
  841                     	;
  842  91EA     55          			.byte	055h
  843                     	;
  844  91EB     55          			.byte	055h
  845                     	;
  846  91EC     55          			.byte	055h
  847                     	;
  848  91ED     50          			.byte	050h
  849                     	;
  850  91EE     88          			.byte	088h
  851                     	;
  852  91EF     88          			.byte	088h
  853                     	;
  854  91F0     88          			.byte	088h
  855                     	;
  856  91F1     88          			.byte	088h
  857                     	;
  858  91F2     88          			.byte	088h
  859                     	;
  860  91F3     88          			.byte	088h
  861                     	;
  862  91F4     88          			.byte	088h
  863                     	;
  864  91F5     88          			.byte	088h
  865                     	;
  866  91F6     88          			.byte	088h
  867                     	;
  868  91F7     88          			.byte	088h
  869                     	;
  870  91F8     88          			.byte	088h
  871                     	;
  872  91F9     88          			.byte	088h
  873                     	;
  874  91FA     88          			.byte	088h
  875                     	;
  876  91FB     88          			.byte	088h
  877                     	;
  878  91FC     88          			.byte	088h
  879                     	;
  880  91FD     88          			.byte	088h
  881                     	;
  882  91FE     88          			.byte	088h
  883                     	;
  884  91FF     88          			.byte	088h
  Sun Jan 12 14:21:22 2003                                                                                               Page   17




  885                     	;
  886  9200     88          			.byte	088h
  887                     	;
  888                     			.attrib	_GameMTTalkUp,49,v,c,u,g,d,c,d,c,039h,00h
  889                     	;
  890  9201     44          	_GameMTTalkDown:	.byte	044h
  891                     	;
  892  9202     44          			.byte	044h
  893                     	;
  894  9203     44          			.byte	044h
  895                     	;
  896  9204     44          			.byte	044h
  897                     	;
  898  9205     44          			.byte	044h
  899                     	;
  900  9206     44          			.byte	044h
  901                     	;
  902  9207     44          			.byte	044h
  903                     	;
  904  9208     44          			.byte	044h
  905                     	;
  906  9209     44          			.byte	044h
  907                     	;
  908  920A     44          			.byte	044h
  909                     	;
  910  920B     44          			.byte	044h
  911                     	;
  912  920C     44          			.byte	044h
  913                     	;
  914  920D     44          			.byte	044h
  915                     	;
  916  920E     44          			.byte	044h
  917                     	;
  918  920F     44          			.byte	044h
  919                     	;
  920  9210     44          			.byte	044h
  921                     	;
  922  9211     44          			.byte	044h
  923                     	;
  924  9212     44          			.byte	044h
  925                     	;
  926  9213     44          			.byte	044h
  927                     	;
  928  9214     2A          			.byte	02ah
  929                     	;
  930  9215     AA          			.byte	0aah
  931                     	;
  932  9216     AA          			.byte	0aah
  933                     	;
  934  9217     AA          			.byte	0aah
  935                     	;
  936  9218     AA          			.byte	0aah
  937                     	;
  938  9219     AA          			.byte	0aah
  939                     	;
  940  921A     AA          			.byte	0aah
  941                     	;
  Sun Jan 12 14:21:22 2003                                                                                               Page   18




  942  921B     AA          			.byte	0aah
  943                     	;
  944  921C     AA          			.byte	0aah
  945                     	;
  946  921D     AA          			.byte	0aah
  947                     	;
  948  921E     AA          			.byte	0aah
  949                     	;
  950  921F     AA          			.byte	0aah
  951                     	;
  952  9220     AA          			.byte	0aah
  953                     	;
  954  9221     AA          			.byte	0aah
  955                     	;
  956  9222     AA          			.byte	0aah
  957                     	;
  958  9223     AA          			.byte	0aah
  959                     	;
  960  9224     AA          			.byte	0aah
  961                     	;
  962  9225     AA          			.byte	0aah
  963                     	;
  964  9226     A8          			.byte	0a8h
  965                     	;
  966  9227     11          			.byte	011h
  967                     	;
  968  9228     11          			.byte	011h
  969                     	;
  970  9229     11          			.byte	011h
  971                     	;
  972  922A     11          			.byte	011h
  973                     	;
  974  922B     11          			.byte	011h
  975                     	;
  976  922C     11          			.byte	011h
  977                     	;
  978  922D     11          			.byte	011h
  979                     	;
  980  922E     11          			.byte	011h
  981                     	;
  982  922F     11          			.byte	011h
  983                     	;
  984  9230     11          			.byte	011h
  985                     	;
  986  9231     11          			.byte	011h
  987                     	;
  988  9232     11          			.byte	011h
  989                     	;
  990  9233     11          			.byte	011h
  991                     	;
  992  9234     11          			.byte	011h
  993                     	;
  994  9235     11          			.byte	011h
  995                     	;
  996  9236     11          			.byte	011h
  997                     	;
  998  9237     11          			.byte	011h
  Sun Jan 12 14:21:22 2003                                                                                               Page   19




  999                     	;
 1000  9238     11          			.byte	011h
 1001                     	;
 1002  9239     10          			.byte	010h
 1003                     	;
 1004                     			.attrib	_GameMTTalkDown,54,v,c,u,g,d,c,d,c,039h,00h
 1005                     	;
 1006  923A     20          	_GameMTTalkSide:	.byte	020h
 1007                     	;
 1008  923B     40          			.byte	040h
 1009                     	;
 1010  923C     80          			.byte	080h
 1011                     	;
 1012  923D     40          			.byte	040h
 1013                     	;
 1014  923E     20          			.byte	020h
 1015                     	;
 1016  923F     40          			.byte	040h
 1017                     	;
 1018  9240     80          			.byte	080h
 1019                     	;
 1020  9241     40          			.byte	040h
 1021                     	;
 1022  9242     20          			.byte	020h
 1023                     	;
 1024  9243     40          			.byte	040h
 1025                     	;
 1026  9244     80          			.byte	080h
 1027                     	;
 1028  9245     40          			.byte	040h
 1029                     	;
 1030  9246     20          			.byte	020h
 1031                     	;
 1032  9247     40          			.byte	040h
 1033                     	;
 1034  9248     80          			.byte	080h
 1035                     	;
 1036  9249     40          			.byte	040h
 1037                     	;	
 1038                     	;
 1039                     			.attrib	_GameMTTalkSide,57,v,c,u,g,d,c,d,c,010h,00h
 1040                     	;
 1041  924A     1F          	_GameMTTalkSigh:	.byte	01fh
 1042                     	;
 1043  924B     F0          			.byte	0f0h
 1044                     	;
 1045  924C     0F          			.byte	00fh
 1046                     	;
 1047  924D     E0          			.byte	0e0h
 1048                     	;
 1049  924E     07          			.byte	007h
 1050                     	;
 1051  924F     C0          			.byte	0c0h
 1052                     	;
 1053  9250     03          			.byte	003h
 1054                     	;
 1055  9251     80          			.byte	080h
  Sun Jan 12 14:21:22 2003                                                                                               Page   20




 1056                     	;
 1057  9252     01          			.byte	001h
 1058                     	;
 1059  9253     00          			.byte	000h
 1060                     	;
 1061  9254     00          			.byte	000h
 1062                     	;
 1063  9255     00          			.byte	000h
 1064                     	;
 1065  9256     1F          			.byte	01fh
 1066                     	;
 1067  9257     F0          			.byte	0f0h
 1068                     	;
 1069  9258     0F          			.byte	00fh
 1070                     	;
 1071  9259     E0          			.byte	0e0h
 1072                     	;
 1073  925A     07          			.byte	007h
 1074                     	;
 1075  925B     C0          			.byte	0c0h
 1076                     	;
 1077  925C     03          			.byte	003h
 1078                     	;
 1079  925D     80          			.byte	080h
 1080                     	;
 1081  925E     01          			.byte	001h
 1082                     	;
 1083  925F     00          			.byte	000h
 1084                     	;
 1085  9260     00          			.byte	000h
 1086                     	;
 1087  9261     00          			.byte	000h
 1088                     	;
 1089  9262     00          			.byte	000h
 1090                     	;
 1091  9263     00          			.byte	000h
 1092                     	;
 1093  9264     00          			.byte	000h
 1094                     	;
 1095  9265     00          			.byte	000h
 1096                     	;
 1097  9266     00          			.byte	000h
 1098                     	;
 1099  9267     00          			.byte	000h
 1100                     	;
 1101  9268     1F          			.byte	01fh
 1102                     	;
 1103  9269     F0          			.byte	0f0h
 1104                     	;
 1105  926A     0F          			.byte	00fh
 1106                     	;
 1107  926B     E0          			.byte	0e0h
 1108                     	;
 1109  926C     07          			.byte	007h
 1110                     	;
 1111  926D     C0          			.byte	0c0h
 1112                     	;
  Sun Jan 12 14:21:22 2003                                                                                               Page   21




 1113  926E     03          			.byte	003h
 1114                     	;
 1115  926F     80          			.byte	080h
 1116                     	;
 1117  9270     01          			.byte	001h
 1118                     	;
 1119  9271     00          			.byte	000h
 1120                     	;
 1121  9272     00          			.byte	000h
 1122                     	;
 1123  9273     00          			.byte	000h
 1124                     	;
 1125  9274     1F          			.byte	01fh
 1126                     	;
 1127  9275     F0          			.byte	0f0h
 1128                     	;
 1129  9276     0F          			.byte	00fh
 1130                     	;
 1131  9277     E0          			.byte	0e0h
 1132                     	;
 1133  9278     07          			.byte	007h
 1134                     	;
 1135  9279     C0          			.byte	0c0h
 1136                     	;
 1137  927A     03          			.byte	003h
 1138                     	;
 1139  927B     80          			.byte	080h
 1140                     	;
 1141  927C     01          			.byte	001h
 1142                     	;
 1143  927D     00          			.byte	000h
 1144                     	;
 1145                     			.attrib	_GameMTTalkSigh,86,v,c,u,g,d,c,d,c,034h,01ah,00h
 1146                     	;
 1147  927E     D5 E2 CA C7 D2 	_GameMTTalkData:	.byte	"这是一个很古老的故",0
              BB B8 F6 BA DC 
              B9 C5 C0 CF B5 
              C4 B9 CA 00 
 1148  00009291             			.blkb	1
 1149                     	;
 1150  9292     CA C2 A3 AC B4 			.byte	"事，传说在很久很久",0
              AB CB B5 D4 DA 
              BA DC BE C3 BA 
              DC BE C3 00 
 1151  000092A5             			.blkb	1
 1152                     	;
 1153  92A6     D2 D4 C7 B0 A3 			.byte	"以前，在遥远的西方",0
              AC D4 DA D2 A3 
              D4 B6 B5 C4 CE 
              F7 B7 BD 00 
 1154  000092B9             			.blkb	1
 1155                     	;
 1156  92BA     B4 F3 B5 D8 C9 			.byte	"大地上，有着这样一",0
              CF A3 AC D3 D0 
              D7 C5 D5 E2 D1 
              F9 D2 BB 00 
 1157  000092CD             			.blkb	1
  Sun Jan 12 14:21:22 2003                                                                                               Page   22




 1158                     	;
 1159  92CE     B8 F6 CD F5 B9 			.byte	"个王国。          ",0
              FA A1 A3 20 20 
              20 20 20 20 20 
              20 20 20 00 
 1160  000092E1             			.blkb	1
 1161                     	;
 1162  92E2     CD F5 B9 FA CB 			.byte	"王国虽小，但全国的",0
              E4 D0 A1 A3 AC 
              B5 AB C8 AB B9 
              FA B5 C4 00 
 1163  000092F5             			.blkb	1
 1164                     	;
 1165  92F6     C8 CB C3 C7 B6 			.byte	"人们都生活得非常快",0
              BC C9 FA BB EE 
              B5 C3 B7 C7 B3 
              A3 BF EC 00 
 1166  00009309             			.blkb	1
 1167                     	;
 1168  930A     C0 D6 A1 A3 CD 			.byte	"乐。突然有一天，从",0
              BB C8 BB D3 D0 
              D2 BB CC EC A3 
              AC B4 D3 00 
 1169  0000931D             			.blkb	1
 1170                     	;
 1171  931E     CC EC BF D5 D6 			.byte	"天空中飞来了一群可",0
              D0 B7 C9 C0 B4 
              C1 CB D2 BB C8 
              BA BF C9 00 
 1172  00009331             			.blkb	1
 1173                     	;
 1174  9332     C5 C2 B5 C4 B9 			.byte	"怕的怪物，        ",0
              D6 CE EF A3 AC 
              20 20 20 20 20 
              20 20 20 00 
 1175  00009345             			.blkb	1
 1176                     	;
 1177  9346     CB FC C3 C7 C0 			.byte	"它们来到皇宫，抢走",0
              B4 B5 BD BB CA 
              B9 AC A3 AC C7 
              C0 D7 DF 00 
 1178  00009359             			.blkb	1
 1179                     	;
 1180  935A     C1 CB B9 FA CD 			.byte	"了国王唯一的女儿。",0
              F5 CE A8 D2 BB 
              B5 C4 C5 AE B6 
              F9 A1 A3 00 
 1181  0000936D             			.blkb	1
 1182                     	;
 1183  936E     B5 DA B6 FE CC 			.byte	"第二天，国王就向全",0
              EC A3 AC B9 FA 
              CD F5 BE CD CF 
              F2 C8 AB 00 
 1184  00009381             			.blkb	1
 1185                     	;
 1186  9382     B9 FA CF C2 B4 			.byte	"国下达了紧急令，只",0
              EF C1 CB BD F4 
  Sun Jan 12 14:21:22 2003                                                                                               Page   23




              BC B1 C1 EE A3 
              AC D6 BB 00 
 1187  00009395             			.blkb	1
 1188                     	;
 1189  9396     D2 AA CB AD C4 			.byte	"要谁能将公主给找  ",0
              DC BD AB B9 AB 
              D6 F7 B8 F8 D5 
              D2 20 20 00 
 1190  000093A9             			.blkb	1
 1191                     	;
 1192  93AA     BB D8 C0 B4 A3 			.byte	"回来，他将会把王位",0
              AC CB FB BD AB 
              BB E1 B0 D1 CD 
              F5 CE BB 00 
 1193  000093BD             			.blkb	1
 1194                     	;
 1195  93BE     C8 C3 B8 F8 CB 			.byte	"让给他。于是，全国",0
              FB A1 A3 D3 DA 
              CA C7 A3 AC C8 
              AB B9 FA 00 
 1196  000093D1             			.blkb	1
 1197                     	;
 1198  93D2     B5 C4 D3 C2 CA 			.byte	"的勇士们都出发了。",0
              BF C3 C7 B6 BC 
              B3 F6 B7 A2 C1 
              CB A1 A3 00 
 1199  000093E5             			.blkb	1
 1200                     	;
 1201  93E6     CB FB C3 C7 B5 			.byte	"他们的足迹走遍了全",0
              C4 D7 E3 BC A3 
              D7 DF B1 E9 C1 
              CB C8 AB 00 
 1202  000093F9             			.blkb	1
 1203                     	;
 1204  93FA     B9 FA B5 C4 B8 			.byte	"国的各个角落，可  ",0
              F7 B8 F6 BD C7 
              C2 E4 A3 AC BF 
              C9 20 20 00 
 1205  0000940D             			.blkb	1
 1206                     	;
 1207  940E     CA C7 D2 BB B5 			.byte	"是一点线索都没有找",0
              E3 CF DF CB F7 
              B6 BC C3 BB D3 
              D0 D5 D2 00 
 1208  00009421             			.blkb	1
 1209                     	;
 1210  9422     B5 BD A3 AC CA 			.byte	"到，时间很快就过去",0
              B1 BC E4 BA DC 
              BF EC BE CD B9 
              FD C8 A5 00 
 1211  00009435             			.blkb	1
 1212                     	;
 1213  9436     C1 CB D2 BB B8 			.byte	"了一个月。终于，在",0
              F6 D4 C2 A1 A3 
              D6 D5 D3 DA A3 
              AC D4 DA 00 
 1214  00009449             			.blkb	1
  Sun Jan 12 14:21:22 2003                                                                                               Page   24




 1215                     	;
 1216  944A     B5 DA C8 FD CA 			.byte	"第三十一天，一个从",0
              AE D2 BB CC EC 
              A3 AC D2 BB B8 
              F6 B4 D3 00 
 1217  0000945D             			.blkb	1
 1218                     	;
 1219  945E     D4 B6 B7 BD B9 			.byte	"远方归来的人告诉  ",0
              E9 C0 B4 B5 C4 
              C8 CB B8 E6 CB 
              DF 20 20 00 
 1220  00009471             			.blkb	1
 1221                     	;
 1222  9472     B9 FA CD F5 A3 			.byte	"国王，说在海边的一",0
              AC CB B5 D4 DA 
              BA A3 B1 DF B5 
              C4 D2 BB 00 
 1223  00009485             			.blkb	1
 1224                     	;
 1225  9486     D7 F9 D0 A1 B5 			.byte	"座小岛上，曾看到一",0
              BA C9 CF A3 AC 
              D4 F8 BF B4 B5 
              BD D2 BB 00 
 1226  00009499             			.blkb	1
 1227                     	;
 1228  949A     C8 BA B9 D6 CE 			.byte	"群怪物出现过。勇士",0
              EF B3 F6 CF D6 
              B9 FD A1 A3 D3 
              C2 CA BF 00 
 1229  000094AD             			.blkb	1
 1230                     	;
 1231  94AE     C3 C7 D3 D6 B3 			.byte	"们又出发了，可是，",0
              F6 B7 A2 C1 CB 
              A3 AC BF C9 CA 
              C7 A3 AC 00 
 1232  000094C1             			.blkb	1
 1233                     	;
 1234  94C2     B4 F3 B2 BF B7 			.byte	"大部分人都没有回  ",0
              D6 C8 CB B6 BC 
              C3 BB D3 D0 BB 
              D8 20 20 00 
 1235  000094D5             			.blkb	1
 1236                     	;
 1237  94D6     C0 B4 A3 AC C4 			.byte	"来，能活着回来的，",0
              DC BB EE D7 C5 
              BB D8 C0 B4 B5 
              C4 A3 AC 00 
 1238  000094E9             			.blkb	1
 1239                     	;
 1240  94EA     B6 BC D4 D9 D2 			.byte	"都再也不敢去了。而",0
              B2 B2 BB B8 D2 
              C8 A5 C1 CB A1 
              A3 B6 F8 00 
 1241  000094FD             			.blkb	1
 1242                     	;
 1243  94FE     CE D2 C3 C7 B5 			.byte	"我们的故事，就是从",0
              C4 B9 CA CA C2 
  Sun Jan 12 14:21:22 2003                                                                                               Page   25




              A3 AC BE CD CA 
              C7 B4 D3 00 
 1244  00009511             			.blkb	1
 1245                     	;
 1246  9512     D5 E2 C0 EF BF 			.byte	"这里开始的……    ",0
              AA CA BC B5 C4 
              A1 AD A1 AD 20 
              20 20 20 00 
 1247  00009525             			.blkb	1
 1248                     	;
 1249  9526     D3 C2 CA BF A3 			.byte	"勇士：……        ",0
              BA A1 AD A1 AD 
              20 20 20 20 20 
              20 20 20 00 
 1250  00009539             			.blkb	1
 1251                     	;
 1252  953A     CF C9 C5 AE A3 			.byte	"仙女：你醒了。    ",0
              BA C4 E3 D0 D1 
              C1 CB A1 A3 20 
              20 20 20 00 
 1253  0000954D             			.blkb	1
 1254                     	;
 1255  954E     D3 C2 CA BF A3 			.byte	"勇士：你是谁？我在",0
              BA C4 E3 CA C7 
              CB AD A3 BF CE 
              D2 D4 DA 00 
 1256  00009561             			.blkb	1
 1257                     	;
 1258  9562     C4 C4 C0 EF A3 			.byte	"哪里？            ",0
              BF 20 20 20 20 
              20 20 20 20 20 
              20 20 20 00 
 1259  00009575             			.blkb	1
 1260                     	;
 1261  9576     CF C9 C5 AE A3 			.byte	"仙女：我是这里的仙",0
              BA CE D2 CA C7 
              D5 E2 C0 EF B5 
              C4 CF C9 00 
 1262  00009589             			.blkb	1
 1263                     	;
 1264  958A     D7 D3 A3 AC B8 			.byte	"子，刚才你被这里的",0
              D5 B2 C5 C4 E3 
              B1 BB D5 E2 C0 
              EF B5 C4 00 
 1265  0000959D             			.blkb	1
 1266                     	;
 1267  959E     D0 A1 B9 D6 B4 			.byte	"小怪打晕了。      ",0
              F2 D4 CE C1 CB 
              A1 A3 20 20 20 
              20 20 20 00 
 1268  000095B1             			.blkb	1
 1269                     	;
 1270  95B2     D3 C2 CA BF A3 			.byte	"勇士：剑、剑、我的",0
              BA BD A3 A1 A2 
              BD A3 A1 A2 CE 
              D2 B5 C4 00 
 1271  000095C5             			.blkb	1
  Sun Jan 12 14:21:22 2003                                                                                               Page   26




 1272                     	;
 1273  95C6     BD A3 C4 D8 A3 			.byte	"剑呢？            ",0
              BF 20 20 20 20 
              20 20 20 20 20 
              20 20 20 00 
 1274  000095D9             			.blkb	1
 1275                     	;
 1276  95DA     CF C9 C5 AE A3 			.byte	"仙女：你的剑被它们",0
              BA C4 E3 B5 C4 
              BD A3 B1 BB CB 
              FC C3 C7 00 
 1277  000095ED             			.blkb	1
 1278                     	;
 1279  95EE     C7 C0 D7 DF C1 			.byte	"抢走了，我只来得及",0
              CB A3 AC CE D2 
              D6 BB C0 B4 B5 
              C3 BC B0 00 
 1280  00009601             			.blkb	1
 1281                     	;
 1282  9602     B0 D1 C4 E3 BE 			.byte	"把你救出来。      ",0
              C8 B3 F6 C0 B4 
              A1 A3 20 20 20 
              20 20 20 00 
 1283  00009615             			.blkb	1
 1284                     	;
 1285  9616     D3 C2 CA BF A3 			.byte	"勇士：那，公主呢？",0
              BA C4 C7 A3 AC 
              B9 AB D6 F7 C4 
              D8 A3 BF 00 
 1286  00009629             			.blkb	1
 1287                     	;
 1288  962A     CE D2 CA C7 C0 			.byte	"我是来救公主的。  ",0
              B4 BE C8 B9 AB 
              D6 F7 B5 C4 A1 
              A3 20 20 00 
 1289  0000963D             			.blkb	1
 1290                     	;
 1291  963E     CF C9 C5 AE A3 			.byte	"仙女：公主还在里面",0
              BA B9 AB D6 F7 
              BB B9 D4 DA C0 
              EF C3 E6 00 
 1292  00009651             			.blkb	1
 1293                     	;
 1294  9652     A3 AC C4 E3 D5 			.byte	"，你这样进去是打不",0
              E2 D1 F9 BD F8 
              C8 A5 CA C7 B4 
              F2 B2 BB 00 
 1295  00009665             			.blkb	1
 1296                     	;
 1297  9666     B9 FD C0 EF C3 			.byte	"过里面的小怪的。  ",0
              E6 B5 C4 D0 A1 
              B9 D6 B5 C4 A1 
              A3 20 20 00 
 1298  00009679             			.blkb	1
 1299                     	;
 1300  967A     D3 C2 CA BF A3 			.byte	"勇士：那我现在应该",0
              BA C4 C7 CE D2 
  Sun Jan 12 14:21:22 2003                                                                                               Page   27




              CF D6 D4 DA D3 
              A6 B8 C3 00 
 1301  0000968D             			.blkb	1
 1302                     	;
 1303  968E     D4 F5 C3 B4 B0 			.byte	"怎么办呢？我答应了",0
              EC C4 D8 A3 BF 
              CE D2 B4 F0 D3 
              A6 C1 CB 00 
 1304  000096A1             			.blkb	1
 1305                     	;
 1306  96A2     B9 FA CD F5 D2 			.byte	"国王一定要把公主救",0
              BB B6 A8 D2 AA 
              B0 D1 B9 AB D6 
              F7 BE C8 00 
 1307  000096B5             			.blkb	1
 1308                     	;
 1309  96B6     B3 F6 C0 B4 B5 			.byte	"出来的。          ",0
              C4 A1 A3 20 20 
              20 20 20 20 20 
              20 20 20 00 
 1310  000096C9             			.blkb	1
 1311                     	;
 1312  96CA     CF C9 C5 AE A3 			.byte	"仙女：放心吧，我把",0
              BA B7 C5 D0 C4 
              B0 C9 A3 AC CE 
              D2 B0 D1 00 
 1313  000096DD             			.blkb	1
 1314                     	;
 1315  96DE     CE D2 B5 C4 C1 			.byte	"我的力量借给你，你",0
              A6 C1 BF BD E8 
              B8 F8 C4 E3 A3 
              AC C4 E3 00 
 1316  000096F1             			.blkb	1
 1317                     	;
 1318  96F2     BE CD BF C9 D2 			.byte	"就可以打赢那些小怪",0
              D4 B4 F2 D3 AE 
              C4 C7 D0 A9 D0 
              A1 B9 D6 00 
 1319  00009705             			.blkb	1
 1320                     	;
 1321  9706     C1 CB A3 AC B2 			.byte	"了，不过，你要先帮",0
              BB B9 FD A3 AC 
              C4 E3 D2 AA CF 
              C8 B0 EF 00 
 1322  00009719             			.blkb	1
 1323                     	;
 1324  971A     CE D2 D5 D2 D2 			.byte	"我找一样东西，找  ",0
              BB D1 F9 B6 AB 
              CE F7 A3 AC D5 
              D2 20 20 00 
 1325  0000972D             			.blkb	1
 1326                     	;
 1327  972E     B5 BD C1 CB D4 			.byte	"到了再来这里找我。",0
              D9 C0 B4 D5 E2 
              C0 EF D5 D2 CE 
              D2 A1 A3 00 
 1328  00009741             			.blkb	1
  Sun Jan 12 14:21:22 2003                                                                                               Page   28




 1329                     	;
 1330  9742     D3 C2 CA BF A3 			.byte	"勇士：找东西？找什",0
              BA D5 D2 B6 AB 
              CE F7 A3 BF D5 
              D2 CA B2 00 
 1331  00009755             			.blkb	1
 1332                     	;
 1333  9756     C3 B4 B6 AB CE 			.byte	"么东西？          ",0
              F7 A3 BF 20 20 
              20 20 20 20 20 
              20 20 20 00 
 1334  00009769             			.blkb	1
 1335                     	;
 1336  976A     CF C9 C5 AE A3 			.byte	"仙女：是一个十字架",0
              BA CA C7 D2 BB 
              B8 F6 CA AE D7 
              D6 BC DC 00 
 1337  0000977D             			.blkb	1
 1338                     	;
 1339  977E     A3 AC D6 D0 BC 			.byte	"，中间有一颗漂亮的",0
              E4 D3 D0 D2 BB 
              BF C5 C6 AF C1 
              C1 B5 C4 00 
 1340  00009791             			.blkb	1
 1341                     	;
 1342  9792     B1 A6 CA AF A1 			.byte	"宝石。            ",0
              A3 20 20 20 20 
              20 20 20 20 20 
              20 20 20 00 
 1343  000097A5             			.blkb	1
 1344                     	;
 1345  97A6     D3 C2 CA BF A3 			.byte	"勇士：那个东西有什",0
              BA C4 C7 B8 F6 
              B6 AB CE F7 D3 
              D0 CA B2 00 
 1346  000097B9             			.blkb	1
 1347                     	;
 1348  97BA     C3 B4 D3 C3 C2 			.byte	"么用吗？          ",0
              F0 A3 BF 20 20 
              20 20 20 20 20 
              20 20 20 00 
 1349  000097CD             			.blkb	1
 1350                     	;
 1351  97CE     CF C9 C5 AE A3 			.byte	"仙女：我本来是这座",0
              BA CE D2 B1 BE 
              C0 B4 CA C7 D5 
              E2 D7 F9 00 
 1352  000097E1             			.blkb	1
 1353                     	;
 1354  97E2     CB FE B5 C4 CA 			.byte	"塔的守护者，可不久",0
              D8 BB A4 D5 DF 
              A3 AC BF C9 B2 
              BB BE C3 00 
 1355  000097F5             			.blkb	1
 1356                     	;
 1357  97F6     C7 B0 A3 AC B4 			.byte	"前，从北方来了一批",0
              D3 B1 B1 B7 BD 
  Sun Jan 12 14:21:22 2003                                                                                               Page   29




              C0 B4 C1 CB D2 
              BB C5 FA 00 
 1358  00009809             			.blkb	1
 1359                     	;
 1360  980A     B6 F1 C4 A7 A3 			.byte	"恶魔，它们占领了这",0
              AC CB FC C3 C7 
              D5 BC C1 EC C1 
              CB D5 E2 00 
 1361  0000981D             			.blkb	1
 1362                     	;
 1363  981E     D7 F9 CB FE A3 			.byte	"座塔，并将我的魔  ",0
              AC B2 A2 BD AB 
              CE D2 B5 C4 C4 
              A7 20 20 00 
 1364  00009831             			.blkb	1
 1365                     	;
 1366  9832     C1 A6 B7 E2 D4 			.byte	"力封在了这个十字架",0
              DA C1 CB D5 E2 
              B8 F6 CA AE D7 
              D6 BC DC 00 
 1367  00009845             			.blkb	1
 1368                     	;
 1369  9846     C0 EF C3 E6 A3 			.byte	"里面，如果你能将它",0
              AC C8 E7 B9 FB 
              C4 E3 C4 DC BD 
              AB CB FC 00 
 1370  00009859             			.blkb	1
 1371                     	;
 1372  985A     B4 F8 B3 F6 CB 			.byte	"带出塔来，那我的魔",0
              FE C0 B4 A3 AC 
              C4 C7 CE D2 B5 
              C4 C4 A7 00 
 1373  0000986D             			.blkb	1
 1374                     	;
 1375  986E     C1 A6 BE CD BB 			.byte	"力就会慢慢地恢复，",0
              E1 C2 FD C2 FD 
              B5 D8 BB D6 B8 
              B4 A3 AC 00 
 1376  00009881             			.blkb	1
 1377                     	;
 1378  9882     B5 BD C4 C7 CA 			.byte	"到那时候我就可以  ",0
              B1 BA F2 CE D2 
              BE CD BF C9 D2 
              D4 20 20 00 
 1379  00009895             			.blkb	1
 1380                     	;
 1381  9896     B0 D1 C1 A6 C1 			.byte	"把力量借给你去救公",0
              BF BD E8 B8 F8 
              C4 E3 C8 A5 BE 
              C8 B9 AB 00 
 1382  000098A9             			.blkb	1
 1383                     	;
 1384  98AA     D6 F7 C1 CB A1 			.byte	"主了。            ",0
              A3 20 20 20 20 
              20 20 20 20 20 
              20 20 20 00 
 1385  000098BD             			.blkb	1
  Sun Jan 12 14:21:22 2003                                                                                               Page   30




 1386                     	;
 1387  98BE     D3 C2 CA BF A3 			.byte	"勇士：好吧，我试试",0
              BA BA C3 B0 C9 
              A3 AC CE D2 CA 
              D4 CA D4 00 
 1388  000098D1             			.blkb	1
 1389                     	;
 1390  98D2     BF B4 A1 A3 20 			.byte	"看。              ",0
              20 20 20 20 20 
              20 20 20 20 20 
              20 20 20 00 
 1391  000098E5             			.blkb	1
 1392                     	;
 1393  98E6     CF C9 C5 AE A3 			.byte	"仙女：刚才我去看过",0
              BA B8 D5 B2 C5 
              CE D2 C8 A5 BF 
              B4 B9 FD 00 
 1394  000098F9             			.blkb	1
 1395                     	;
 1396  98FA     C1 CB A3 AC C4 			.byte	"了，你的剑被放在三",0
              E3 B5 C4 BD A3 
              B1 BB B7 C5 D4 
              DA C8 FD 00 
 1397  0000990D             			.blkb	1
 1398                     	;
 1399  990E     C2 A5 A3 AC C4 			.byte	"楼，你的盾在五楼上",0
              E3 B5 C4 B6 DC 
              D4 DA CE E5 C2 
              A5 C9 CF 00 
 1400  00009921             			.blkb	1
 1401                     	;
 1402  9922     A3 AC B6 F8 C4 			.byte	"，而那个十字架被放",0
              C7 B8 F6 CA AE 
              D7 D6 BC DC B1 
              BB B7 C5 00 
 1403  00009935             			.blkb	1
 1404                     	;
 1405  9936     D4 DA C6 DF C2 			.byte	"在七楼。要到七楼  ",0
              A5 A1 A3 D2 AA 
              B5 BD C6 DF C2 
              A5 20 20 00 
 1406  00009949             			.blkb	1
 1407                     	;
 1408  994A     C4 E3 D2 AA CF 			.byte	"你要先取回你的剑和",0
              C8 C8 A1 BB D8 
              C4 E3 B5 C4 BD 
              A3 BA CD 00 
 1409  0000995D             			.blkb	1
 1410                     	;
 1411  995E     B6 DC A1 A3 C1 			.byte	"盾。另外，在塔里的",0
              ED CD E2 A3 AC 
              D4 DA CB FE C0 
              EF B5 C4 00 
 1412  00009971             			.blkb	1
 1413                     	;
 1414  9972     C6 E4 CB FC C2 			.byte	"其它楼层上，还有一",0
              A5 B2 E3 C9 CF 
  Sun Jan 12 14:21:22 2003                                                                                               Page   31




              A3 AC BB B9 D3 
              D0 D2 BB 00 
 1415  00009985             			.blkb	1
 1416                     	;
 1417  9986     D0 A9 B4 E6 B7 			.byte	"些存放了好几百年的",0
              C5 C1 CB BA C3 
              BC B8 B0 D9 C4 
              EA B5 C4 00 
 1418  00009999             			.blkb	1
 1419                     	;
 1420  999A     B1 A6 CE EF A3 			.byte	"宝物，如果得到它  ",0
              AC C8 E7 B9 FB 
              B5 C3 B5 BD CB 
              FC 20 20 00 
 1421  000099AD             			.blkb	1
 1422                     	;
 1423  99AE     C3 C7 A3 AC B6 			.byte	"们，对于你对付里面",0
              D4 D3 DA C4 E3 
              B6 D4 B8 B6 C0 
              EF C3 E6 00 
 1424  000099C1             			.blkb	1
 1425                     	;
 1426  99C2     B5 C4 B9 D6 CE 			.byte	"的怪物有很大的帮助",0
              EF D3 D0 BA DC 
              B4 F3 B5 C4 B0 
              EF D6 FA 00 
 1427  000099D5             			.blkb	1
 1428                     	;
 1429  99D6     A1 A3 20 20 20 			.byte	"。                ",0
              20 20 20 20 20 
              20 20 20 20 20 
              20 20 20 00 
 1430  000099E9             			.blkb	1
 1431                     	;
 1432  99EA     D3 C2 CA BF A3 			.byte	"勇士：可是，我怎么",0
              BA BF C9 CA C7 
              A3 AC CE D2 D4 
              F5 C3 B4 00 
 1433  000099FD             			.blkb	1
 1434                     	;
 1435  99FE     BD F8 C8 A5 C4 			.byte	"进去呢？          ",0
              D8 A3 BF 20 20 
              20 20 20 20 20 
              20 20 20 00 
 1436  00009A11             			.blkb	1
 1437                     	;
 1438  9A12     CF C9 C5 AE A3 			.byte	"仙女：我这里有三把",0
              BA CE D2 D5 E2 
              C0 EF D3 D0 C8 
              FD B0 D1 00 
 1439  00009A25             			.blkb	1
 1440                     	;
 1441  9A26     D4 BF B3 D7 A3 			.byte	"钥匙，你先进去，在",0
              AC C4 E3 CF C8 
              BD F8 C8 A5 A3 
              AC D4 DA 00 
 1442  00009A39             			.blkb	1
  Sun Jan 12 14:21:22 2003                                                                                               Page   32




 1443                     	;
 1444  9A3A     CB FE C0 EF C3 			.byte	"塔里面还有很多这样",0
              E6 BB B9 D3 D0 
              BA DC B6 E0 D5 
              E2 D1 F9 00 
 1445  00009A4D             			.blkb	1
 1446                     	;
 1447  9A4E     B5 C4 D4 BF B3 			.byte	"的钥匙，你一定要珍",0
              D7 A3 AC C4 E3 
              D2 BB B6 A8 D2 
              AA D5 E4 00 
 1448  00009A61             			.blkb	1
 1449                     	;
 1450  9A62     CF A7 CA B9 D3 			.byte	"惜使用。勇敢的去  ",0
              C3 A1 A3 D3 C2 
              B8 D2 B5 C4 C8 
              A5 20 20 00 
 1451  00009A75             			.blkb	1
 1452                     	;
 1453  9A76     B0 C9 A3 AC D3 			.byte	"吧，勇士。        ",0
              C2 CA BF A1 A3 
              20 20 20 20 20 
              20 20 20 00 
 1454  00009A89             			.blkb	1
 1455                     	;
 1456  9A8A     CF C9 C5 AE A3 			.byte	"仙女：你找到十字架",0
              BA C4 E3 D5 D2 
              B5 BD CA AE D7 
              D6 BC DC 00 
 1457  00009A9D             			.blkb	1
 1458                     	;
 1459  9A9E     C1 CB C2 F0 A3 			.byte	"了吗？            ",0
              BF 20 20 20 20 
              20 20 20 20 20 
              20 20 20 00 
 1460  00009AB1             			.blkb	1
 1461                     	;
 1462  9AB2     D3 C2 CA BF A3 			.byte	"勇士：还，还没有找",0
              BA BB B9 A3 AC 
              BB B9 C3 BB D3 
              D0 D5 D2 00 
 1463  00009AC5             			.blkb	1
 1464                     	;
 1465  9AC6     B5 BD A1 A3 20 			.byte	"到。              ",0
              20 20 20 20 20 
              20 20 20 20 20 
              20 20 20 00 
 1466  00009AD9             			.blkb	1
 1467                     	;
 1468  9ADA     D3 C2 CA BF A3 			.byte	"勇士：仙女，我找到",0
              BA CF C9 C5 AE 
              A3 AC CE D2 D5 
              D2 B5 BD 00 
 1469  00009AED             			.blkb	1
 1470                     	;
 1471  9AEE     C1 CB C4 C7 B8 			.byte	"了那个十字架。    ",0
              F6 CA AE D7 D6 
  Sun Jan 12 14:21:22 2003                                                                                               Page   33




              BC DC A1 A3 20 
              20 20 20 00 
 1472  00009B01             			.blkb	1
 1473                     	;
 1474  9B02     CF C9 C5 AE A3 			.byte	"仙女：你做得很好。",0
              BA C4 E3 D7 F6 
              B5 C3 BA DC BA 
              C3 A1 A3 00 
 1475  00009B15             			.blkb	1
 1476                     	;
 1477  9B16     C4 C7 C3 B4 A3 			.byte	"那么，我现在就开始",0
              AC CE D2 CF D6 
              D4 DA BE CD BF 
              AA CA BC 00 
 1478  00009B29             			.blkb	1
 1479                     	;
 1480  9B2A     CA DA D3 EB C4 			.byte	"授与你更强的力量。",0
              E3 B8 FC C7 BF 
              B5 C4 C1 A6 C1 
              BF A1 A3 00 
 1481  00009B3D             			.blkb	1
 1482                     	;
 1483  9B3E     B6 DF C0 B2 DF 			.byte	"哆啦咪发唆。好了，",0
              E4 B7 A2 CB F4 
              A1 A3 BA C3 C1 
              CB A3 AC 00 
 1484  00009B51             			.blkb	1
 1485                     	;
 1486  9B52     CE D2 D2 D1 BE 			.byte	"我已经将你现在的  ",0
              AD BD AB C4 E3 
              CF D6 D4 DA B5 
              C4 20 20 00 
 1487  00009B65             			.blkb	1
 1488                     	;
 1489  9B66     C4 DC C1 A6 CC 			.byte	"能力提升了。      ",0
              E1 C9 FD C1 CB 
              A1 A3 20 20 20 
              20 20 20 00 
 1490  00009B79             			.blkb	1
 1491                     	;
 1492  9B7A     D3 C2 CA BF A3 			.byte	"勇士：您已经得救了",0
              BA C4 FA D2 D1 
              BE AD B5 C3 BE 
              C8 C1 CB 00 
 1493  00009B8D             			.blkb	1
 1494                     	;
 1495  9B8E     A1 A3 20 20 20 			.byte	"。                ",0
              20 20 20 20 20 
              20 20 20 20 20 
              20 20 20 00 
 1496  00009BA1             			.blkb	1
 1497                     	;
 1498  9BA2     C9 F1 C3 D8 C0 			.byte	"神秘老人：哦，我的",0
              CF C8 CB A3 BA 
              C5 B6 A3 AC CE 
              D2 B5 C4 00 
 1499  00009BB5             			.blkb	1
  Sun Jan 12 14:21:22 2003                                                                                               Page   34




 1500                     	;
 1501  9BB6     BA A2 D7 D3 A3 			.byte	"孩子，真是太感谢你",0
              AC D5 E6 CA C7 
              CC AB B8 D0 D0 
              BB C4 E3 00 
 1502  00009BC9             			.blkb	1
 1503                     	;
 1504  9BCA     C1 CB A1 A3 D5 			.byte	"了。这个地方又脏又",0
              E2 B8 F6 B5 D8 
              B7 BD D3 D6 D4 
              E0 D3 D6 00 
 1505  00009BDD             			.blkb	1
 1506                     	;
 1507  9BDE     BB B5 A3 AC CE 			.byte	"坏，我真的是快呆不",0
              D2 D5 E6 B5 C4 
              CA C7 BF EC B4 
              F4 B2 BB 00 
 1508  00009BF1             			.blkb	1
 1509                     	;
 1510  9BF2     CF C2 C8 A5 C1 			.byte	"下去了。          ",0
              CB A1 A3 20 20 
              20 20 20 20 20 
              20 20 20 00 
 1511  00009C05             			.blkb	1
 1512                     	;
 1513  9C06     D3 C2 CA BF A3 			.byte	"勇士：快走吧，我还",0
              BA BF EC D7 DF 
              B0 C9 A3 AC CE 
              D2 BB B9 00 
 1514  00009C19             			.blkb	1
 1515                     	;
 1516  9C1A     D2 AA C8 A5 BE 			.byte	"要去救被关在这里的",0
              C8 B1 BB B9 D8 
              D4 DA D5 E2 C0 
              EF B5 C4 00 
 1517  00009C2D             			.blkb	1
 1518                     	;
 1519  9C2E     B9 AB D6 F7 A1 			.byte	"公主。            ",0
              A3 20 20 20 20 
              20 20 20 20 20 
              20 20 20 00 
 1520  00009C41             			.blkb	1
 1521                     	;
 1522  9C42     C9 F1 C3 D8 C0 			.byte	"神秘老人：哦，原来",0
              CF C8 CB A3 BA 
              C5 B6 A3 AC D4 
              AD C0 B4 00 
 1523  00009C55             			.blkb	1
 1524                     	;
 1525  9C56     C4 E3 CA C7 C0 			.byte	"你是来救公主的，为",0
              B4 BE C8 B9 AB 
              D6 F7 B5 C4 A3 
              AC CE AA 00 
 1526  00009C69             			.blkb	1
 1527                     	;
 1528  9C6A     C1 CB B1 ED CA 			.byte	"了表示对你的感谢，",0
              BE B6 D4 C4 E3 
  Sun Jan 12 14:21:22 2003                                                                                               Page   35




              B5 C4 B8 D0 D0 
              BB A3 AC 00 
 1529  00009C7D             			.blkb	1
 1530                     	;
 1531  9C7E     D5 E2 B8 F6 B6 			.byte	"这个东西就送给你吧",0
              AB CE F7 BE CD 
              CB CD B8 F8 C4 
              E3 B0 C9 00 
 1532  00009C91             			.blkb	1
 1533                     	;
 1534  9C92     A3 AC D5 E2 BB 			.byte	"，这还是我年轻的  ",0
              B9 CA C7 CE D2 
              C4 EA C7 E1 B5 
              C4 20 20 00 
 1535  00009CA5             			.blkb	1
 1536                     	;
 1537  9CA6     CA B1 BA F2 D3 			.byte	"时候用过的。拿着它",0
              C3 B9 FD B5 C4 
              A1 A3 C4 C3 D7 
              C5 CB FC 00 
 1538  00009CB9             			.blkb	1
 1539                     	;
 1540  9CBA     C8 A5 BD E2 BE 			.byte	"去解救公主吧。    ",0
              C8 B9 AB D6 F7 
              B0 C9 A1 A3 20 
              20 20 20 00 
 1541  00009CCD             			.blkb	1
 1542                     	;
 1543  9CCE     D3 C2 CA BF A3 			.byte	"勇士：您已经得救了",0
              BA C4 FA D2 D1 
              BE AD B5 C3 BE 
              C8 C1 CB 00 
 1544  00009CE1             			.blkb	1
 1545                     	;
 1546  9CE2     A1 A3 20 20 20 			.byte	"。                ",0
              20 20 20 20 20 
              20 20 20 20 20 
              20 20 20 00 
 1547  00009CF5             			.blkb	1
 1548                     	;
 1549  9CF6     C9 CC C8 CB A3 			.byte	"商人：哦，是嘛。真",0
              BA C5 B6 A3 AC 
              CA C7 C2 EF A1 
              A3 D5 E6 00 
 1550  00009D09             			.blkb	1
 1551                     	;
 1552  9D0A     CA C7 CC AB B8 			.byte	"是太感谢你了。我是",0
              D0 D0 BB C4 E3 
              C1 CB A1 A3 CE 
              D2 CA C7 00 
 1553  00009D1D             			.blkb	1
 1554                     	;
 1555  9D1E     D2 BB B8 F6 C9 			.byte	"一个商人，不知道为",0
              CC C8 CB A3 AC 
              B2 BB D6 AA B5 
              C0 CE AA 00 
 1556  00009D31             			.blkb	1
  Sun Jan 12 14:21:22 2003                                                                                               Page   36




 1557                     	;
 1558  9D32     CA B2 C3 B4 B1 			.byte	"什么被抓到这里来了",0
              BB D7 A5 B5 BD 
              D5 E2 C0 EF C0 
              B4 C1 CB 00 
 1559  00009D45             			.blkb	1
 1560                     	;
 1561  9D46     A1 A3 20 20 20 			.byte	"。                ",0
              20 20 20 20 20 
              20 20 20 20 20 
              20 20 20 00 
 1562  00009D59             			.blkb	1
 1563                     	;
 1564  9D5A     D3 C2 CA BF A3 			.byte	"勇士：快走吧，现在",0
              BA BF EC D7 DF 
              B0 C9 A3 AC CF 
              D6 D4 DA 00 
 1565  00009D6D             			.blkb	1
 1566                     	;
 1567  9D6E     C4 FA D2 D1 BE 			.byte	"您已经自由了。    ",0
              AD D7 D4 D3 C9 
              C1 CB A1 A3 20 
              20 20 20 00 
 1568  00009D81             			.blkb	1
 1569                     	;
 1570  9D82     C9 CC C8 CB A3 			.byte	"商人：哦，对对对，",0
              BA C5 B6 A3 AC 
              B6 D4 B6 D4 B6 
              D4 A3 AC 00 
 1571  00009D95             			.blkb	1
 1572                     	;
 1573  9D96     CE D2 D2 D1 BE 			.byte	"我已经自由了。那这",0
              AD D7 D4 D3 C9 
              C1 CB A1 A3 C4 
              C7 D5 E2 00 
 1574  00009DA9             			.blkb	1
 1575                     	;
 1576  9DAA     B8 F6 B6 AB CE 			.byte	"个东西就给你吧，本",0
              F7 BE CD B8 F8 
              C4 E3 B0 C9 A3 
              AC B1 BE 00 
 1577  00009DBD             			.blkb	1
 1578                     	;
 1579  9DBE     C0 B4 CE D2 CA 			.byte	"来我是准备卖钱的。",0
              C7 D7 BC B1 B8 
              C2 F4 C7 AE B5 
              C4 A1 A3 00 
 1580  00009DD1             			.blkb	1
 1581                     	;
 1582  9DD2     CF E0 D0 C5 CB 			.byte	"相信它对你一定很  ",0
              FC B6 D4 C4 E3 
              D2 BB B6 A8 BA 
              DC 20 20 00 
 1583  00009DE5             			.blkb	1
 1584                     	;
 1585  9DE6     D3 D0 B0 EF D6 			.byte	"有帮助。          ",0
              FA A1 A3 20 20 
  Sun Jan 12 14:21:22 2003                                                                                               Page   37




              20 20 20 20 20 
              20 20 20 00 
 1586  00009DF9             			.blkb	1
 1587                     	;
 1588  9DFA     C9 F1 C3 D8 B5 			.byte	"神秘的门：没有钥匙",0
              C4 C3 C5 A3 BA 
              C3 BB D3 D0 D4 
              BF B3 D7 00 
 1589  00009E0D             			.blkb	1
 1590                     	;
 1591  9E0E     A3 AC B2 BB C4 			.byte	"，不能打开。      ",0
              DC B4 F2 BF AA 
              A1 A3 20 20 20 
              20 20 20 00 
 1592  00009E21             			.blkb	1
 1593                     	;
 1594  9E22     D3 C2 CA BF A3 			.byte	"勇士：你已经得救了",0
              BA C4 E3 D2 D1 
              BE AD B5 C3 BE 
              C8 C1 CB 00 
 1595  00009E35             			.blkb	1
 1596                     	;
 1597  9E36     A1 A3 20 20 20 			.byte	"。                ",0
              20 20 20 20 20 
              20 20 20 20 20 
              20 20 20 00 
 1598  00009E49             			.blkb	1
 1599                     	;
 1600  9E4A     BD DC BF CB A3 			.byte	"杰克：啊，那真是太",0
              BA B0 A1 A3 AC 
              C4 C7 D5 E6 CA 
              C7 CC AB 00 
 1601  00009E5D             			.blkb	1
 1602                     	;
 1603  9E5E     BA C3 C1 CB A3 			.byte	"好了，我又可以在这",0
              AC CE D2 D3 D6 
              BF C9 D2 D4 D4 
              DA D5 E2 00 
 1604  00009E71             			.blkb	1
 1605                     	;
 1606  9E72     C0 EF C3 E6 D1 			.byte	"里面寻宝了。哦，还",0
              B0 B1 A6 C1 CB 
              A1 A3 C5 B6 A3 
              AC BB B9 00 
 1607  00009E85             			.blkb	1
 1608                     	;
 1609  9E86     C3 BB D3 D0 D7 			.byte	"没有自我介绍，我叫",0
              D4 CE D2 BD E9 
              C9 DC A3 AC CE 
              D2 BD D0 00 
 1610  00009E99             			.blkb	1
 1611                     	;
 1612  9E9A     BD DC BF CB A3 			.byte	"杰克，是这附近有  ",0
              AC CA C7 D5 E2 
              B8 BD BD FC D3 
              D0 20 20 00 
 1613  00009EAD             			.blkb	1
  Sun Jan 12 14:21:22 2003                                                                                               Page   38




 1614                     	;
 1615  9EAE     C3 FB B5 C4 D1 			.byte	"名的寻宝猎人，什么",0
              B0 B1 A6 C1 D4 
              C8 CB A3 AC CA 
              B2 C3 B4 00 
 1616  00009EC1             			.blkb	1
 1617                     	;
 1618  9EC2     BD F0 D2 F8 B2 			.byte	"金银财宝我样样都得",0
              C6 B1 A6 CE D2 
              D1 F9 D1 F9 B6 
              BC B5 C3 00 
 1619  00009ED5             			.blkb	1
 1620                     	;
 1621  9ED6     B5 BD B9 FD A1 			.byte	"到过。不过这次运气",0
              A3 B2 BB B9 FD 
              D5 E2 B4 CE D4 
              CB C6 F8 00 
 1622  00009EE9             			.blkb	1
 1623                     	;
 1624  9EEA     BF C9 B2 BB CA 			.byte	"可不是太好，刚进来",0
              C7 CC AB BA C3 
              A3 AC B8 D5 BD 
              F8 C0 B4 00 
 1625  00009EFD             			.blkb	1
 1626                     	;
 1627  9EFE     BE CD B1 BB D7 			.byte	"就被抓了，现在你  ",0
              A5 C1 CB A3 AC 
              CF D6 D4 DA C4 
              E3 20 20 00 
 1628  00009F11             			.blkb	1
 1629                     	;
 1630  9F12     B0 EF CE D2 B4 			.byte	"帮我打开了门，那我",0
              F2 BF AA C1 CB 
              C3 C5 A3 AC C4 
              C7 CE D2 00 
 1631  00009F25             			.blkb	1
 1632                     	;
 1633  9F26     BE CD B0 EF C4 			.byte	"就帮你做一件事吧。",0
              E3 D7 F6 D2 BB 
              BC FE CA C2 B0 
              C9 A1 A3 00 
 1634  00009F39             			.blkb	1
 1635                     	;
 1636  9F3A     D3 C2 CA BF A3 			.byte	"勇士：快走吧，外面",0
              BA BF EC D7 DF 
              B0 C9 A3 AC CD 
              E2 C3 E6 00 
 1637  00009F4D             			.blkb	1
 1638                     	;
 1639  9F4E     BB B9 D3 D0 BA 			.byte	"还有很多的怪物，我",0
              DC B6 E0 B5 C4 
              B9 D6 CE EF A3 
              AC CE D2 00 
 1640  00009F61             			.blkb	1
 1641                     	;
 1642  9F62     BF C9 C4 DC B9 			.byte	"可能顾不上你。    ",0
              CB B2 BB C9 CF 
  Sun Jan 12 14:21:22 2003                                                                                               Page   39




              C4 E3 A1 A3 20 
              20 20 20 00 
 1643  00009F75             			.blkb	1
 1644                     	;
 1645  9F76     BD DC BF CB A3 			.byte	"杰克；不，不，不会",0
              BB B2 BB A3 AC 
              B2 BB A3 AC B2 
              BB BB E1 00 
 1646  00009F89             			.blkb	1
 1647                     	;
 1648  9F8A     D3 D0 CA C2 B5 			.byte	"有事的。快说吧，叫",0
              C4 A1 A3 BF EC 
              CB B5 B0 C9 A3 
              AC BD D0 00 
 1649  00009F9D             			.blkb	1
 1650                     	;
 1651  9F9E     CE D2 D7 F6 CA 			.byte	"我做什么？        ",0
              B2 C3 B4 A3 BF 
              20 20 20 20 20 
              20 20 20 00 
 1652  00009FB1             			.blkb	1
 1653                     	;
 1654  9FB2     D3 C2 CA BF A3 			.byte	"勇士：你会开门吗？",0
              BA C4 E3 BB E1 
              BF AA C3 C5 C2 
              F0 A3 BF 00 
 1655  00009FC5             			.blkb	1
 1656                     	;
 1657  9FC6     BD DC BF CB A3 			.byte	"杰克：那当然。    ",0
              BA C4 C7 B5 B1 
              C8 BB A1 A3 20 
              20 20 20 00 
 1658  00009FD9             			.blkb	1
 1659                     	;
 1660  9FDA     D3 C2 CA BF A3 			.byte	"勇士：那就请你帮我",0
              BA C4 C7 BE CD 
              C7 EB C4 E3 B0 
              EF CE D2 00 
 1661  00009FED             			.blkb	1
 1662                     	;
 1663  9FEE     B4 F2 BF AA B5 			.byte	"打开第二层的门吧。",0
              DA B6 FE B2 E3 
              B5 C4 C3 C5 B0 
              C9 A1 A3 00 
 1664  0000A001             			.blkb	1
 1665                     	;
 1666  A002     BD DC BF CB A3 			.byte	"杰克：那个简单，不",0
              BA C4 C7 B8 F6 
              BC F2 B5 A5 A3 
              AC B2 BB 00 
 1667  0000A015             			.blkb	1
 1668                     	;
 1669  A016     B9 FD A3 AC C8 			.byte	"过，如果你能帮我找",0
              E7 B9 FB C4 E3 
              C4 DC B0 EF CE 
              D2 D5 D2 00 
 1670  0000A029             			.blkb	1
  Sun Jan 12 14:21:22 2003                                                                                               Page   40




 1671                     	;
 1672  A02A     B5 BD D2 BB B0 			.byte	"到一把嵌了红宝石的",0
              D1 C7 B6 C1 CB 
              BA EC B1 A6 CA 
              AF B5 C4 00 
 1673  0000A03D             			.blkb	1
 1674                     	;
 1675  A03E     CC FA C0 C6 CD 			.byte	"铁榔头的话，我还帮",0
              B7 B5 C4 BB B0 
              A3 AC CE D2 BB 
              B9 B0 EF 00 
 1676  0000A051             			.blkb	1
 1677                     	;
 1678  A052     C4 E3 B4 F2 CD 			.byte	"你打通第十八层的  ",0
              A8 B5 DA CA AE 
              B0 CB B2 E3 B5 
              C4 20 20 00 
 1679  0000A065             			.blkb	1
 1680                     	;
 1681  A066     C2 B7 A1 A3 20 			.byte	"路。              ",0
              20 20 20 20 20 
              20 20 20 20 20 
              20 20 20 00 
 1682  0000A079             			.blkb	1
 1683                     	;
 1684  A07A     D3 C2 CA BF A3 			.byte	"勇士：嵌了红宝石的",0
              BA C7 B6 C1 CB 
              BA EC B1 A6 CA 
              AF B5 C4 00 
 1685  0000A08D             			.blkb	1
 1686                     	;
 1687  A08E     CC FA C0 C6 CD 			.byte	"铁榔头？好吧，我帮",0
              B7 A3 BF BA C3 
              B0 C9 A3 AC CE 
              D2 B0 EF 00 
 1688  0000A0A1             			.blkb	1
 1689                     	;
 1690  A0A2     C4 E3 D5 D2 D5 			.byte	"你找找。          ",0
              D2 A1 A3 20 20 
              20 20 20 20 20 
              20 20 20 00 
 1691  0000A0B5             			.blkb	1
 1692                     	;
 1693  A0B6     BD DC BF CB A3 			.byte	"杰克：你找到嵌了红",0
              BA C4 E3 D5 D2 
              B5 BD C7 B6 C1 
              CB BA EC 00 
 1694  0000A0C9             			.blkb	1
 1695                     	;
 1696  A0CA     B1 A6 CA AF B5 			.byte	"宝石的铁榔头了吗？",0
              C4 CC FA C0 C6 
              CD B7 C1 CB C2 
              F0 A3 BF 00 
 1697  0000A0DD             			.blkb	1
 1698                     	;
 1699  A0DE     D3 C2 CA BF A3 			.byte	"勇士：还，还没有找",0
              BA BB B9 A3 AC 
  Sun Jan 12 14:21:22 2003                                                                                               Page   41




              BB B9 C3 BB D3 
              D0 D5 D2 00 
 1700  0000A0F1             			.blkb	1
 1701                     	;
 1702  A0F2     B5 BD A1 A3 20 			.byte	"到。              ",0
              20 20 20 20 20 
              20 20 20 20 20 
              20 20 20 00 
 1703  0000A105             			.blkb	1
 1704                     	;
 1705  A106     D3 C2 CA BF A3 			.byte	"勇士：哈，快看，我",0
              BA B9 FE A3 AC 
              BF EC BF B4 A3 
              AC CE D2 00 
 1706  0000A119             			.blkb	1
 1707                     	;
 1708  A11A     D5 D2 B5 BD C1 			.byte	"找到了什么。      ",0
              CB CA B2 C3 B4 
              A1 A3 20 20 20 
              20 20 20 00 
 1709  0000A12D             			.blkb	1
 1710                     	;
 1711  A12E     BD DC BF CB A3 			.byte	"杰克：太好了，这东",0
              BA CC AB BA C3 
              C1 CB A3 AC D5 
              E2 B6 AB 00 
 1712  0000A141             			.blkb	1
 1713                     	;
 1714  A142     CE F7 B9 FB C8 			.byte	"西果然是在这里。好",0
              BB CA C7 D4 DA 
              D5 E2 C0 EF A1 
              A3 BA C3 00 
 1715  0000A155             			.blkb	1
 1716                     	;
 1717  A156     B0 C9 A3 AC CE 			.byte	"吧，我这就去帮你修",0
              D2 D5 E2 BE CD 
              C8 A5 B0 EF C4 
              E3 D0 DE 00 
 1718  0000A169             			.blkb	1
 1719                     	;
 1720  A16A     BA C3 B5 DA CA 			.byte	"好第十八层的路面。",0
              AE B0 CB B2 E3 
              B5 C4 C2 B7 C3 
              E6 A1 A3 00 
 1721  0000A17D             			.blkb	1
 1722                     	;
 1723  A17E     C9 F1 C3 D8 C0 			.byte	"神秘老人：你好，勇",0
              CF C8 CB A3 BA 
              C4 E3 BA C3 A3 
              AC D3 C2 00 
 1724  0000A191             			.blkb	1
 1725                     	;
 1726  A192     B8 D2 B5 C4 BA 			.byte	"敢的孩子，你终于来",0
              A2 D7 D3 A3 AC 
              C4 E3 D6 D5 D3 
              DA C0 B4 00 
 1727  0000A1A5             			.blkb	1
  Sun Jan 12 14:21:22 2003                                                                                               Page   42




 1728                     	;
 1729  A1A6     B5 BD D5 E2 C0 			.byte	"到这里了。我将给你",0
              EF C1 CB A1 A3 
              CE D2 BD AB B8 
              F8 C4 E3 00 
 1730  0000A1B9             			.blkb	1
 1731                     	;
 1732  A1BA     D2 BB B8 F6 B7 			.byte	"一个非常好的宝物，",0
              C7 B3 A3 BA C3 
              B5 C4 B1 A6 CE 
              EF A3 AC 00 
 1733  0000A1CD             			.blkb	1
 1734                     	;
 1735  A1CE     CB FC BF C9 D2 			.byte	"它可以使你的攻击  ",0
              D4 CA B9 C4 E3 
              B5 C4 B9 A5 BB 
              F7 20 20 00 
 1736  0000A1E1             			.blkb	1
 1737                     	;
 1738  A1E2     CC E1 C9 FD BA 			.byte	"提升很多，但这必须",0
              DC B6 E0 A3 AC 
              B5 AB D5 E2 B1 
              D8 D0 EB 00 
 1739  0000A1F5             			.blkb	1
 1740                     	;
 1741  A1F6     D2 AA D3 C3 C4 			.byte	"要用你的500 点的经",0
              E3 B5 C4 35 30 
              30 20 B5 E3 B5 
              C4 BE AD 00 
 1742  0000A209             			.blkb	1
 1743                     	;
 1744  A20A     D1 E9 D6 B5 C0 			.byte	"验值来进行交换，考",0
              B4 BD F8 D0 D0 
              BD BB BB BB A3 
              AC BF BC 00 
 1745  0000A21D             			.blkb	1
 1746                     	;
 1747  A21E     C2 C7 D2 BB CF 			.byte	"虑一下子吧。      ",0
              C2 D7 D3 B0 C9 
              A1 A3 20 20 20 
              20 20 20 00 
 1748  0000A231             			.blkb	1
 1749                     	;
 1750  A232     D3 C2 CA BF A3 			.byte	"勇士：好吧，那就将",0
              BA BA C3 B0 C9 
              A3 AC C4 C7 BE 
              CD BD AB 00 
 1751  0000A245             			.blkb	1
 1752                     	;
 1753  A246     C4 C7 B0 D1 BD 			.byte	"那把剑给我吧。    ",0
              A3 B8 F8 CE D2 
              B0 C9 A1 A3 20 
              20 20 20 00 
 1754  0000A259             			.blkb	1
 1755                     	;
 1756  A25A     C9 F1 C3 D8 C0 			.byte	"神秘老人：那好吧，",0
              CF C8 CB A3 BA 
  Sun Jan 12 14:21:22 2003                                                                                               Page   43




              C4 C7 BA C3 B0 
              C9 A3 AC 00 
 1757  0000A26D             			.blkb	1
 1758                     	;
 1759  A26E     D5 E2 B0 D1 BD 			.byte	"这把剑就属于你的了",0
              A3 BE CD CA F4 
              D3 DA C4 E3 B5 
              C4 C1 CB 00 
 1760  0000A281             			.blkb	1
 1761                     	;
 1762  A282     A1 A3 20 20 20 			.byte	"。                ",0
              20 20 20 20 20 
              20 20 20 20 20 
              20 20 20 00 
 1763  0000A295             			.blkb	1
 1764                     	;
 1765  A296     C9 CC C8 CB A3 			.byte	"商人：啊哈，欢迎你",0
              BA B0 A1 B9 FE 
              A3 AC BB B6 D3 
              AD C4 E3 00 
 1766  0000A2A9             			.blkb	1
 1767                     	;
 1768  A2AA     B5 C4 B5 BD C0 			.byte	"的到来，我这里有一",0
              B4 A3 AC CE D2 
              D5 E2 C0 EF D3 
              D0 D2 BB 00 
 1769  0000A2BD             			.blkb	1
 1770                     	;
 1771  A2BE     BC FE B6 D4 C4 			.byte	"件对你来说非常好的",0
              E3 C0 B4 CB B5 
              B7 C7 B3 A3 BA 
              C3 B5 C4 00 
 1772  0000A2D1             			.blkb	1
 1773                     	;
 1774  A2D2     B1 A6 CE EF A3 			.byte	"宝物，只要你出的起",0
              AC D6 BB D2 AA 
              C4 E3 B3 F6 B5 
              C4 C6 F0 00 
 1775  0000A2E5             			.blkb	1
 1776                     	;
 1777  A2E6     BC DB C7 AE A3 			.byte	"价钱，我可以就卖  ",0
              AC CE D2 BF C9 
              D2 D4 BE CD C2 
              F4 20 20 00 
 1778  0000A2F9             			.blkb	1
 1779                     	;
 1780  A2FA     B8 F8 C4 E3 A1 			.byte	"给你。            ",0
              A3 20 20 20 20 
              20 20 20 20 20 
              20 20 20 00 
 1781  0000A30D             			.blkb	1
 1782                     	;
 1783  A30E     D3 C2 CA BF A3 			.byte	"勇士：什么宝物？要",0
              BA CA B2 C3 B4 
              B1 A6 CE EF A3 
              BF D2 AA 00 
 1784  0000A321             			.blkb	1
  Sun Jan 12 14:21:22 2003                                                                                               Page   44




 1785                     	;
 1786  A322     B6 E0 C9 D9 C7 			.byte	"多少钱？          ",0
              AE A3 BF 20 20 
              20 20 20 20 20 
              20 20 20 00 
 1787  0000A335             			.blkb	1
 1788                     	;
 1789  A336     C9 CC C8 CB A3 			.byte	"商人：这是目前在这",0
              BA D5 E2 CA C7 
              C4 BF C7 B0 D4 
              DA D5 E2 00 
 1790  0000A349             			.blkb	1
 1791                     	;
 1792  A34A     C0 EF C2 F2 B5 			.byte	"里买得到最好的盾牌",0
              C3 B5 BD D7 EE 
              BA C3 B5 C4 B6 
              DC C5 C6 00 
 1793  0000A35D             			.blkb	1
 1794                     	;
 1795  A35E     A3 AC B7 C0 D3 			.byte	"，防御可以增加不少",0
              F9 BF C9 D2 D4 
              D4 F6 BC D3 B2 
              BB C9 D9 00 
 1796  0000A371             			.blkb	1
 1797                     	;
 1798  A372     A3 AC C4 E3 D6 			.byte	"，你只要出800 个金",0
              BB D2 AA B3 F6 
              38 30 30 20 B8 
              F6 BD F0 00 
 1799  0000A385             			.blkb	1
 1800                     	;
 1801  A386     B1 D2 BE CD BF 			.byte	"币就可以买下来。  ",0
              C9 D2 D4 C2 F2 
              CF C2 C0 B4 A1 
              A3 20 20 00 
 1802  0000A399             			.blkb	1
 1803                     	;
 1804  A39A     D4 F5 C3 B4 D1 			.byte	"怎么样？          ",0
              F9 A3 BF 20 20 
              20 20 20 20 20 
              20 20 20 00 
 1805  0000A3AD             			.blkb	1
 1806                     	;
 1807  A3AE     C4 E3 D3 D0 38 			.byte	"你有800个金币吗？ ",0
              30 30 B8 F6 BD 
              F0 B1 D2 C2 F0 
              A3 BF 20 00 
 1808  0000A3C1             			.blkb	1
 1809                     	;
 1810  A3C2     D3 C2 CA BF A3 			.byte	"勇士：我有800 个金",0
              BA CE D2 D3 D0 
              38 30 30 20 B8 
              F6 BD F0 00 
 1811  0000A3D5             			.blkb	1
 1812                     	;
 1813  A3D6     B1 D2 A1 A3 20 			.byte	"币。              ",0
              20 20 20 20 20 
  Sun Jan 12 14:21:22 2003                                                                                               Page   45




              20 20 20 20 20 
              20 20 20 00 
 1814  0000A3E9             			.blkb	1
 1815                     	;
 1816  A3EA     C9 CC C8 CB A3 			.byte	"商人：好，成交。  ",0
              BA BA C3 A3 AC 
              B3 C9 BD BB A1 
              A3 20 20 00 
 1817  0000A3FD             			.blkb	1
 1818                     	;
 1819  A3FE     D3 C2 CA BF A3 			.byte	"勇士：这，可是我现",0
              BA D5 E2 A3 AC 
              BF C9 CA C7 CE 
              D2 CF D6 00 
 1820  0000A411             			.blkb	1
 1821                     	;
 1822  A412     D4 DA BB B9 C3 			.byte	"在还没有这么多经验",0
              BB D3 D0 D5 E2 
              C3 B4 B6 E0 BE 
              AD D1 E9 00 
 1823  0000A425             			.blkb	1
 1824                     	;
 1825  A426     D6 B5 A1 A3 20 			.byte	"值。              ",0
              20 20 20 20 20 
              20 20 20 20 20 
              20 20 20 00 
 1826  0000A439             			.blkb	1
 1827                     	;
 1828  A43A     C9 F1 C3 D8 C0 			.byte	"神秘老人：那等你的",0
              CF C8 CB A3 BA 
              C4 C7 B5 C8 C4 
              E3 B5 C4 00 
 1829  0000A44D             			.blkb	1
 1830                     	;
 1831  A44E     BE AD D1 E9 D6 			.byte	"经验值够了而且想要",0
              B5 B9 BB C1 CB 
              B6 F8 C7 D2 CF 
              EB D2 AA 00 
 1832  0000A461             			.blkb	1
 1833                     	;
 1834  A462     B5 C4 CA B1 BA 			.byte	"的时候再来吧。    ",0
              F2 D4 D9 C0 B4 
              B0 C9 A1 A3 20 
              20 20 20 00 
 1835  0000A475             			.blkb	1
 1836                     	;
 1837  A476     D3 C2 CA BF A3 			.byte	"勇士：现在还没有。",0
              BA CF D6 D4 DA 
              BB B9 C3 BB D3 
              D0 A1 A3 00 
 1838  0000A489             			.blkb	1
 1839                     	;
 1840  A48A     20 20 20 20 20 			.byte	"                  ",0
              20 20 20 20 20 
              20 20 20 20 20 
              20 20 20 00 
 1841  0000A49D             			.blkb	1
  Sun Jan 12 14:21:22 2003                                                                                               Page   46




 1842                     	;
 1843  A49E     C9 CC C8 CB A3 			.byte	"商人：那等你有了而",0
              BA C4 C7 B5 C8 
              C4 E3 D3 D0 C1 
              CB B6 F8 00 
 1844  0000A4B1             			.blkb	1
 1845                     	;
 1846  A4B2     C7 D2 CF EB D2 			.byte	"且想要的时候再来找",0
              AA B5 C4 CA B1 
              BA F2 D4 D9 C0 
              B4 D5 D2 00 
 1847  0000A4C5             			.blkb	1
 1848                     	;
 1849  A4C6     CE D2 B0 C9 A1 			.byte	"我吧。            ",0
              A3 20 20 20 20 
              20 20 20 20 20 
              20 20 20 00 
 1850  0000A4D9             			.blkb	1
 1851                     	;
 1852  A4DA     BA EC D2 C2 C4 			.byte	"红衣魔王：停止吧，",0
              A7 CD F5 A3 BA 
              CD A3 D6 B9 B0 
              C9 A3 AC 00 
 1853  0000A4ED             			.blkb	1
 1854                     	;
 1855  A4EE     D3 DE B4 C0 B5 			.byte	"愚蠢的人类。      ",0
              C4 C8 CB C0 E0 
              A1 A3 20 20 20 
              20 20 20 00 
 1856  0000A501             			.blkb	1
 1857                     	;
 1858  A502     D3 C2 CA BF A3 			.byte	"勇士：该停止的是你",0
              BA B8 C3 CD A3 
              D6 B9 B5 C4 CA 
              C7 C4 E3 00 
 1859  0000A515             			.blkb	1
 1860                     	;
 1861  A516     A3 AC C4 A7 CD 			.byte	"，魔王。快说，公主",0
              F5 A1 A3 BF EC 
              CB B5 A3 AC B9 
              AB D6 F7 00 
 1862  0000A529             			.blkb	1
 1863                     	;
 1864  A52A     B9 D8 D4 DA C4 			.byte	"关在哪里？        ",0
              C4 C0 EF A3 BF 
              20 20 20 20 20 
              20 20 20 00 
 1865  0000A53D             			.blkb	1
 1866                     	;
 1867  A53E     BA EC D2 C2 C4 			.byte	"红衣魔王：等你打赢",0
              A7 CD F5 A3 BA 
              B5 C8 C4 E3 B4 
              F2 D3 AE 00 
 1868  0000A551             			.blkb	1
 1869                     	;
 1870  A552     CE D2 D4 D9 CB 			.byte	"我再说吧。        ",0
              B5 B0 C9 A1 A3 
  Sun Jan 12 14:21:22 2003                                                                                               Page   47




              20 20 20 20 20 
              20 20 20 00 
 1871  0000A565             			.blkb	1
 1872                     	;
 1873  A566     D3 C2 CA BF A3 			.byte	"勇士：公主，你得救",0
              BA B9 AB D6 F7 
              A3 AC C4 E3 B5 
              C3 BE C8 00 
 1874  0000A579             			.blkb	1
 1875                     	;
 1876  A57A     C1 CB A1 A3 20 			.byte	"了。              ",0
              20 20 20 20 20 
              20 20 20 20 20 
              20 20 20 00 
 1877  0000A58D             			.blkb	1
 1878                     	;
 1879  A58E     B9 AB D6 F7 A3 			.byte	"公主：啊，你是来救",0
              BA B0 A1 A3 AC 
              C4 E3 CA C7 C0 
              B4 BE C8 00 
 1880  0000A5A1             			.blkb	1
 1881                     	;
 1882  A5A2     CE D2 B5 C4 C2 			.byte	"我的吗？          ",0
              F0 A3 BF 20 20 
              20 20 20 20 20 
              20 20 20 00 
 1883  0000A5B5             			.blkb	1
 1884                     	;
 1885  A5B6     D3 C2 CA BF A3 			.byte	"勇士：是啊，公主，",0
              BA CA C7 B0 A1 
              A3 AC B9 AB D6 
              F7 A3 AC 00 
 1886  0000A5C9             			.blkb	1
 1887                     	;
 1888  A5CA     CE D2 CA C7 B7 			.byte	"我是奉国王的命令来",0
              EE B9 FA CD F5 
              B5 C4 C3 FC C1 
              EE C0 B4 00 
 1889  0000A5DD             			.blkb	1
 1890                     	;
 1891  A5DE     BE C8 C4 E3 B5 			.byte	"救你的，请你快随我",0
              C4 A3 AC C7 EB 
              C4 E3 BF EC CB 
              E6 CE D2 00 
 1892  0000A5F1             			.blkb	1
 1893                     	;
 1894  A5F2     B3 F6 C8 A5 B0 			.byte	"出去吧。          ",0
              C9 A1 A3 20 20 
              20 20 20 20 20 
              20 20 20 00 
 1895  0000A605             			.blkb	1
 1896                     	;
 1897  A606     B9 AB D6 F7 A3 			.byte	"公主：不，我还不想",0
              BA B2 BB A3 AC 
              CE D2 BB B9 B2 
              BB CF EB 00 
 1898  0000A619             			.blkb	1
  Sun Jan 12 14:21:22 2003                                                                                               Page   48




 1899                     	;
 1900  A61A     D7 DF A1 A3 20 			.byte	"走。              ",0
              20 20 20 20 20 
              20 20 20 20 20 
              20 20 20 00 
 1901  0000A62D             			.blkb	1
 1902                     	;
 1903  A62E     D3 C2 CA BF A3 			.byte	"勇士：为什么？这里",0
              BA CE AA CA B2 
              C3 B4 A3 BF D5 
              E2 C0 EF 00 
 1904  0000A641             			.blkb	1
 1905                     	;
 1906  A642     C3 E6 B5 BD B4 			.byte	"面到处都是恶魔。  ",0
              A6 B6 BC CA C7 
              B6 F1 C4 A7 A1 
              A3 20 20 00 
 1907  0000A655             			.blkb	1
 1908                     	;
 1909  A656     B9 AB D6 F7 A3 			.byte	"公主：正是因为这里",0
              BA D5 FD CA C7 
              D2 F2 CE AA D5 
              E2 C0 EF 00 
 1910  0000A669             			.blkb	1
 1911                     	;
 1912  A66A     B5 BD B4 A6 B6 			.byte	"到处都是恶魔，所以",0
              BC CA C7 B6 F1 
              C4 A7 A3 AC CB 
              F9 D2 D4 00 
 1913  0000A67D             			.blkb	1
 1914                     	;
 1915  A67E     B2 C5 B2 BB BF 			.byte	"才不可以就这样出去",0
              C9 D2 D4 BE CD 
              D5 E2 D1 F9 B3 
              F6 C8 A5 00 
 1916  0000A691             			.blkb	1
 1917                     	;
 1918  A692     A3 AC CE D2 D2 			.byte	"，我要看着那个大恶",0
              AA BF B4 D7 C5 
              C4 C7 B8 F6 B4 
              F3 B6 F1 00 
 1919  0000A6A5             			.blkb	1
 1920                     	;
 1921  A6A6     C4 A7 B1 BB C9 			.byte	"魔被杀死。勇士，  ",0
              B1 CB C0 A1 A3 
              D3 C2 CA BF A3 
              AC 20 20 00 
 1922  0000A6B9             			.blkb	1
 1923                     	;
 1924  A6BA     C8 E7 B9 FB C4 			.byte	"如果你能够将那个大",0
              E3 C4 DC B9 BB 
              BD AB C4 C7 B8 
              F6 B4 F3 00 
 1925  0000A6CD             			.blkb	1
 1926                     	;
 1927  A6CE     B6 F1 C4 A7 C9 			.byte	"恶魔杀死，我就和你",0
              B1 CB C0 A3 AC 
  Sun Jan 12 14:21:22 2003                                                                                               Page   49




              CE D2 BE CD BA 
              CD C4 E3 00 
 1928  0000A6E1             			.blkb	1
 1929                     	;
 1930  A6E2     D2 BB C6 F0 B3 			.byte	"一起出去。        ",0
              F6 C8 A5 A1 A3 
              20 20 20 20 20 
              20 20 20 00 
 1931  0000A6F5             			.blkb	1
 1932                     	;
 1933  A6F6     D3 C2 CA BF A3 			.byte	"勇士：大恶魔？我已",0
              BA B4 F3 B6 F1 
              C4 A7 A3 BF CE 
              D2 D2 D1 00 
 1934  0000A709             			.blkb	1
 1935                     	;
 1936  A70A     BE AD C9 B1 CB 			.byte	"经杀死了一个魔王。",0
              C0 C1 CB D2 BB 
              B8 F6 C4 A7 CD 
              F5 A1 A3 00 
 1937  0000A71D             			.blkb	1
 1938                     	;
 1939  A71E     20 20 20 20 20 			.byte	"                  ",0
              20 20 20 20 20 
              20 20 20 20 20 
              20 20 20 00 
 1940  0000A731             			.blkb	1
 1941                     	;
 1942  A732     B9 AB D6 F7 A3 			.byte	"公主：大恶魔在这座",0
              BA B4 F3 B6 F1 
              C4 A7 D4 DA D5 
              E2 D7 F9 00 
 1943  0000A745             			.blkb	1
 1944                     	;
 1945  A746     CB FE B5 C4 D7 			.byte	"塔的最顶层，你杀死",0
              EE B6 A5 B2 E3 
              A3 AC C4 E3 C9 
              B1 CB C0 00 
 1946  0000A759             			.blkb	1
 1947                     	;
 1948  A75A     B5 C4 BF C9 C4 			.byte	"的可能是一个小队长",0
              DC CA C7 D2 BB 
              B8 F6 D0 A1 B6 
              D3 B3 A4 00 
 1949  0000A76D             			.blkb	1
 1950                     	;
 1951  A76E     D6 AE C0 E0 B5 			.byte	"之类的恶魔。      ",0
              C4 B6 F1 C4 A7 
              A1 A3 20 20 20 
              20 20 20 00 
 1952  0000A781             			.blkb	1
 1953                     	;
 1954  A782     D3 C2 CA BF A3 			.byte	"勇士：好，那你等着",0
              BA BA C3 A3 AC 
              C4 C7 C4 E3 B5 
              C8 D7 C5 00 
 1955  0000A795             			.blkb	1
  Sun Jan 12 14:21:22 2003                                                                                               Page   50




 1956                     	;
 1957  A796     A3 AC B5 C8 CE 			.byte	"，等我杀了那个大恶",0
              D2 C9 B1 C1 CB 
              C4 C7 B8 F6 B4 
              F3 B6 F1 00 
 1958  0000A7A9             			.blkb	1
 1959                     	;
 1960  A7AA     C4 A7 D4 D9 C0 			.byte	"魔再来这里找你。  ",0
              B4 D5 E2 C0 EF 
              D5 D2 C4 E3 A1 
              A3 20 20 00 
 1961  0000A7BD             			.blkb	1
 1962                     	;
 1963  A7BE     B9 AB D6 F7 A3 			.byte	"公主：大恶魔比你刚",0
              BA B4 F3 B6 F1 
              C4 A7 B1 C8 C4 
              E3 B8 D5 00 
 1964  0000A7D1             			.blkb	1
 1965                     	;
 1966  A7D2     B2 C5 C9 B1 CB 			.byte	"才杀死的那个厉害多",0
              C0 B5 C4 C4 C7 
              B8 F6 C0 F7 BA 
              A6 B6 E0 00 
 1967  0000A7E5             			.blkb	1
 1968                     	;
 1969  A7E6     C1 CB A3 AC B6 			.byte	"了，而且它还会变身",0
              F8 C7 D2 CB FC 
              BB B9 BB E1 B1 
              E4 C9 ED 00 
 1970  0000A7F9             			.blkb	1
 1971                     	;
 1972  A7FA     A3 AC B1 E4 C9 			.byte	"，变身后后的魔王它",0
              ED BA F3 BA F3 
              B5 C4 C4 A7 CD 
              F5 CB FC 00 
 1973  0000A80D             			.blkb	1
 1974                     	;
 1975  A80E     B5 C4 B9 A5 BB 			.byte	"的攻击力和防御力  ",0
              F7 C1 A6 BA CD 
              B7 C0 D3 F9 C1 
              A6 20 20 00 
 1976  0000A821             			.blkb	1
 1977                     	;
 1978  A822     CC E1 C9 FD D6 			.byte	"提升至少一半以上，",0
              C1 C9 D9 D2 BB 
              B0 EB D2 D4 C9 
              CF A3 AC 00 
 1979  0000A835             			.blkb	1
 1980                     	;
 1981  A836     C4 E3 D2 AA D0 			.byte	"你要小心，请一定要",0
              A1 D0 C4 A3 AC 
              C7 EB D2 BB B6 
              A8 D2 AA 00 
 1982  0000A849             			.blkb	1
 1983                     	;
 1984  A84A     C9 B1 CB C0 B4 			.byte	"杀死大魔王。      ",0
              F3 C4 A7 CD F5 
  Sun Jan 12 14:21:22 2003                                                                                               Page   51




              A1 A3 20 20 20 
              20 20 20 00 
 1985  0000A85D             			.blkb	1
 1986                     	;
 1987  A85E     B9 AB D6 F7 A3 			.byte	"公主：你杀死大魔王",0
              BA C4 E3 C9 B1 
              CB C0 B4 F3 C4 
              A7 CD F5 00 
 1988  0000A871             			.blkb	1
 1989                     	;
 1990  A872     C1 CB C2 F0 A3 			.byte	"了吗？            ",0
              BF 20 20 20 20 
              20 20 20 20 20 
              20 20 20 00 
 1991  0000A885             			.blkb	1
 1992                     	;
 1993  A886     D3 C2 CA BF A3 			.byte	"勇士：还，还没有杀",0
              BA BB B9 A3 AC 
              BB B9 C3 BB D3 
              D0 C9 B1 00 
 1994  0000A899             			.blkb	1
 1995                     	;
 1996  A89A     CB C0 A1 A3 20 			.byte	"死。              ",0
              20 20 20 20 20 
              20 20 20 20 20 
              20 20 20 00 
 1997  0000A8AD             			.blkb	1
 1998                     	;
 1999  A8AE     D3 C2 CA BF A3 			.byte	"勇士：大魔王，你的",0
              BA B4 F3 C4 A7 
              CD F5 A3 AC C4 
              E3 B5 C4 00 
 2000  0000A8C1             			.blkb	1
 2001                     	;
 2002  A8C2     CB C0 C6 DA B5 			.byte	"死期到了。        ",0
              BD C1 CB A1 A3 
              20 20 20 20 20 
              20 20 20 00 
 2003  0000A8D5             			.blkb	1
 2004                     	;
 2005  A8D6     DA A4 C1 E9 C4 			.byte	"冥灵魔王：哈哈哈，",0
              A7 CD F5 A3 BA 
              B9 FE B9 FE B9 
              FE A3 AC 00 
 2006  0000A8E9             			.blkb	1
 2007                     	;
 2008  A8EA     C4 E3 D2 B2 D5 			.byte	"你也真是有意思，被",0
              E6 CA C7 D3 D0 
              D2 E2 CB BC A3 
              AC B1 BB 00 
 2009  0000A8FD             			.blkb	1
 2010                     	;
 2011  A8FE     D2 D4 CE AA CF 			.byte	"以为仙女给了你力量",0
              C9 C5 AE B8 F8 
              C1 CB C4 E3 C1 
              A6 C1 BF 00 
 2012  0000A911             			.blkb	1
  Sun Jan 12 14:21:22 2003                                                                                               Page   52




 2013                     	;
 2014  A912     BE CD BF C9 D2 			.byte	"就可以打败我，想打",0
              D4 B4 F2 B0 DC 
              CE D2 A3 AC CF 
              EB B4 F2 00 
 2015  0000A925             			.blkb	1
 2016                     	;
 2017  A926     B0 DC CE D2 C4 			.byte	"败我你还早着呢。  ",0
              E3 BB B9 D4 E7 
              D7 C5 C4 D8 A1 
              A3 20 20 00 
 2018  0000A939             			.blkb	1
 2019                     	;
 2020  A93A     D3 C2 CA BF A3 			.byte	"勇士：废话少说，去",0
              BA B7 CF BB B0 
              C9 D9 CB B5 A3 
              AC C8 A5 00 
 2021  0000A94D             			.blkb	1
 2022                     	;
 2023  A94E     CB C0 B0 C9 A1 			.byte	"死吧。            ",0
              A3 20 20 20 20 
              20 20 20 20 20 
              20 20 20 00 
 2024  0000A961             			.blkb	1
 2025                     	;
 2026  A962     DA A4 C1 E9 C4 			.byte	"冥灵魔王：看不出你",0
              A7 CD F5 A3 BA 
              BF B4 B2 BB B3 
              F6 C4 E3 00 
 2027  0000A975             			.blkb	1
 2028                     	;
 2029  A976     BB B9 D3 D0 C1 			.byte	"还有两下子，有本事",0
              BD CF C2 D7 D3 
              A3 AC D3 D0 B1 
              BE CA C2 00 
 2030  0000A989             			.blkb	1
 2031                     	;
 2032  A98A     B5 C4 BB B0 BE 			.byte	"的话就来第二十一层",0
              CD C0 B4 B5 DA 
              B6 FE CA AE D2 
              BB B2 E3 00 
 2033  0000A99D             			.blkb	1
 2034                     	;
 2035  A99E     A1 A3 D4 DA C4 			.byte	"。在那里，你就可以",0
              C7 C0 EF A3 AC 
              C4 E3 BE CD BF 
              C9 D2 D4 00 
 2036  0000A9B1             			.blkb	1
 2037                     	;
 2038  A9B2     BC FB B5 BD CE 			.byte	"见到我真正的实    ",0
              D2 D5 E6 D5 FD 
              B5 C4 CA B5 20 
              20 20 20 00 
 2039  0000A9C5             			.blkb	1
 2040                     	;
 2041  A9C6     C1 A6 C1 CB A1 			.byte	"力了。你要救的公主",0
              A3 C4 E3 D2 AA 
  Sun Jan 12 14:21:22 2003                                                                                               Page   53




              BE C8 B5 C4 B9 
              AB D6 F7 00 
 2042  0000A9D9             			.blkb	1
 2043                     	;
 2044  A9DA     BB E1 D4 DA C4 			.byte	"会在那里等你的。  ",0
              C7 C0 EF B5 C8 
              C4 E3 B5 C4 A1 
              A3 20 20 00 
 2045  0000A9ED             			.blkb	1
 2046                     	;
 2047  A9EE     B9 AB D6 F7 28 			.byte	"公主(远方传来)：啊",0
              D4 B6 B7 BD B4 
              AB C0 B4 29 A3 
              BA B0 A1 00 
 2048  0000AA01             			.blkb	1
 2049                     	;
 2050  AA02     A3 A1 BE C8 C3 			.byte	"！救命啊。        ",0
              FC B0 A1 A1 A3 
              20 20 20 20 20 
              20 20 20 00 
 2051  0000AA15             			.blkb	1
 2052                     	;
 2053  AA16     B9 AB D6 F7 A3 			.byte	"公主：你终于来了，",0
              BA C4 E3 D6 D5 
              D3 DA C0 B4 C1 
              CB A3 AC 00 
 2054  0000AA29             			.blkb	1
 2055                     	;
 2056  AA2A     BF EC C9 B1 CB 			.byte	"快杀死大恶魔了。  ",0
              C0 B4 F3 B6 F1 
              C4 A7 C1 CB A1 
              A3 20 20 00 
 2057  0000AA3D             			.blkb	1
 2058                     	;
 2059  AA3E     D3 C2 CA BF A3 			.byte	"勇士：好，公主，你",0
              BA BA C3 A3 AC 
              B9 AB D6 F7 A3 
              AC C4 E3 00 
 2060  0000AA51             			.blkb	1
 2061                     	;
 2062  AA52     B5 C8 D7 C5 A1 			.byte	"等着。            ",0
              A3 20 20 20 20 
              20 20 20 20 20 
              20 20 20 00 
 2063  0000AA65             			.blkb	1
 2064                     	;
 2065  AA66     D3 C2 CA BF A3 			.byte	"勇士：杰克，你可以",0
              BA BD DC BF CB 
              A3 AC C4 E3 BF 
              C9 D2 D4 00 
 2066  0000AA79             			.blkb	1
 2067                     	;
 2068  AA7A     B0 EF CE D2 B4 			.byte	"帮我打开旁那神秘的",0
              F2 BF AA C5 D4 
              C4 C7 C9 F1 C3 
              D8 B5 C4 00 
 2069  0000AA8D             			.blkb	1
  Sun Jan 12 14:21:22 2003                                                                                               Page   54




 2070                     	;
 2071  AA8E     C3 C5 C2 F0 A3 			.byte	"门吗？            ",0
              BF 20 20 20 20 
              20 20 20 20 20 
              20 20 20 00 
 2072  0000AAA1             			.blkb	1
 2073                     	;
 2074  AAA2     BD DC BF CB A3 			.byte	"杰克：如果你可以让",0
              BA C8 E7 B9 FB 
              C4 E3 BF C9 D2 
              D4 C8 C3 00 
 2075  0000AAB5             			.blkb	1
 2076                     	;
 2077  AAB6     C5 D4 B1 DF B5 			.byte	"旁边的恶魔解开我身",0
              C4 B6 F1 C4 A7 
              BD E2 BF AA CE 
              D2 C9 ED 00 
 2078  0000AAC9             			.blkb	1
 2079                     	;
 2080  AACA     C9 CF B5 C4 B6 			.byte	"上的定身咒语，我就",0
              A8 C9 ED D6 E4 
              D3 EF A3 AC CE 
              D2 BE CD 00 
 2081  0000AADD             			.blkb	1
 2082                     	;
 2083  AADE     BF C9 D2 D4 B0 			.byte	"可以帮你打开门。  ",0
              EF C4 E3 B4 F2 
              BF AA C3 C5 A1 
              A3 20 20 00 
 2084  0000AAF1             			.blkb	1
 2085                     	;
 2086  AAF2     D3 C2 CA BF A3 			.byte	"勇士：好，你等一下",0
              BA BA C3 A3 AC 
              C4 E3 B5 C8 D2 
              BB CF C2 00 
 2087  0000AB05             			.blkb	1
 2088                     	;
 2089  AB06     A1 A3 20 20 20 			.byte	"。                ",0
              20 20 20 20 20 
              20 20 20 20 20 
              20 20 20 00 
 2090  0000AB19             			.blkb	1
 2091                     	;
 2092  AB1A     D3 C2 CA BF A3 			.byte	"勇士：大魔王，我来",0
              BA B4 F3 C4 A7 
              CD F5 A3 AC CE 
              D2 C0 B4 00 
 2093  0000AB2D             			.blkb	1
 2094                     	;
 2095  AB2E     C1 CB A1 A3 20 			.byte	"了。              ",0
              20 20 20 20 20 
              20 20 20 20 20 
              20 20 20 00 
 2096  0000AB41             			.blkb	1
 2097                     	;
 2098  AB42     DA A4 C1 E9 C4 			.byte	"冥灵魔王：好，你能",0
              A7 CD F5 A3 BA 
  Sun Jan 12 14:21:22 2003                                                                                               Page   55




              BA C3 A3 AC C4 
              E3 C4 DC 00 
 2099  0000AB55             			.blkb	1
 2100                     	;
 2101  AB56     C0 B4 B5 BD CE 			.byte	"来到我这里，还真是",0
              D2 D5 E2 C0 EF 
              A3 AC BB B9 D5 
              E6 CA C7 00 
 2102  0000AB69             			.blkb	1
 2103                     	;
 2104  AB6A     B2 BB BC F2 B5 			.byte	"不简单。          ",0
              A5 A1 A3 20 20 
              20 20 20 20 20 
              20 20 20 00 
 2105  0000AB7D             			.blkb	1
 2106                     	;
 2107  AB7E     D3 C2 CA BF A3 			.byte	"勇士：哈，要打败你",0
              BA B9 FE A3 AC 
              D2 AA B4 F2 B0 
              DC C4 E3 00 
 2108  0000AB91             			.blkb	1
 2109                     	;
 2110  AB92     B5 C4 CA D6 CF 			.byte	"的手下还不是小菜一",0
              C2 BB B9 B2 BB 
              CA C7 D0 A1 B2 
              CB D2 BB 00 
 2111  0000ABA5             			.blkb	1
 2112                     	;
 2113  ABA6     B5 FA A3 BF 20 			.byte	"碟？              ",0
              20 20 20 20 20 
              20 20 20 20 20 
              20 20 20 00 
 2114  0000ABB9             			.blkb	1
 2115                     	;
 2116  ABBA     DA A4 C1 E9 C4 			.byte	"冥灵魔王：我和那些",0
              A7 CD F5 A3 BA 
              CE D2 BA CD C4 
              C7 D0 A9 00 
 2117  0000ABCD             			.blkb	1
 2118                     	;
 2119  ABCE     BC D2 BB EF B2 			.byte	"家伙不一样。      ",0
              BB D2 BB D1 F9 
              A1 A3 20 20 20 
              20 20 20 00 
 2120  0000ABE1             			.blkb	1
 2121                     	;
 2122  ABE2     D3 C2 CA BF A3 			.byte	"勇士：那杰克是怎么",0
              BA C4 C7 BD DC 
              BF CB CA C7 D4 
              F5 C3 B4 00 
 2123  0000ABF5             			.blkb	1
 2124                     	;
 2125  ABF6     BB D8 CA C2 A3 			.byte	"回事？            ",0
              BF 20 20 20 20 
              20 20 20 20 20 
              20 20 20 00 
 2126  0000AC09             			.blkb	1
  Sun Jan 12 14:21:22 2003                                                                                               Page   56




 2127                     	;
 2128  AC0A     DA A4 C1 E9 C4 			.byte	"冥灵魔王：那是我叫",0
              A7 CD F5 A3 BA 
              C4 C7 CA C7 CE 
              D2 BD D0 00 
 2129  0000AC1D             			.blkb	1
 2130                     	;
 2131  AC1E     C1 E9 B7 A8 CA 			.byte	"灵法师放的定身咒语",0
              A6 B7 C5 B5 C4 
              B6 A8 C9 ED D6 
              E4 D3 EF 00 
 2132  0000AC31             			.blkb	1
 2133                     	;
 2134  AC32     A1 A3 20 20 20 			.byte	"。                ",0
              20 20 20 20 20 
              20 20 20 20 20 
              20 20 20 00 
 2135  0000AC45             			.blkb	1
 2136                     	;
 2137  AC46     D3 C2 CA BF A3 			.byte	"勇士：快叫灵法师解",0
              BA BF EC BD D0 
              C1 E9 B7 A8 CA 
              A6 BD E2 00 
 2138  0000AC59             			.blkb	1
 2139                     	;
 2140  AC5A     BF AA D6 E4 D3 			.byte	"开咒语。          ",0
              EF A1 A3 20 20 
              20 20 20 20 20 
              20 20 20 00 
 2141  0000AC6D             			.blkb	1
 2142                     	;
 2143  AC6E     DA A4 C1 E9 C4 			.byte	"冥灵魔王：很遗憾，",0
              A7 CD F5 A3 BA 
              BA DC D2 C5 BA 
              B6 A3 AC 00 
 2144  0000AC81             			.blkb	1
 2145                     	;
 2146  AC82     C1 BD B8 F6 C1 			.byte	"两个灵法师刚才都被",0
              E9 B7 A8 CA A6 
              B8 D5 B2 C5 B6 
              BC B1 BB 00 
 2147  0000AC95             			.blkb	1
 2148                     	;
 2149  AC96     C4 E3 B4 F2 CB 			.byte	"你打死了。        ",0
              C0 C1 CB A1 A3 
              20 20 20 20 20 
              20 20 20 00 
 2150  0000ACA9             			.blkb	1
 2151                     	;
 2152  ACAA     D3 C2 CA BF A3 			.byte	"勇士：那你亲自解开",0
              BA C4 C7 C4 E3 
              C7 D7 D7 D4 BD 
              E2 BF AA 00 
 2153  0000ACBD             			.blkb	1
 2154                     	;
 2155  ACBE     D6 E4 D3 EF A1 			.byte	"咒语。            ",0
              A3 20 20 20 20 
  Sun Jan 12 14:21:22 2003                                                                                               Page   57




              20 20 20 20 20 
              20 20 20 00 
 2156  0000ACD1             			.blkb	1
 2157                     	;
 2158  ACD2     DA A4 C1 E9 C4 			.byte	"冥灵魔王：打败我之",0
              A7 CD F5 A3 BA 
              B4 F2 B0 DC CE 
              D2 D6 AE 00 
 2159  0000ACE5             			.blkb	1
 2160                     	;
 2161  ACE6     BA F3 D7 D4 B6 			.byte	"后自动解开。      ",0
              AF BD E2 BF AA 
              A1 A3 20 20 20 
              20 20 20 00 
 2162  0000ACF9             			.blkb	1
 2163                     	;
 2164  ACFA     DA A4 C1 E9 C4 			.byte	"冥灵魔王：啊，怎么",0
              A7 CD F5 A3 BA 
              B0 A1 A3 AC D4 
              F5 C3 B4 00 
 2165  0000AD0D             			.blkb	1
 2166                     	;
 2167  AD0E     BF C9 C4 DC A3 			.byte	"可能，我怎么可能会",0
              AC CE D2 D4 F5 
              C3 B4 BF C9 C4 
              DC BB E1 00 
 2168  0000AD21             			.blkb	1
 2169                     	;
 2170  AD22     B1 BB C4 E3 B4 			.byte	"被你打败呢？不，不",0
              F2 B0 DC C4 D8 
              A3 BF B2 BB A3 
              AC B2 BB 00 
 2171  0000AD35             			.blkb	1
 2172                     	;
 2173  AD36     D2 AA D5 E2 D1 			.byte	"要这样。          ",0
              F9 A1 A3 20 20 
              20 20 20 20 20 
              20 20 20 00 
 2174  0000AD49             			.blkb	1
 2175                     	;
 2176  0000AD4A             			.blkb	20
 2177                     	;
 2178                     			.attrib	_GameMTTalkData,536,v,c,u,g,d,c,d,c,02h,014h,00h
 2179                     	;
 2180  AD5E     D5 BD B6 B7 CA 	_GameMTVictory:	.byte	"战斗胜利!得到点经验，金币!",0
              A4 C0 FB 21 B5 
              C3 B5 BD B5 E3 
              BE AD D1 E9 A3 
              AC BD F0 B1 D2 
              21 00 
 2181                     	;const	unsigned char 	GameMTVictory[]="战斗胜利!得到点经验，金币!";
 2182                     	;
 2183                     	;
 2184                     			.attrib	_GameMTVictory,538,v,c,u,g,d,c,d,c,01bh,00h
 2185                     	;
 2186  AD79     44          	_GameMTDi:	.byte	044h
 2187                     	;
  Sun Jan 12 14:21:22 2003                                                                                               Page   58




 2188  AD7A     AA          			.byte	0aah
 2189                     	;
 2190  AD7B     7C          			.byte	07ch
 2191                     	;
 2192  AD7C     14          			.byte	014h
 2193                     	;
 2194  AD7D     78          			.byte	078h
 2195                     	;
 2196  AD7E     50          			.byte	050h
 2197                     	;
 2198  AD7F     7E          			.byte	07eh
 2199                     	;
 2200  AD80     32          			.byte	032h
 2201                     	;
 2202  AD81     D4          			.byte	0d4h
 2203                     	;
 2204                     			.attrib	_GameMTDi,540,v,c,u,g,d,c,d,c,09h,00h
 2205                     	;
 2206  AD82     3E          	_GameMTCeng:	.byte	03eh
 2207                     	;
 2208  AD83     22          			.byte	022h
 2209                     	;
 2210  AD84     3E          			.byte	03eh
 2211                     	;
 2212  AD85     2E          			.byte	02eh
 2213                     	;
 2214  AD86     20          			.byte	020h
 2215                     	;
 2216  AD87     3F          			.byte	03fh
 2217                     	;
 2218  AD88     48          			.byte	048h
 2219                     	;
 2220  AD89     52          			.byte	052h
 2221                     	;
 2222  AD8A     9E          			.byte	09eh
 2223                     	;
 2224                     			.attrib	_GameMTCeng,542,v,c,u,g,d,c,d,c,09h,00h
 2225                     	;
 2226  AD8B     08          	_GameMTLiKai:	.byte	008h
 2227                     	;
 2228  AD8C     01          			.byte	001h
 2229                     	;
 2230  AD8D     FE          			.byte	0feh
 2231                     	;
 2232  AD8E     FF          			.byte	0ffh
 2233                     	;
 2234  AD8F     80          			.byte	080h
 2235                     	;
 2236  AD90     48          			.byte	048h
 2237                     	;
 2238  AD91     5D          			.byte	05dh
 2239                     	;
 2240  AD92     00          			.byte	000h
 2241                     	;
 2242  AD93     48          			.byte	048h
 2243                     	;
 2244  AD94     63          			.byte	063h
  Sun Jan 12 14:21:22 2003                                                                                               Page   59




 2245                     	;
 2246  AD95     00          			.byte	000h
 2247                     	;
 2248  AD96     48          			.byte	048h
 2249                     	;
 2250  AD97     7F          			.byte	07fh
 2251                     	;
 2252  AD98     03          			.byte	003h
 2253                     	;
 2254  AD99     FE          			.byte	0feh
 2255                     	;
 2256  AD9A     FF          			.byte	0ffh
 2257                     	;
 2258  AD9B     80          			.byte	080h
 2259                     	;
 2260  AD9C     48          			.byte	048h
 2261                     	;
 2262  AD9D     94          			.byte	094h
 2263                     	;
 2264  AD9E     80          			.byte	080h
 2265                     	;
 2266  AD9F     88          			.byte	088h
 2267                     	;
 2268  ADA0     BA          			.byte	0bah
 2269                     	;
 2270  ADA1     81          			.byte	081h
 2271                     	;
 2272  ADA2     88          			.byte	088h
 2273                     	;
 2274  ADA3     81          			.byte	081h
 2275                     	;
 2276  ADA4     83          			.byte	083h
 2277                     	;
 2278  ADA5     08          			.byte	008h
 2279                     	;
 2280                     			.attrib	_GameMTLiKai,545,v,c,u,g,d,c,d,c,01bh,00h
 2281                     	;
 2282  ADA6     1C          	_GameMTNum78:	.byte	01ch
 2283                     	;
 2284  ADA7     3E          			.byte	03eh
 2285                     	;
 2286  ADA8     76          			.byte	076h
 2287                     	;
 2288  ADA9     66          			.byte	066h
 2289                     	;
 2290  ADAA     CC          			.byte	0cch
 2291                     	;
 2292  ADAB     DC          			.byte	0dch
 2293                     	;
 2294  ADAC     F8          			.byte	0f8h
 2295                     	;
 2296  ADAD     70          			.byte	070h
 2297                     	;
 2298  ADAE     1C          			.byte	01ch
 2299                     	;
 2300  ADAF     3C          			.byte	03ch
 2301                     	;
  Sun Jan 12 14:21:22 2003                                                                                               Page   60




 2302  ADB0     18          			.byte	018h
 2303                     	;
 2304  ADB1     38          			.byte	038h
 2305                     	;
 2306  ADB2     30          			.byte	030h
 2307                     	;
 2308  ADB3     30          			.byte	030h
 2309                     	;
 2310  ADB4     70          			.byte	070h
 2311                     	;
 2312  ADB5     30          			.byte	030h
 2313                     	;
 2314  ADB6     3E          			.byte	03eh
 2315                     	;
 2316  ADB7     32          			.byte	032h
 2317                     	;
 2318  ADB8     36          			.byte	036h
 2319                     	;
 2320  ADB9     1C          			.byte	01ch
 2321                     	;
 2322  ADBA     38          			.byte	038h
 2323                     	;
 2324  ADBB     60          			.byte	060h
 2325                     	;
 2326  ADBC     FC          			.byte	0fch
 2327                     	;
 2328  ADBD     78          			.byte	078h
 2329                     	;
 2330  ADBE     3E          			.byte	03eh
 2331                     	;
 2332  ADBF     72          			.byte	072h
 2333                     	;
 2334  ADC0     1E          			.byte	01eh
 2335                     	;
 2336  ADC1     3C          			.byte	03ch
 2337                     	;
 2338  ADC2     06          			.byte	006h
 2339                     	;
 2340  ADC3     0E          			.byte	00eh
 2341                     	;
 2342  ADC4     FC          			.byte	0fch
 2343                     	;
 2344  ADC5     70          			.byte	070h
 2345                     	;
 2346  ADC6     0E          			.byte	00eh
 2347                     	;
 2348  ADC7     1E          			.byte	01eh
 2349                     	;
 2350  ADC8     7C          			.byte	07ch
 2351                     	;
 2352  ADC9     DC          			.byte	0dch
 2353                     	;
 2354  ADCA     DE          			.byte	0deh
 2355                     	;
 2356  ADCB     FC          			.byte	0fch
 2357                     	;
 2358  ADCC     30          			.byte	030h
  Sun Jan 12 14:21:22 2003                                                                                               Page   61




 2359                     	;
 2360  ADCD     30          			.byte	030h
 2361                     	;
 2362  ADCE     1E          			.byte	01eh
 2363                     	;
 2364  ADCF     3E          			.byte	03eh
 2365                     	;
 2366  ADD0     30          			.byte	030h
 2367                     	;
 2368  ADD1     7E          			.byte	07eh
 2369                     	;
 2370  ADD2     06          			.byte	006h
 2371                     	;
 2372  ADD3     0E          			.byte	00eh
 2373                     	;
 2374  ADD4     DC          			.byte	0dch
 2375                     	;
 2376  ADD5     F8          			.byte	0f8h
 2377                     	;
 2378  ADD6     0E          			.byte	00eh
 2379                     	;
 2380  ADD7     18          			.byte	018h
 2381                     	;
 2382  ADD8     30          			.byte	030h
 2383                     	;
 2384  ADD9     7C          			.byte	07ch
 2385                     	;
 2386  ADDA     EC          			.byte	0ech
 2387                     	;
 2388  ADDB     CC          			.byte	0cch
 2389                     	;
 2390  ADDC     D8          			.byte	0d8h
 2391                     	;
 2392  ADDD     70          			.byte	070h
 2393                     	;
 2394  ADDE     7E          			.byte	07eh
 2395                     	;
 2396  ADDF     EE          			.byte	0eeh
 2397                     	;
 2398  ADE0     1C          			.byte	01ch
 2399                     	;
 2400  ADE1     38          			.byte	038h
 2401                     	;
 2402  ADE2     70          			.byte	070h
 2403                     	;
 2404  ADE3     60          			.byte	060h
 2405                     	;
 2406  ADE4     E0          			.byte	0e0h
 2407                     	;
 2408  ADE5     E0          			.byte	0e0h
 2409                     	;
 2410  ADE6     3E          			.byte	03eh
 2411                     	;
 2412  ADE7     6C          			.byte	06ch
 2413                     	;
 2414  ADE8     78          			.byte	078h
 2415                     	;
  Sun Jan 12 14:21:22 2003                                                                                               Page   62




 2416  ADE9     38          			.byte	038h
 2417                     	;
 2418  ADEA     78          			.byte	078h
 2419                     	;
 2420  ADEB     78          			.byte	078h
 2421                     	;
 2422  ADEC     D8          			.byte	0d8h
 2423                     	;
 2424  ADED     F0          			.byte	0f0h
 2425                     	;
 2426  ADEE     3E          			.byte	03eh
 2427                     	;
 2428  ADEF     7C          			.byte	07ch
 2429                     	;
 2430  ADF0     EE          			.byte	0eeh
 2431                     	;
 2432  ADF1     DC          			.byte	0dch
 2433                     	;
 2434  ADF2     78          			.byte	078h
 2435                     	;
 2436  ADF3     18          			.byte	018h
 2437                     	;
 2438  ADF4     30          			.byte	030h
 2439                     	;
 2440  ADF5     60          			.byte	060h
 2441                     	;
 2442                     			.attrib	_GameMTNum78,552,v,c,u,g,d,c,d,c,050h,00h
 2443                     	;
 2444  ADF6     E0          	_GameMTNum39:	.byte	0e0h
 2445                     	;
 2446  ADF7     A0          			.byte	0a0h
 2447                     	;
 2448  ADF8     A0          			.byte	0a0h
 2449                     	;
 2450  ADF9     A0          			.byte	0a0h
 2451                     	;
 2452  ADFA     A0          			.byte	0a0h
 2453                     	;
 2454  ADFB     A0          			.byte	0a0h
 2455                     	;
 2456  ADFC     A0          			.byte	0a0h
 2457                     	;
 2458  ADFD     A0          			.byte	0a0h
 2459                     	;
 2460  ADFE     E0          			.byte	0e0h
 2461                     	;
 2462  ADFF     40          			.byte	040h
 2463                     	;
 2464  AE00     40          			.byte	040h
 2465                     	;
 2466  AE01     40          			.byte	040h
 2467                     	;
 2468  AE02     40          			.byte	040h
 2469                     	;
 2470  AE03     40          			.byte	040h
 2471                     	;
 2472  AE04     40          			.byte	040h
  Sun Jan 12 14:21:22 2003                                                                                               Page   63




 2473                     	;
 2474  AE05     40          			.byte	040h
 2475                     	;
 2476  AE06     40          			.byte	040h
 2477                     	;
 2478  AE07     40          			.byte	040h
 2479                     	;
 2480  AE08     E0          			.byte	0e0h
 2481                     	;
 2482  AE09     20          			.byte	020h
 2483                     	;
 2484  AE0A     20          			.byte	020h
 2485                     	;
 2486  AE0B     20          			.byte	020h
 2487                     	;
 2488  AE0C     E0          			.byte	0e0h
 2489                     	;
 2490  AE0D     80          			.byte	080h
 2491                     	;
 2492  AE0E     80          			.byte	080h
 2493                     	;
 2494  AE0F     80          			.byte	080h
 2495                     	;
 2496  AE10     E0          			.byte	0e0h
 2497                     	;
 2498  AE11     E0          			.byte	0e0h
 2499                     	;
 2500  AE12     20          			.byte	020h
 2501                     	;
 2502  AE13     20          			.byte	020h
 2503                     	;
 2504  AE14     20          			.byte	020h
 2505                     	;
 2506  AE15     E0          			.byte	0e0h
 2507                     	;
 2508  AE16     20          			.byte	020h
 2509                     	;
 2510  AE17     20          			.byte	020h
 2511                     	;
 2512  AE18     20          			.byte	020h
 2513                     	;
 2514  AE19     E0          			.byte	0e0h
 2515                     	;
 2516  AE1A     A0          			.byte	0a0h
 2517                     	;
 2518  AE1B     A0          			.byte	0a0h
 2519                     	;
 2520  AE1C     A0          			.byte	0a0h
 2521                     	;
 2522  AE1D     A0          			.byte	0a0h
 2523                     	;
 2524  AE1E     E0          			.byte	0e0h
 2525                     	;
 2526  AE1F     20          			.byte	020h
 2527                     	;
 2528  AE20     20          			.byte	020h
 2529                     	;
  Sun Jan 12 14:21:22 2003                                                                                               Page   64




 2530  AE21     20          			.byte	020h
 2531                     	;
 2532  AE22     20          			.byte	020h
 2533                     	;
 2534  AE23     E0          			.byte	0e0h
 2535                     	;
 2536  AE24     80          			.byte	080h
 2537                     	;
 2538  AE25     80          			.byte	080h
 2539                     	;
 2540  AE26     80          			.byte	080h
 2541                     	;
 2542  AE27     E0          			.byte	0e0h
 2543                     	;
 2544  AE28     20          			.byte	020h
 2545                     	;
 2546  AE29     20          			.byte	020h
 2547                     	;
 2548  AE2A     20          			.byte	020h
 2549                     	;
 2550  AE2B     E0          			.byte	0e0h
 2551                     	;
 2552  AE2C     E0          			.byte	0e0h
 2553                     	;
 2554  AE2D     80          			.byte	080h
 2555                     	;
 2556  AE2E     80          			.byte	080h
 2557                     	;
 2558  AE2F     80          			.byte	080h
 2559                     	;
 2560  AE30     E0          			.byte	0e0h
 2561                     	;
 2562  AE31     A0          			.byte	0a0h
 2563                     	;
 2564  AE32     A0          			.byte	0a0h
 2565                     	;
 2566  AE33     A0          			.byte	0a0h
 2567                     	;
 2568  AE34     E0          			.byte	0e0h
 2569                     	;
 2570  AE35     E0          			.byte	0e0h
 2571                     	;
 2572  AE36     20          			.byte	020h
 2573                     	;
 2574  AE37     20          			.byte	020h
 2575                     	;
 2576  AE38     20          			.byte	020h
 2577                     	;
 2578  AE39     20          			.byte	020h
 2579                     	;
 2580  AE3A     40          			.byte	040h
 2581                     	;
 2582  AE3B     40          			.byte	040h
 2583                     	;
 2584  AE3C     40          			.byte	040h
 2585                     	;
 2586  AE3D     40          			.byte	040h
  Sun Jan 12 14:21:22 2003                                                                                               Page   65




 2587                     	;
 2588  AE3E     E0          			.byte	0e0h
 2589                     	;
 2590  AE3F     A0          			.byte	0a0h
 2591                     	;
 2592  AE40     A0          			.byte	0a0h
 2593                     	;
 2594  AE41     A0          			.byte	0a0h
 2595                     	;
 2596  AE42     E0          			.byte	0e0h
 2597                     	;
 2598  AE43     A0          			.byte	0a0h
 2599                     	;
 2600  AE44     A0          			.byte	0a0h
 2601                     	;
 2602  AE45     A0          			.byte	0a0h
 2603                     	;
 2604  AE46     E0          			.byte	0e0h
 2605                     	;
 2606  AE47     E0          			.byte	0e0h
 2607                     	;
 2608  AE48     A0          			.byte	0a0h
 2609                     	;
 2610  AE49     A0          			.byte	0a0h
 2611                     	;
 2612  AE4A     A0          			.byte	0a0h
 2613                     	;
 2614  AE4B     E0          			.byte	0e0h
 2615                     	;
 2616  AE4C     20          			.byte	020h
 2617                     	;
 2618  AE4D     20          			.byte	020h
 2619                     	;
 2620  AE4E     20          			.byte	020h
 2621                     	;
 2622  AE4F     E0          			.byte	0e0h
 2623                     	;
 2624                     			.attrib	_GameMTNum39,560,v,c,u,g,d,c,d,c,05ah,00h
 2625                     	;
 2626  AE50     E0          	_GameMTNum35:	.byte	0e0h
 2627                     	;
 2628  AE51     A0          			.byte	0a0h
 2629                     	;
 2630  AE52     A0          			.byte	0a0h
 2631                     	;
 2632  AE53     A0          			.byte	0a0h
 2633                     	;
 2634  AE54     E0          			.byte	0e0h
 2635                     	;
 2636  AE55     40          			.byte	040h
 2637                     	;
 2638  AE56     40          			.byte	040h
 2639                     	;
 2640  AE57     40          			.byte	040h
 2641                     	;
 2642  AE58     40          			.byte	040h
 2643                     	;
  Sun Jan 12 14:21:22 2003                                                                                               Page   66




 2644  AE59     40          			.byte	040h
 2645                     	;
 2646  AE5A     E0          			.byte	0e0h
 2647                     	;
 2648  AE5B     20          			.byte	020h
 2649                     	;
 2650  AE5C     E0          			.byte	0e0h
 2651                     	;
 2652  AE5D     80          			.byte	080h
 2653                     	;
 2654  AE5E     E0          			.byte	0e0h
 2655                     	;
 2656  AE5F     E0          			.byte	0e0h
 2657                     	;
 2658  AE60     20          			.byte	020h
 2659                     	;
 2660  AE61     E0          			.byte	0e0h
 2661                     	;
 2662  AE62     20          			.byte	020h
 2663                     	;
 2664  AE63     E0          			.byte	0e0h
 2665                     	;
 2666  AE64     A0          			.byte	0a0h
 2667                     	;
 2668  AE65     A0          			.byte	0a0h
 2669                     	;
 2670  AE66     E0          			.byte	0e0h
 2671                     	;
 2672  AE67     20          			.byte	020h
 2673                     	;
 2674  AE68     20          			.byte	020h
 2675                     	;
 2676  AE69     E0          			.byte	0e0h
 2677                     	;
 2678  AE6A     80          			.byte	080h
 2679                     	;
 2680  AE6B     E0          			.byte	0e0h
 2681                     	;
 2682  AE6C     20          			.byte	020h
 2683                     	;
 2684  AE6D     E0          			.byte	0e0h
 2685                     	;
 2686  AE6E     E0          			.byte	0e0h
 2687                     	;
 2688  AE6F     80          			.byte	080h
 2689                     	;
 2690  AE70     E0          			.byte	0e0h
 2691                     	;
 2692  AE71     A0          			.byte	0a0h
 2693                     	;
 2694  AE72     E0          			.byte	0e0h
 2695                     	;
 2696  AE73     E0          			.byte	0e0h
 2697                     	;
 2698  AE74     20          			.byte	020h
 2699                     	;
 2700  AE75     20          			.byte	020h
  Sun Jan 12 14:21:22 2003                                                                                               Page   67




 2701                     	;
 2702  AE76     40          			.byte	040h
 2703                     	;
 2704  AE77     40          			.byte	040h
 2705                     	;
 2706  AE78     E0          			.byte	0e0h
 2707                     	;
 2708  AE79     A0          			.byte	0a0h
 2709                     	;
 2710  AE7A     E0          			.byte	0e0h
 2711                     	;
 2712  AE7B     A0          			.byte	0a0h
 2713                     	;
 2714  AE7C     E0          			.byte	0e0h
 2715                     	;
 2716  AE7D     E0          			.byte	0e0h
 2717                     	;
 2718  AE7E     A0          			.byte	0a0h
 2719                     	;
 2720  AE7F     E0          			.byte	0e0h
 2721                     	;
 2722  AE80     20          			.byte	020h
 2723                     	;
 2724  AE81     E0          			.byte	0e0h
 2725                     	;
 2726                     			.attrib	_GameMTNum35,565,v,c,u,g,d,c,d,c,032h,00h
 2727                     	;
 2728  AE82     FF          	_GameMTBattlePad:	.byte	0ffh
 2729                     	;
 2730  AE83     FF          			.byte	0ffh
 2731                     	;
 2732  AE84     FF          			.byte	0ffh
 2733                     	;
 2734  AE85     FF          			.byte	0ffh
 2735                     	;
 2736  AE86     FF          			.byte	0ffh
 2737                     	;
 2738  AE87     FF          			.byte	0ffh
 2739                     	;
 2740  AE88     FF          			.byte	0ffh
 2741                     	;
 2742  AE89     FF          			.byte	0ffh
 2743                     	;
 2744  AE8A     FF          			.byte	0ffh
 2745                     	;
 2746  AE8B     FF          			.byte	0ffh
 2747                     	;
 2748  AE8C     FF          			.byte	0ffh
 2749                     	;
 2750  AE8D     FF          			.byte	0ffh
 2751                     	;
 2752  AE8E     FF          			.byte	0ffh
 2753                     	;
 2754  AE8F     FF          			.byte	0ffh
 2755                     	;
 2756  AE90     80          			.byte	080h
 2757                     	;
  Sun Jan 12 14:21:22 2003                                                                                               Page   68




 2758  AE91     00          			.byte	000h
 2759                     	;
 2760  AE92     00          			.byte	000h
 2761                     	;
 2762  AE93     00          			.byte	000h
 2763                     	;
 2764  AE94     00          			.byte	000h
 2765                     	;
 2766  AE95     00          			.byte	000h
 2767                     	;
 2768  AE96     00          			.byte	000h
 2769                     	;
 2770  AE97     00          			.byte	000h
 2771                     	;
 2772  AE98     00          			.byte	000h
 2773                     	;
 2774  AE99     00          			.byte	000h
 2775                     	;
 2776  AE9A     00          			.byte	000h
 2777                     	;
 2778  AE9B     00          			.byte	000h
 2779                     	;
 2780  AE9C     00          			.byte	000h
 2781                     	;
 2782  AE9D     01          			.byte	001h
 2783                     	;
 2784  AE9E     BF          			.byte	0bfh
 2785                     	;
 2786  AE9F     FF          			.byte	0ffh
 2787                     	;
 2788  AEA0     FF          			.byte	0ffh
 2789                     	;
 2790  AEA1     FF          			.byte	0ffh
 2791                     	;
 2792  AEA2     FF          			.byte	0ffh
 2793                     	;
 2794  AEA3     FF          			.byte	0ffh
 2795                     	;
 2796  AEA4     FF          			.byte	0ffh
 2797                     	;
 2798  AEA5     FF          			.byte	0ffh
 2799                     	;
 2800  AEA6     FF          			.byte	0ffh
 2801                     	;
 2802  AEA7     FF          			.byte	0ffh
 2803                     	;
 2804  AEA8     FF          			.byte	0ffh
 2805                     	;
 2806  AEA9     FF          			.byte	0ffh
 2807                     	;
 2808  AEAA     FF          			.byte	0ffh
 2809                     	;
 2810  AEAB     FD          			.byte	0fdh
 2811                     	;
 2812  AEAC     A0          			.byte	0a0h
 2813                     	;
 2814  AEAD     00          			.byte	000h
  Sun Jan 12 14:21:22 2003                                                                                               Page   69




 2815                     	;
 2816  AEAE     00          			.byte	000h
 2817                     	;
 2818  AEAF     00          			.byte	000h
 2819                     	;
 2820  AEB0     00          			.byte	000h
 2821                     	;
 2822  AEB1     00          			.byte	000h
 2823                     	;
 2824  AEB2     00          			.byte	000h
 2825                     	;
 2826  AEB3     00          			.byte	000h
 2827                     	;
 2828  AEB4     00          			.byte	000h
 2829                     	;
 2830  AEB5     00          			.byte	000h
 2831                     	;
 2832  AEB6     00          			.byte	000h
 2833                     	;
 2834  AEB7     00          			.byte	000h
 2835                     	;
 2836  AEB8     00          			.byte	000h
 2837                     	;
 2838  AEB9     05          			.byte	005h
 2839                     	;
 2840  AEBA     A0          			.byte	0a0h
 2841                     	;
 2842  AEBB     00          			.byte	000h
 2843                     	;
 2844  AEBC     00          			.byte	000h
 2845                     	;
 2846  AEBD     00          			.byte	000h
 2847                     	;
 2848  AEBE     00          			.byte	000h
 2849                     	;
 2850  AEBF     00          			.byte	000h
 2851                     	;
 2852  AEC0     00          			.byte	000h
 2853                     	;
 2854  AEC1     00          			.byte	000h
 2855                     	;
 2856  AEC2     00          			.byte	000h
 2857                     	;
 2858  AEC3     00          			.byte	000h
 2859                     	;
 2860  AEC4     00          			.byte	000h
 2861                     	;
 2862  AEC5     00          			.byte	000h
 2863                     	;
 2864  AEC6     00          			.byte	000h
 2865                     	;
 2866  AEC7     05          			.byte	005h
 2867                     	;
 2868  AEC8     A7          			.byte	0a7h
 2869                     	;
 2870  AEC9     FF          			.byte	0ffh
 2871                     	;
  Sun Jan 12 14:21:22 2003                                                                                               Page   70




 2872  AECA     FF          			.byte	0ffh
 2873                     	;
 2874  AECB     80          			.byte	080h
 2875                     	;
 2876  AECC     00          			.byte	000h
 2877                     	;
 2878  AECD     00          			.byte	000h
 2879                     	;
 2880  AECE     00          			.byte	000h
 2881                     	;
 2882  AECF     00          			.byte	000h
 2883                     	;
 2884  AED0     00          			.byte	000h
 2885                     	;
 2886  AED1     00          			.byte	000h
 2887                     	;
 2888  AED2     01          			.byte	001h
 2889                     	;
 2890  AED3     FF          			.byte	0ffh
 2891                     	;
 2892  AED4     FF          			.byte	0ffh
 2893                     	;
 2894  AED5     E5          			.byte	0e5h
 2895                     	;
 2896  AED6     A4          			.byte	0a4h
 2897                     	;
 2898  AED7     00          			.byte	000h
 2899                     	;
 2900  AED8     00          			.byte	000h
 2901                     	;
 2902  AED9     80          			.byte	080h
 2903                     	;
 2904  AEDA     00          			.byte	000h
 2905                     	;
 2906  AEDB     00          			.byte	000h
 2907                     	;
 2908  AEDC     00          			.byte	000h
 2909                     	;
 2910  AEDD     00          			.byte	000h
 2911                     	;
 2912  AEDE     00          			.byte	000h
 2913                     	;
 2914  AEDF     00          			.byte	000h
 2915                     	;
 2916  AEE0     01          			.byte	001h
 2917                     	;
 2918  AEE1     00          			.byte	000h
 2919                     	;
 2920  AEE2     00          			.byte	000h
 2921                     	;
 2922  AEE3     25          			.byte	025h
 2923                     	;
 2924  AEE4     A4          			.byte	0a4h
 2925                     	;
 2926  AEE5     00          			.byte	000h
 2927                     	;
 2928  AEE6     00          			.byte	000h
  Sun Jan 12 14:21:22 2003                                                                                               Page   71




 2929                     	;
 2930  AEE7     80          			.byte	080h
 2931                     	;
 2932  AEE8     00          			.byte	000h
 2933                     	;
 2934  AEE9     00          			.byte	000h
 2935                     	;
 2936  AEEA     00          			.byte	000h
 2937                     	;
 2938  AEEB     00          			.byte	000h
 2939                     	;
 2940  AEEC     00          			.byte	000h
 2941                     	;
 2942  AEED     00          			.byte	000h
 2943                     	;
 2944  AEEE     01          			.byte	001h
 2945                     	;
 2946  AEEF     03          			.byte	003h
 2947                     	;
 2948  AEF0     F0          			.byte	0f0h
 2949                     	;
 2950  AEF1     25          			.byte	025h
 2951                     	;
 2952  AEF2     A4          			.byte	0a4h
 2953                     	;
 2954  AEF3     00          			.byte	000h
 2955                     	;
 2956  AEF4     00          			.byte	000h
 2957                     	;
 2958  AEF5     80          			.byte	080h
 2959                     	;
 2960  AEF6     00          			.byte	000h
 2961                     	;
 2962  AEF7     00          			.byte	000h
 2963                     	;
 2964  AEF8     00          			.byte	000h
 2965                     	;
 2966  AEF9     00          			.byte	000h
 2967                     	;
 2968  AEFA     00          			.byte	000h
 2969                     	;
 2970  AEFB     00          			.byte	000h
 2971                     	;
 2972  AEFC     01          			.byte	001h
 2973                     	;
 2974  AEFD     07          			.byte	007h
 2975                     	;
 2976  AEFE     FE          			.byte	0feh
 2977                     	;
 2978  AEFF     25          			.byte	025h
 2979                     	;
 2980  AF00     A4          			.byte	0a4h
 2981                     	;
 2982  AF01     00          			.byte	000h
 2983                     	;
 2984  AF02     00          			.byte	000h
 2985                     	;
  Sun Jan 12 14:21:22 2003                                                                                               Page   72




 2986  AF03     80          			.byte	080h
 2987                     	;
 2988  AF04     00          			.byte	000h
 2989                     	;
 2990  AF05     00          			.byte	000h
 2991                     	;
 2992  AF06     00          			.byte	000h
 2993                     	;
 2994  AF07     00          			.byte	000h
 2995                     	;
 2996  AF08     00          			.byte	000h
 2997                     	;
 2998  AF09     00          			.byte	000h
 2999                     	;
 3000  AF0A     01          			.byte	001h
 3001                     	;
 3002  AF0B     0F          			.byte	00fh
 3003                     	;
 3004  AF0C     FC          			.byte	0fch
 3005                     	;
 3006  AF0D     25          			.byte	025h
 3007                     	;
 3008  AF0E     A4          			.byte	0a4h
 3009                     	;
 3010  AF0F     00          			.byte	000h
 3011                     	;
 3012  AF10     00          			.byte	000h
 3013                     	;
 3014  AF11     80          			.byte	080h
 3015                     	;
 3016  AF12     00          			.byte	000h
 3017                     	;
 3018  AF13     0C          			.byte	00ch
 3019                     	;
 3020  AF14     00          			.byte	000h
 3021                     	;
 3022  AF15     00          			.byte	000h
 3023                     	;
 3024  AF16     00          			.byte	000h
 3025                     	;
 3026  AF17     00          			.byte	000h
 3027                     	;
 3028  AF18     01          			.byte	001h
 3029                     	;
 3030  AF19     0F          			.byte	00fh
 3031                     	;
 3032  AF1A     DE          			.byte	0deh
 3033                     	;
 3034  AF1B     25          			.byte	025h
 3035                     	;
 3036  AF1C     A4          			.byte	0a4h
 3037                     	;
 3038  AF1D     00          			.byte	000h
 3039                     	;
 3040  AF1E     00          			.byte	000h
 3041                     	;
 3042  AF1F     80          			.byte	080h
  Sun Jan 12 14:21:22 2003                                                                                               Page   73




 3043                     	;
 3044  AF20     00          			.byte	000h
 3045                     	;
 3046  AF21     7C          			.byte	07ch
 3047                     	;
 3048  AF22     00          			.byte	000h
 3049                     	;
 3050  AF23     00          			.byte	000h
 3051                     	;
 3052  AF24     00          			.byte	000h
 3053                     	;
 3054  AF25     00          			.byte	000h
 3055                     	;
 3056  AF26     01          			.byte	001h
 3057                     	;
 3058  AF27     0F          			.byte	00fh
 3059                     	;
 3060  AF28     8C          			.byte	08ch
 3061                     	;
 3062  AF29     25          			.byte	025h
 3063                     	;
 3064  AF2A     A4          			.byte	0a4h
 3065                     	;
 3066  AF2B     00          			.byte	000h
 3067                     	;
 3068  AF2C     00          			.byte	000h
 3069                     	;
 3070  AF2D     80          			.byte	080h
 3071                     	;
 3072  AF2E     00          			.byte	000h
 3073                     	;
 3074  AF2F     FC          			.byte	0fch
 3075                     	;
 3076  AF30     00          			.byte	000h
 3077                     	;
 3078  AF31     40          			.byte	040h
 3079                     	;
 3080  AF32     00          			.byte	000h
 3081                     	;
 3082  AF33     00          			.byte	000h
 3083                     	;
 3084  AF34     01          			.byte	001h
 3085                     	;
 3086  AF35     3F          			.byte	03fh
 3087                     	;
 3088  AF36     2F          			.byte	02fh
 3089                     	;
 3090  AF37     25          			.byte	025h
 3091                     	;
 3092  AF38     A4          			.byte	0a4h
 3093                     	;
 3094  AF39     00          			.byte	000h
 3095                     	;
 3096  AF3A     00          			.byte	000h
 3097                     	;
 3098  AF3B     80          			.byte	080h
 3099                     	;
  Sun Jan 12 14:21:22 2003                                                                                               Page   74




 3100  AF3C     00          			.byte	000h
 3101                     	;
 3102  AF3D     FC          			.byte	0fch
 3103                     	;
 3104  AF3E     00          			.byte	000h
 3105                     	;
 3106  AF3F     40          			.byte	040h
 3107                     	;
 3108  AF40     00          			.byte	000h
 3109                     	;
 3110  AF41     00          			.byte	000h
 3111                     	;
 3112  AF42     01          			.byte	001h
 3113                     	;
 3114  AF43     65          			.byte	065h
 3115                     	;
 3116  AF44     29          			.byte	029h
 3117                     	;
 3118  AF45     A5          			.byte	0a5h
 3119                     	;
 3120  AF46     A4          			.byte	0a4h
 3121                     	;
 3122  AF47     00          			.byte	000h
 3123                     	;
 3124  AF48     00          			.byte	000h
 3125                     	;
 3126  AF49     80          			.byte	080h
 3127                     	;
 3128  AF4A     00          			.byte	000h
 3129                     	;
 3130  AF4B     FC          			.byte	0fch
 3131                     	;
 3132  AF4C     00          			.byte	000h
 3133                     	;
 3134  AF4D     40          			.byte	040h
 3135                     	;
 3136  AF4E     00          			.byte	000h
 3137                     	;
 3138  AF4F     00          			.byte	000h
 3139                     	;
 3140  AF50     01          			.byte	001h
 3141                     	;
 3142  AF51     3E          			.byte	03eh
 3143                     	;
 3144  AF52     1F          			.byte	01fh
 3145                     	;
 3146  AF53     25          			.byte	025h
 3147                     	;
 3148  AF54     A4          			.byte	0a4h
 3149                     	;
 3150  AF55     00          			.byte	000h
 3151                     	;
 3152  AF56     00          			.byte	000h
 3153                     	;
 3154  AF57     80          			.byte	080h
 3155                     	;
 3156  AF58     00          			.byte	000h
  Sun Jan 12 14:21:22 2003                                                                                               Page   75




 3157                     	;
 3158  AF59     7C          			.byte	07ch
 3159                     	;
 3160  AF5A     00          			.byte	000h
 3161                     	;
 3162  AF5B     C0          			.byte	0c0h
 3163                     	;
 3164  AF5C     00          			.byte	000h
 3165                     	;
 3166  AF5D     00          			.byte	000h
 3167                     	;
 3168  AF5E     01          			.byte	001h
 3169                     	;
 3170  AF5F     45          			.byte	045h
 3171                     	;
 3172  AF60     EB          			.byte	0ebh
 3173                     	;
 3174  AF61     25          			.byte	025h
 3175                     	;
 3176  AF62     A4          			.byte	0a4h
 3177                     	;
 3178  AF63     00          			.byte	000h
 3179                     	;
 3180  AF64     00          			.byte	000h
 3181                     	;
 3182  AF65     80          			.byte	080h
 3183                     	;
 3184  AF66     00          			.byte	000h
 3185                     	;
 3186  AF67     7C          			.byte	07ch
 3187                     	;
 3188  AF68     00          			.byte	000h
 3189                     	;
 3190  AF69     80          			.byte	080h
 3191                     	;
 3192  AF6A     00          			.byte	000h
 3193                     	;
 3194  AF6B     00          			.byte	000h
 3195                     	;
 3196  AF6C     01          			.byte	001h
 3197                     	;
 3198  AF6D     6C          			.byte	06ch
 3199                     	;
 3200  AF6E     0D          			.byte	00dh
 3201                     	;
 3202  AF6F     25          			.byte	025h
 3203                     	;
 3204  AF70     A4          			.byte	0a4h
 3205                     	;
 3206  AF71     00          			.byte	000h
 3207                     	;
 3208  AF72     00          			.byte	000h
 3209                     	;
 3210  AF73     80          			.byte	080h
 3211                     	;
 3212  AF74     00          			.byte	000h
 3213                     	;
  Sun Jan 12 14:21:22 2003                                                                                               Page   76




 3214  AF75     7E          			.byte	07eh
 3215                     	;
 3216  AF76     01          			.byte	001h
 3217                     	;
 3218  AF77     80          			.byte	080h
 3219                     	;
 3220  AF78     00          			.byte	000h
 3221                     	;
 3222  AF79     00          			.byte	000h
 3223                     	;
 3224  AF7A     01          			.byte	001h
 3225                     	;
 3226  AF7B     47          			.byte	047h
 3227                     	;
 3228  AF7C     F7          			.byte	0f7h
 3229                     	;
 3230  AF7D     A5          			.byte	0a5h
 3231                     	;
 3232  AF7E     A4          			.byte	0a4h
 3233                     	;
 3234  AF7F     00          			.byte	000h
 3235                     	;
 3236  AF80     00          			.byte	000h
 3237                     	;
 3238  AF81     80          			.byte	080h
 3239                     	;
 3240  AF82     00          			.byte	000h
 3241                     	;
 3242  AF83     7E          			.byte	07eh
 3243                     	;
 3244  AF84     01          			.byte	001h
 3245                     	;
 3246  AF85     80          			.byte	080h
 3247                     	;
 3248  AF86     00          			.byte	000h
 3249                     	;
 3250  AF87     00          			.byte	000h
 3251                     	;
 3252  AF88     01          			.byte	001h
 3253                     	;
 3254  AF89     66          			.byte	066h
 3255                     	;
 3256  AF8A     0D          			.byte	00dh
 3257                     	;
 3258  AF8B     A5          			.byte	0a5h
 3259                     	;
 3260  AF8C     A4          			.byte	0a4h
 3261                     	;
 3262  AF8D     00          			.byte	000h
 3263                     	;
 3264  AF8E     00          			.byte	000h
 3265                     	;
 3266  AF8F     80          			.byte	080h
 3267                     	;
 3268  AF90     00          			.byte	000h
 3269                     	;
 3270  AF91     7E          			.byte	07eh
  Sun Jan 12 14:21:22 2003                                                                                               Page   77




 3271                     	;
 3272  AF92     03          			.byte	003h
 3273                     	;
 3274  AF93     80          			.byte	080h
 3275                     	;
 3276  AF94     00          			.byte	000h
 3277                     	;
 3278  AF95     00          			.byte	000h
 3279                     	;
 3280  AF96     01          			.byte	001h
 3281                     	;
 3282  AF97     7E          			.byte	07eh
 3283                     	;
 3284  AF98     AF          			.byte	0afh
 3285                     	;
 3286  AF99     A5          			.byte	0a5h
 3287                     	;
 3288  AF9A     A4          			.byte	0a4h
 3289                     	;
 3290  AF9B     00          			.byte	000h
 3291                     	;
 3292  AF9C     00          			.byte	000h
 3293                     	;
 3294  AF9D     80          			.byte	080h
 3295                     	;
 3296  AF9E     00          			.byte	000h
 3297                     	;
 3298  AF9F     3E          			.byte	03eh
 3299                     	;
 3300  AFA0     03          			.byte	003h
 3301                     	;
 3302  AFA1     80          			.byte	080h
 3303                     	;
 3304  AFA2     00          			.byte	000h
 3305                     	;
 3306  AFA3     00          			.byte	000h
 3307                     	;
 3308  AFA4     01          			.byte	001h
 3309                     	;
 3310  AFA5     55          			.byte	055h
 3311                     	;
 3312  AFA6     D6          			.byte	0d6h
 3313                     	;
 3314  AFA7     A5          			.byte	0a5h
 3315                     	;
 3316  AFA8     A4          			.byte	0a4h
 3317                     	;
 3318  AFA9     00          			.byte	000h
 3319                     	;
 3320  AFAA     00          			.byte	000h
 3321                     	;
 3322  AFAB     80          			.byte	080h
 3323                     	;
 3324  AFAC     00          			.byte	000h
 3325                     	;
 3326  AFAD     3E          			.byte	03eh
 3327                     	;
  Sun Jan 12 14:21:22 2003                                                                                               Page   78




 3328  AFAE     03          			.byte	003h
 3329                     	;
 3330  AFAF     00          			.byte	000h
 3331                     	;
 3332  AFB0     00          			.byte	000h
 3333                     	;
 3334  AFB1     00          			.byte	000h
 3335                     	;
 3336  AFB2     01          			.byte	001h
 3337                     	;
 3338  AFB3     32          			.byte	032h
 3339                     	;
 3340  AFB4     8B          			.byte	08bh
 3341                     	;
 3342  AFB5     25          			.byte	025h
 3343                     	;
 3344  AFB6     A4          			.byte	0a4h
 3345                     	;
 3346  AFB7     00          			.byte	000h
 3347                     	;
 3348  AFB8     00          			.byte	000h
 3349                     	;
 3350  AFB9     80          			.byte	080h
 3351                     	;
 3352  AFBA     00          			.byte	000h
 3353                     	;
 3354  AFBB     1F          			.byte	01fh
 3355                     	;
 3356  AFBC     0F          			.byte	00fh
 3357                     	;
 3358  AFBD     00          			.byte	000h
 3359                     	;
 3360  AFBE     00          			.byte	000h
 3361                     	;
 3362  AFBF     00          			.byte	000h
 3363                     	;
 3364  AFC0     01          			.byte	001h
 3365                     	;
 3366  AFC1     10          			.byte	010h
 3367                     	;
 3368  AFC2     72          			.byte	072h
 3369                     	;
 3370  AFC3     25          			.byte	025h
 3371                     	;
 3372  AFC4     A4          			.byte	0a4h
 3373                     	;
 3374  AFC5     00          			.byte	000h
 3375                     	;
 3376  AFC6     00          			.byte	000h
 3377                     	;
 3378  AFC7     80          			.byte	080h
 3379                     	;
 3380  AFC8     00          			.byte	000h
 3381                     	;
 3382  AFC9     1F          			.byte	01fh
 3383                     	;
 3384  AFCA     0F          			.byte	00fh
  Sun Jan 12 14:21:22 2003                                                                                               Page   79




 3385                     	;
 3386  AFCB     1C          			.byte	01ch
 3387                     	;
 3388  AFCC     00          			.byte	000h
 3389                     	;
 3390  AFCD     00          			.byte	000h
 3391                     	;
 3392  AFCE     01          			.byte	001h
 3393                     	;
 3394  AFCF     00          			.byte	000h
 3395                     	;
 3396  AFD0     00          			.byte	000h
 3397                     	;
 3398  AFD1     25          			.byte	025h
 3399                     	;
 3400  AFD2     A7          			.byte	0a7h
 3401                     	;
 3402  AFD3     FF          			.byte	0ffh
 3403                     	;
 3404  AFD4     FF          			.byte	0ffh
 3405                     	;
 3406  AFD5     80          			.byte	080h
 3407                     	;
 3408  AFD6     00          			.byte	000h
 3409                     	;
 3410  AFD7     1F          			.byte	01fh
 3411                     	;
 3412  AFD8     1E          			.byte	01eh
 3413                     	;
 3414  AFD9     7C          			.byte	07ch
 3415                     	;
 3416  AFDA     00          			.byte	000h
 3417                     	;
 3418  AFDB     00          			.byte	000h
 3419                     	;
 3420  AFDC     01          			.byte	001h
 3421                     	;
 3422  AFDD     FF          			.byte	0ffh
 3423                     	;
 3424  AFDE     FF          			.byte	0ffh
 3425                     	;
 3426  AFDF     E5          			.byte	0e5h
 3427                     	;
 3428  AFE0     A0          			.byte	0a0h
 3429                     	;
 3430  AFE1     00          			.byte	000h
 3431                     	;
 3432  AFE2     00          			.byte	000h
 3433                     	;
 3434  AFE3     00          			.byte	000h
 3435                     	;
 3436  AFE4     00          			.byte	000h
 3437                     	;
 3438  AFE5     1F          			.byte	01fh
 3439                     	;
 3440  AFE6     1E          			.byte	01eh
 3441                     	;
  Sun Jan 12 14:21:22 2003                                                                                               Page   80




 3442  AFE7     7E          			.byte	07eh
 3443                     	;
 3444  AFE8     00          			.byte	000h
 3445                     	;
 3446  AFE9     00          			.byte	000h
 3447                     	;
 3448  AFEA     00          			.byte	000h
 3449                     	;
 3450  AFEB     00          			.byte	000h
 3451                     	;
 3452  AFEC     00          			.byte	000h
 3453                     	;
 3454  AFED     05          			.byte	005h
 3455                     	;
 3456  AFEE     A0          			.byte	0a0h
 3457                     	;
 3458  AFEF     40          			.byte	040h
 3459                     	;
 3460  AFF0     00          			.byte	000h
 3461                     	;
 3462  AFF1     00          			.byte	000h
 3463                     	;
 3464  AFF2     00          			.byte	000h
 3465                     	;
 3466  AFF3     1F          			.byte	01fh
 3467                     	;
 3468  AFF4     BC          			.byte	0bch
 3469                     	;
 3470  AFF5     FF          			.byte	0ffh
 3471                     	;
 3472  AFF6     80          			.byte	080h
 3473                     	;
 3474  AFF7     00          			.byte	000h
 3475                     	;
 3476  AFF8     00          			.byte	000h
 3477                     	;
 3478  AFF9     00          			.byte	000h
 3479                     	;
 3480  AFFA     08          			.byte	008h
 3481                     	;
 3482  AFFB     05          			.byte	005h
 3483                     	;
 3484  AFFC     A0          			.byte	0a0h
 3485                     	;
 3486  AFFD     E0          			.byte	0e0h
 3487                     	;
 3488  AFFE     00          			.byte	000h
 3489                     	;
 3490  AFFF     00          			.byte	000h
 3491                     	;
 3492  B000     00          			.byte	000h
 3493                     	;
 3494  B001     1F          			.byte	01fh
 3495                     	;
 3496  B002     FD          			.byte	0fdh
 3497                     	;
 3498  B003     FF          			.byte	0ffh
  Sun Jan 12 14:21:22 2003                                                                                               Page   81




 3499                     	;
 3500  B004     80          			.byte	080h
 3501                     	;
 3502  B005     00          			.byte	000h
 3503                     	;
 3504  B006     00          			.byte	000h
 3505                     	;
 3506  B007     00          			.byte	000h
 3507                     	;
 3508  B008     1C          			.byte	01ch
 3509                     	;
 3510  B009     05          			.byte	005h
 3511                     	;
 3512  B00A     A1          			.byte	0a1h
 3513                     	;
 3514  B00B     B0          			.byte	0b0h
 3515                     	;
 3516  B00C     00          			.byte	000h
 3517                     	;
 3518  B00D     00          			.byte	000h
 3519                     	;
 3520  B00E     00          			.byte	000h
 3521                     	;
 3522  B00F     0F          			.byte	00fh
 3523                     	;
 3524  B010     FF          			.byte	0ffh
 3525                     	;
 3526  B011     FB          			.byte	0fbh
 3527                     	;
 3528  B012     80          			.byte	080h
 3529                     	;
 3530  B013     00          			.byte	000h
 3531                     	;
 3532  B014     00          			.byte	000h
 3533                     	;
 3534  B015     00          			.byte	000h
 3535                     	;
 3536  B016     36          			.byte	036h
 3537                     	;
 3538  B017     05          			.byte	005h
 3539                     	;
 3540  B018     A3          			.byte	0a3h
 3541                     	;
 3542  B019     F8          			.byte	0f8h
 3543                     	;
 3544  B01A     00          			.byte	000h
 3545                     	;
 3546  B01B     00          			.byte	000h
 3547                     	;
 3548  B01C     00          			.byte	000h
 3549                     	;
 3550  B01D     0F          			.byte	00fh
 3551                     	;
 3552  B01E     FF          			.byte	0ffh
 3553                     	;
 3554  B01F     F0          			.byte	0f0h
 3555                     	;
  Sun Jan 12 14:21:22 2003                                                                                               Page   82




 3556  B020     00          			.byte	000h
 3557                     	;
 3558  B021     00          			.byte	000h
 3559                     	;
 3560  B022     00          			.byte	000h
 3561                     	;
 3562  B023     00          			.byte	000h
 3563                     	;
 3564  B024     7F          			.byte	07fh
 3565                     	;
 3566  B025     05          			.byte	005h
 3567                     	;
 3568  B026     A6          			.byte	0a6h
 3569                     	;
 3570  B027     0C          			.byte	00ch
 3571                     	;
 3572  B028     00          			.byte	000h
 3573                     	;
 3574  B029     00          			.byte	000h
 3575                     	;
 3576  B02A     00          			.byte	000h
 3577                     	;
 3578  B02B     0F          			.byte	00fh
 3579                     	;
 3580  B02C     FF          			.byte	0ffh
 3581                     	;
 3582  B02D     E0          			.byte	0e0h
 3583                     	;
 3584  B02E     00          			.byte	000h
 3585                     	;
 3586  B02F     00          			.byte	000h
 3587                     	;
 3588  B030     00          			.byte	000h
 3589                     	;
 3590  B031     00          			.byte	000h
 3591                     	;
 3592  B032     C1          			.byte	0c1h
 3593                     	;
 3594  B033     85          			.byte	085h
 3595                     	;
 3596  B034     A3          			.byte	0a3h
 3597                     	;
 3598  B035     B8          			.byte	0b8h
 3599                     	;
 3600  B036     00          			.byte	000h
 3601                     	;
 3602  B037     00          			.byte	000h
 3603                     	;
 3604  B038     00          			.byte	000h
 3605                     	;
 3606  B039     07          			.byte	007h
 3607                     	;
 3608  B03A     FF          			.byte	0ffh
 3609                     	;
 3610  B03B     C0          			.byte	0c0h
 3611                     	;
 3612  B03C     00          			.byte	000h
  Sun Jan 12 14:21:22 2003                                                                                               Page   83




 3613                     	;
 3614  B03D     00          			.byte	000h
 3615                     	;
 3616  B03E     00          			.byte	000h
 3617                     	;
 3618  B03F     00          			.byte	000h
 3619                     	;
 3620  B040     77          			.byte	077h
 3621                     	;
 3622  B041     05          			.byte	005h
 3623                     	;
 3624  B042     A2          			.byte	0a2h
 3625                     	;
 3626  B043     A8          			.byte	0a8h
 3627                     	;
 3628  B044     00          			.byte	000h
 3629                     	;
 3630  B045     00          			.byte	000h
 3631                     	;
 3632  B046     00          			.byte	000h
 3633                     	;
 3634  B047     03          			.byte	003h
 3635                     	;
 3636  B048     FF          			.byte	0ffh
 3637                     	;
 3638  B049     80          			.byte	080h
 3639                     	;
 3640  B04A     00          			.byte	000h
 3641                     	;
 3642  B04B     00          			.byte	000h
 3643                     	;
 3644  B04C     00          			.byte	000h
 3645                     	;
 3646  B04D     00          			.byte	000h
 3647                     	;
 3648  B04E     55          			.byte	055h
 3649                     	;
 3650  B04F     05          			.byte	005h
 3651                     	;
 3652  B050     A2          			.byte	0a2h
 3653                     	;
 3654  B051     A8          			.byte	0a8h
 3655                     	;
 3656  B052     00          			.byte	000h
 3657                     	;
 3658  B053     00          			.byte	000h
 3659                     	;
 3660  B054     00          			.byte	000h
 3661                     	;
 3662  B055     03          			.byte	003h
 3663                     	;
 3664  B056     FF          			.byte	0ffh
 3665                     	;
 3666  B057     80          			.byte	080h
 3667                     	;
 3668  B058     00          			.byte	000h
 3669                     	;
  Sun Jan 12 14:21:22 2003                                                                                               Page   84




 3670  B059     00          			.byte	000h
 3671                     	;
 3672  B05A     00          			.byte	000h
 3673                     	;
 3674  B05B     00          			.byte	000h
 3675                     	;
 3676  B05C     55          			.byte	055h
 3677                     	;
 3678  B05D     05          			.byte	005h
 3679                     	;
 3680  B05E     A3          			.byte	0a3h
 3681                     	;
 3682  B05F     B8          			.byte	0b8h
 3683                     	;
 3684  B060     00          			.byte	000h
 3685                     	;
 3686  B061     00          			.byte	000h
 3687                     	;
 3688  B062     00          			.byte	000h
 3689                     	;
 3690  B063     03          			.byte	003h
 3691                     	;
 3692  B064     FF          			.byte	0ffh
 3693                     	;
 3694  B065     80          			.byte	080h
 3695                     	;
 3696  B066     00          			.byte	000h
 3697                     	;
 3698  B067     00          			.byte	000h
 3699                     	;
 3700  B068     00          			.byte	000h
 3701                     	;
 3702  B069     00          			.byte	000h
 3703                     	;
 3704  B06A     77          			.byte	077h
 3705                     	;
 3706  B06B     05          			.byte	005h
 3707                     	;
 3708  B06C     A0          			.byte	0a0h
 3709                     	;
 3710  B06D     20          			.byte	020h
 3711                     	;
 3712  B06E     00          			.byte	000h
 3713                     	;
 3714  B06F     00          			.byte	000h
 3715                     	;
 3716  B070     00          			.byte	000h
 3717                     	;
 3718  B071     03          			.byte	003h
 3719                     	;
 3720  B072     E7          			.byte	0e7h
 3721                     	;
 3722  B073     80          			.byte	080h
 3723                     	;
 3724  B074     00          			.byte	000h
 3725                     	;
 3726  B075     00          			.byte	000h
  Sun Jan 12 14:21:22 2003                                                                                               Page   85




 3727                     	;
 3728  B076     00          			.byte	000h
 3729                     	;
 3730  B077     00          			.byte	000h
 3731                     	;
 3732  B078     04          			.byte	004h
 3733                     	;
 3734  B079     05          			.byte	005h
 3735                     	;
 3736  B07A     A0          			.byte	0a0h
 3737                     	;
 3738  B07B     00          			.byte	000h
 3739                     	;
 3740  B07C     00          			.byte	000h
 3741                     	;
 3742  B07D     00          			.byte	000h
 3743                     	;
 3744  B07E     00          			.byte	000h
 3745                     	;
 3746  B07F     01          			.byte	001h
 3747                     	;
 3748  B080     E7          			.byte	0e7h
 3749                     	;
 3750  B081     80          			.byte	080h
 3751                     	;
 3752  B082     00          			.byte	000h
 3753                     	;
 3754  B083     00          			.byte	000h
 3755                     	;
 3756  B084     00          			.byte	000h
 3757                     	;
 3758  B085     00          			.byte	000h
 3759                     	;
 3760  B086     00          			.byte	000h
 3761                     	;
 3762  B087     05          			.byte	005h
 3763                     	;
 3764  B088     A7          			.byte	0a7h
 3765                     	;
 3766  B089     FF          			.byte	0ffh
 3767                     	;
 3768  B08A     FF          			.byte	0ffh
 3769                     	;
 3770  B08B     FF          			.byte	0ffh
 3771                     	;
 3772  B08C     FF          			.byte	0ffh
 3773                     	;
 3774  B08D     00          			.byte	000h
 3775                     	;
 3776  B08E     E3          			.byte	0e3h
 3777                     	;
 3778  B08F     80          			.byte	080h
 3779                     	;
 3780  B090     01          			.byte	001h
 3781                     	;
 3782  B091     FF          			.byte	0ffh
 3783                     	;
  Sun Jan 12 14:21:22 2003                                                                                               Page   86




 3784  B092     FF          			.byte	0ffh
 3785                     	;
 3786  B093     FF          			.byte	0ffh
 3787                     	;
 3788  B094     FF          			.byte	0ffh
 3789                     	;
 3790  B095     C5          			.byte	0c5h
 3791                     	;
 3792  B096     A0          			.byte	0a0h
 3793                     	;
 3794  B097     20          			.byte	020h
 3795                     	;
 3796  B098     00          			.byte	000h
 3797                     	;
 3798  B099     00          			.byte	000h
 3799                     	;
 3800  B09A     00          			.byte	000h
 3801                     	;
 3802  B09B     00          			.byte	000h
 3803                     	;
 3804  B09C     E1          			.byte	0e1h
 3805                     	;
 3806  B09D     FC          			.byte	0fch
 3807                     	;
 3808  B09E     00          			.byte	000h
 3809                     	;
 3810  B09F     00          			.byte	000h
 3811                     	;
 3812  B0A0     00          			.byte	000h
 3813                     	;
 3814  B0A1     00          			.byte	000h
 3815                     	;
 3816  B0A2     04          			.byte	004h
 3817                     	;
 3818  B0A3     05          			.byte	005h
 3819                     	;
 3820  B0A4     A0          			.byte	0a0h
 3821                     	;
 3822  B0A5     40          			.byte	040h
 3823                     	;
 3824  B0A6     00          			.byte	000h
 3825                     	;
 3826  B0A7     00          			.byte	000h
 3827                     	;
 3828  B0A8     00          			.byte	000h
 3829                     	;
 3830  B0A9     00          			.byte	000h
 3831                     	;
 3832  B0AA     40          			.byte	040h
 3833                     	;
 3834  B0AB     7F          			.byte	07fh
 3835                     	;
 3836  B0AC     E0          			.byte	0e0h
 3837                     	;
 3838  B0AD     00          			.byte	000h
 3839                     	;
 3840  B0AE     00          			.byte	000h
  Sun Jan 12 14:21:22 2003                                                                                               Page   87




 3841                     	;
 3842  B0AF     00          			.byte	000h
 3843                     	;
 3844  B0B0     08          			.byte	008h
 3845                     	;
 3846  B0B1     05          			.byte	005h
 3847                     	;
 3848  B0B2     A7          			.byte	0a7h
 3849                     	;
 3850  B0B3     FC          			.byte	0fch
 3851                     	;
 3852  B0B4     00          			.byte	000h
 3853                     	;
 3854  B0B5     00          			.byte	000h
 3855                     	;
 3856  B0B6     00          			.byte	000h
 3857                     	;
 3858  B0B7     00          			.byte	000h
 3859                     	;
 3860  B0B8     00          			.byte	000h
 3861                     	;
 3862  B0B9     0F          			.byte	00fh
 3863                     	;
 3864  B0BA     F8          			.byte	0f8h
 3865                     	;
 3866  B0BB     00          			.byte	000h
 3867                     	;
 3868  B0BC     00          			.byte	000h
 3869                     	;
 3870  B0BD     00          			.byte	000h
 3871                     	;
 3872  B0BE     FF          			.byte	0ffh
 3873                     	;
 3874  B0BF     85          			.byte	085h
 3875                     	;
 3876  B0C0     A2          			.byte	0a2h
 3877                     	;
 3878  B0C1     D0          			.byte	0d0h
 3879                     	;
 3880  B0C2     00          			.byte	000h
 3881                     	;
 3882  B0C3     00          			.byte	000h
 3883                     	;
 3884  B0C4     00          			.byte	000h
 3885                     	;
 3886  B0C5     00          			.byte	000h
 3887                     	;
 3888  B0C6     00          			.byte	000h
 3889                     	;
 3890  B0C7     00          			.byte	000h
 3891                     	;
 3892  B0C8     7E          			.byte	07eh
 3893                     	;
 3894  B0C9     00          			.byte	000h
 3895                     	;
 3896  B0CA     00          			.byte	000h
 3897                     	;
  Sun Jan 12 14:21:22 2003                                                                                               Page   88




 3898  B0CB     00          			.byte	000h
 3899                     	;
 3900  B0CC     5A          			.byte	05ah
 3901                     	;
 3902  B0CD     05          			.byte	005h
 3903                     	;
 3904  B0CE     A3          			.byte	0a3h
 3905                     	;
 3906  B0CF     50          			.byte	050h
 3907                     	;
 3908  B0D0     00          			.byte	000h
 3909                     	;
 3910  B0D1     00          			.byte	000h
 3911                     	;
 3912  B0D2     00          			.byte	000h
 3913                     	;
 3914  B0D3     00          			.byte	000h
 3915                     	;
 3916  B0D4     00          			.byte	000h
 3917                     	;
 3918  B0D5     00          			.byte	000h
 3919                     	;
 3920  B0D6     7E          			.byte	07eh
 3921                     	;
 3922  B0D7     00          			.byte	000h
 3923                     	;
 3924  B0D8     00          			.byte	000h
 3925                     	;
 3926  B0D9     00          			.byte	000h
 3927                     	;
 3928  B0DA     6A          			.byte	06ah
 3929                     	;
 3930  B0DB     05          			.byte	005h
 3931                     	;
 3932  B0DC     A2          			.byte	0a2h
 3933                     	;
 3934  B0DD     70          			.byte	070h
 3935                     	;
 3936  B0DE     00          			.byte	000h
 3937                     	;
 3938  B0DF     00          			.byte	000h
 3939                     	;
 3940  B0E0     00          			.byte	000h
 3941                     	;
 3942  B0E1     00          			.byte	000h
 3943                     	;
 3944  B0E2     00          			.byte	000h
 3945                     	;
 3946  B0E3     00          			.byte	000h
 3947                     	;
 3948  B0E4     7E          			.byte	07eh
 3949                     	;
 3950  B0E5     00          			.byte	000h
 3951                     	;
 3952  B0E6     00          			.byte	000h
 3953                     	;
 3954  B0E7     00          			.byte	000h
  Sun Jan 12 14:21:22 2003                                                                                               Page   89




 3955                     	;
 3956  B0E8     4E          			.byte	04eh
 3957                     	;
 3958  B0E9     05          			.byte	005h
 3959                     	;
 3960  B0EA     A3          			.byte	0a3h
 3961                     	;
 3962  B0EB     20          			.byte	020h
 3963                     	;
 3964  B0EC     00          			.byte	000h
 3965                     	;
 3966  B0ED     00          			.byte	000h
 3967                     	;
 3968  B0EE     00          			.byte	000h
 3969                     	;
 3970  B0EF     00          			.byte	000h
 3971                     	;
 3972  B0F0     00          			.byte	000h
 3973                     	;
 3974  B0F1     00          			.byte	000h
 3975                     	;
 3976  B0F2     3E          			.byte	03eh
 3977                     	;
 3978  B0F3     00          			.byte	000h
 3979                     	;
 3980  B0F4     00          			.byte	000h
 3981                     	;
 3982  B0F5     00          			.byte	000h
 3983                     	;
 3984  B0F6     64          			.byte	064h
 3985                     	;
 3986  B0F7     05          			.byte	005h
 3987                     	;
 3988  B0F8     A6          			.byte	0a6h
 3989                     	;
 3990  B0F9     30          			.byte	030h
 3991                     	;
 3992  B0FA     00          			.byte	000h
 3993                     	;
 3994  B0FB     00          			.byte	000h
 3995                     	;
 3996  B0FC     00          			.byte	000h
 3997                     	;
 3998  B0FD     00          			.byte	000h
 3999                     	;
 4000  B0FE     00          			.byte	000h
 4001                     	;
 4002  B0FF     00          			.byte	000h
 4003                     	;
 4004  B100     3E          			.byte	03eh
 4005                     	;
 4006  B101     00          			.byte	000h
 4007                     	;
 4008  B102     00          			.byte	000h
 4009                     	;
 4010  B103     00          			.byte	000h
 4011                     	;
  Sun Jan 12 14:21:22 2003                                                                                               Page   90




 4012  B104     C6          			.byte	0c6h
 4013                     	;
 4014  B105     05          			.byte	005h
 4015                     	;
 4016  B106     A0          			.byte	0a0h
 4017                     	;
 4018  B107     48          			.byte	048h
 4019                     	;
 4020  B108     00          			.byte	000h
 4021                     	;
 4022  B109     00          			.byte	000h
 4023                     	;
 4024  B10A     00          			.byte	000h
 4025                     	;
 4026  B10B     00          			.byte	000h
 4027                     	;
 4028  B10C     10          			.byte	010h
 4029                     	;
 4030  B10D     00          			.byte	000h
 4031                     	;
 4032  B10E     3E          			.byte	03eh
 4033                     	;
 4034  B10F     00          			.byte	000h
 4035                     	;
 4036  B110     00          			.byte	000h
 4037                     	;
 4038  B111     00          			.byte	000h
 4039                     	;
 4040  B112     09          			.byte	009h
 4041                     	;
 4042  B113     05          			.byte	005h
 4043                     	;
 4044  B114     A0          			.byte	0a0h
 4045                     	;
 4046  B115     8C          			.byte	08ch
 4047                     	;
 4048  B116     00          			.byte	000h
 4049                     	;
 4050  B117     00          			.byte	000h
 4051                     	;
 4052  B118     00          			.byte	000h
 4053                     	;
 4054  B119     00          			.byte	000h
 4055                     	;
 4056  B11A     10          			.byte	010h
 4057                     	;
 4058  B11B     00          			.byte	000h
 4059                     	;
 4060  B11C     3E          			.byte	03eh
 4061                     	;
 4062  B11D     00          			.byte	000h
 4063                     	;
 4064  B11E     00          			.byte	000h
 4065                     	;
 4066  B11F     00          			.byte	000h
 4067                     	;
 4068  B120     11          			.byte	011h
  Sun Jan 12 14:21:22 2003                                                                                               Page   91




 4069                     	;
 4070  B121     85          			.byte	085h
 4071                     	;
 4072  B122     A0          			.byte	0a0h
 4073                     	;
 4074  B123     00          			.byte	000h
 4075                     	;
 4076  B124     00          			.byte	000h
 4077                     	;
 4078  B125     00          			.byte	000h
 4079                     	;
 4080  B126     00          			.byte	000h
 4081                     	;
 4082  B127     00          			.byte	000h
 4083                     	;
 4084  B128     30          			.byte	030h
 4085                     	;
 4086  B129     00          			.byte	000h
 4087                     	;
 4088  B12A     3C          			.byte	03ch
 4089                     	;
 4090  B12B     00          			.byte	000h
 4091                     	;
 4092  B12C     00          			.byte	000h
 4093                     	;
 4094  B12D     00          			.byte	000h
 4095                     	;
 4096  B12E     00          			.byte	000h
 4097                     	;
 4098  B12F     05          			.byte	005h
 4099                     	;
 4100  B130     A7          			.byte	0a7h
 4101                     	;
 4102  B131     FF          			.byte	0ffh
 4103                     	;
 4104  B132     FF          			.byte	0ffh
 4105                     	;
 4106  B133     FF          			.byte	0ffh
 4107                     	;
 4108  B134     FF          			.byte	0ffh
 4109                     	;
 4110  B135     00          			.byte	000h
 4111                     	;
 4112  B136     30          			.byte	030h
 4113                     	;
 4114  B137     00          			.byte	000h
 4115                     	;
 4116  B138     3D          			.byte	03dh
 4117                     	;
 4118  B139     FF          			.byte	0ffh
 4119                     	;
 4120  B13A     FF          			.byte	0ffh
 4121                     	;
 4122  B13B     FF          			.byte	0ffh
 4123                     	;
 4124  B13C     FF          			.byte	0ffh
 4125                     	;
  Sun Jan 12 14:21:22 2003                                                                                               Page   92




 4126  B13D     C5          			.byte	0c5h
 4127                     	;
 4128  B13E     A0          			.byte	0a0h
 4129                     	;
 4130  B13F     00          			.byte	000h
 4131                     	;
 4132  B140     00          			.byte	000h
 4133                     	;
 4134  B141     00          			.byte	000h
 4135                     	;
 4136  B142     00          			.byte	000h
 4137                     	;
 4138  B143     00          			.byte	000h
 4139                     	;
 4140  B144     38          			.byte	038h
 4141                     	;
 4142  B145     00          			.byte	000h
 4143                     	;
 4144  B146     78          			.byte	078h
 4145                     	;
 4146  B147     00          			.byte	000h
 4147                     	;
 4148  B148     00          			.byte	000h
 4149                     	;
 4150  B149     00          			.byte	000h
 4151                     	;
 4152  B14A     00          			.byte	000h
 4153                     	;
 4154  B14B     05          			.byte	005h
 4155                     	;
 4156  B14C     A3          			.byte	0a3h
 4157                     	;
 4158  B14D     90          			.byte	090h
 4159                     	;
 4160  B14E     00          			.byte	000h
 4161                     	;
 4162  B14F     00          			.byte	000h
 4163                     	;
 4164  B150     00          			.byte	000h
 4165                     	;
 4166  B151     00          			.byte	000h
 4167                     	;
 4168  B152     3C          			.byte	03ch
 4169                     	;
 4170  B153     00          			.byte	000h
 4171                     	;
 4172  B154     70          			.byte	070h
 4173                     	;
 4174  B155     00          			.byte	000h
 4175                     	;
 4176  B156     00          			.byte	000h
 4177                     	;
 4178  B157     00          			.byte	000h
 4179                     	;
 4180  B158     72          			.byte	072h
 4181                     	;
 4182  B159     05          			.byte	005h
  Sun Jan 12 14:21:22 2003                                                                                               Page   93




 4183                     	;
 4184  B15A     A2          			.byte	0a2h
 4185                     	;
 4186  B15B     FC          			.byte	0fch
 4187                     	;
 4188  B15C     00          			.byte	000h
 4189                     	;
 4190  B15D     00          			.byte	000h
 4191                     	;
 4192  B15E     00          			.byte	000h
 4193                     	;
 4194  B15F     00          			.byte	000h
 4195                     	;
 4196  B160     3C          			.byte	03ch
 4197                     	;
 4198  B161     00          			.byte	000h
 4199                     	;
 4200  B162     60          			.byte	060h
 4201                     	;
 4202  B163     00          			.byte	000h
 4203                     	;
 4204  B164     00          			.byte	000h
 4205                     	;
 4206  B165     00          			.byte	000h
 4207                     	;
 4208  B166     5F          			.byte	05fh
 4209                     	;
 4210  B167     85          			.byte	085h
 4211                     	;
 4212  B168     A3          			.byte	0a3h
 4213                     	;
 4214  B169     20          			.byte	020h
 4215                     	;
 4216  B16A     00          			.byte	000h
 4217                     	;
 4218  B16B     00          			.byte	000h
 4219                     	;
 4220  B16C     00          			.byte	000h
 4221                     	;
 4222  B16D     00          			.byte	000h
 4223                     	;
 4224  B16E     3C          			.byte	03ch
 4225                     	;
 4226  B16F     00          			.byte	000h
 4227                     	;
 4228  B170     C0          			.byte	0c0h
 4229                     	;
 4230  B171     00          			.byte	000h
 4231                     	;
 4232  B172     00          			.byte	000h
 4233                     	;
 4234  B173     00          			.byte	000h
 4235                     	;
 4236  B174     64          			.byte	064h
 4237                     	;
 4238  B175     05          			.byte	005h
 4239                     	;
  Sun Jan 12 14:21:22 2003                                                                                               Page   94




 4240  B176     A3          			.byte	0a3h
 4241                     	;
 4242  B177     B8          			.byte	0b8h
 4243                     	;
 4244  B178     00          			.byte	000h
 4245                     	;
 4246  B179     00          			.byte	000h
 4247                     	;
 4248  B17A     00          			.byte	000h
 4249                     	;
 4250  B17B     00          			.byte	000h
 4251                     	;
 4252  B17C     1F          			.byte	01fh
 4253                     	;
 4254  B17D     03          			.byte	003h
 4255                     	;
 4256  B17E     80          			.byte	080h
 4257                     	;
 4258  B17F     00          			.byte	000h
 4259                     	;
 4260  B180     00          			.byte	000h
 4261                     	;
 4262  B181     00          			.byte	000h
 4263                     	;
 4264  B182     77          			.byte	077h
 4265                     	;
 4266  B183     05          			.byte	005h
 4267                     	;
 4268  B184     A2          			.byte	0a2h
 4269                     	;
 4270  B185     A8          			.byte	0a8h
 4271                     	;
 4272  B186     00          			.byte	000h
 4273                     	;
 4274  B187     00          			.byte	000h
 4275                     	;
 4276  B188     00          			.byte	000h
 4277                     	;
 4278  B189     00          			.byte	000h
 4279                     	;
 4280  B18A     0F          			.byte	00fh
 4281                     	;
 4282  B18B     FC          			.byte	0fch
 4283                     	;
 4284  B18C     00          			.byte	000h
 4285                     	;
 4286  B18D     00          			.byte	000h
 4287                     	;
 4288  B18E     00          			.byte	000h
 4289                     	;
 4290  B18F     00          			.byte	000h
 4291                     	;
 4292  B190     55          			.byte	055h
 4293                     	;
 4294  B191     05          			.byte	005h
 4295                     	;
 4296  B192     A2          			.byte	0a2h
  Sun Jan 12 14:21:22 2003                                                                                               Page   95




 4297                     	;
 4298  B193     A8          			.byte	0a8h
 4299                     	;
 4300  B194     00          			.byte	000h
 4301                     	;
 4302  B195     00          			.byte	000h
 4303                     	;
 4304  B196     00          			.byte	000h
 4305                     	;
 4306  B197     00          			.byte	000h
 4307                     	;
 4308  B198     03          			.byte	003h
 4309                     	;
 4310  B199     F0          			.byte	0f0h
 4311                     	;
 4312  B19A     00          			.byte	000h
 4313                     	;
 4314  B19B     00          			.byte	000h
 4315                     	;
 4316  B19C     00          			.byte	000h
 4317                     	;
 4318  B19D     00          			.byte	000h
 4319                     	;
 4320  B19E     55          			.byte	055h
 4321                     	;
 4322  B19F     05          			.byte	005h
 4323                     	;
 4324  B1A0     A3          			.byte	0a3h
 4325                     	;
 4326  B1A1     28          			.byte	028h
 4327                     	;
 4328  B1A2     00          			.byte	000h
 4329                     	;
 4330  B1A3     00          			.byte	000h
 4331                     	;
 4332  B1A4     00          			.byte	000h
 4333                     	;
 4334  B1A5     00          			.byte	000h
 4335                     	;
 4336  B1A6     00          			.byte	000h
 4337                     	;
 4338  B1A7     00          			.byte	000h
 4339                     	;
 4340  B1A8     00          			.byte	000h
 4341                     	;
 4342  B1A9     00          			.byte	000h
 4343                     	;
 4344  B1AA     00          			.byte	000h
 4345                     	;
 4346  B1AB     00          			.byte	000h
 4347                     	;
 4348  B1AC     65          			.byte	065h
 4349                     	;
 4350  B1AD     05          			.byte	005h
 4351                     	;
 4352  B1AE     A2          			.byte	0a2h
 4353                     	;
  Sun Jan 12 14:21:22 2003                                                                                               Page   96




 4354  B1AF     48          			.byte	048h
 4355                     	;
 4356  B1B0     00          			.byte	000h
 4357                     	;
 4358  B1B1     00          			.byte	000h
 4359                     	;
 4360  B1B2     00          			.byte	000h
 4361                     	;
 4362  B1B3     00          			.byte	000h
 4363                     	;
 4364  B1B4     00          			.byte	000h
 4365                     	;
 4366  B1B5     00          			.byte	000h
 4367                     	;
 4368  B1B6     00          			.byte	000h
 4369                     	;
 4370  B1B7     00          			.byte	000h
 4371                     	;
 4372  B1B8     00          			.byte	000h
 4373                     	;
 4374  B1B9     00          			.byte	000h
 4375                     	;
 4376  B1BA     49          			.byte	049h
 4377                     	;
 4378  B1BB     05          			.byte	005h
 4379                     	;
 4380  B1BC     A2          			.byte	0a2h
 4381                     	;
 4382  B1BD     98          			.byte	098h
 4383                     	;
 4384  B1BE     00          			.byte	000h
 4385                     	;
 4386  B1BF     00          			.byte	000h
 4387                     	;
 4388  B1C0     00          			.byte	000h
 4389                     	;
 4390  B1C1     00          			.byte	000h
 4391                     	;
 4392  B1C2     00          			.byte	000h
 4393                     	;
 4394  B1C3     00          			.byte	000h
 4395                     	;
 4396  B1C4     00          			.byte	000h
 4397                     	;
 4398  B1C5     00          			.byte	000h
 4399                     	;
 4400  B1C6     00          			.byte	000h
 4401                     	;
 4402  B1C7     00          			.byte	000h
 4403                     	;
 4404  B1C8     53          			.byte	053h
 4405                     	;
 4406  B1C9     05          			.byte	005h
 4407                     	;
 4408  B1CA     A0          			.byte	0a0h
 4409                     	;
 4410  B1CB     00          			.byte	000h
  Sun Jan 12 14:21:22 2003                                                                                               Page   97




 4411                     	;
 4412  B1CC     00          			.byte	000h
 4413                     	;
 4414  B1CD     00          			.byte	000h
 4415                     	;
 4416  B1CE     00          			.byte	000h
 4417                     	;
 4418  B1CF     00          			.byte	000h
 4419                     	;
 4420  B1D0     00          			.byte	000h
 4421                     	;
 4422  B1D1     00          			.byte	000h
 4423                     	;
 4424  B1D2     00          			.byte	000h
 4425                     	;
 4426  B1D3     00          			.byte	000h
 4427                     	;
 4428  B1D4     00          			.byte	000h
 4429                     	;
 4430  B1D5     00          			.byte	000h
 4431                     	;
 4432  B1D6     00          			.byte	000h
 4433                     	;
 4434  B1D7     05          			.byte	005h
 4435                     	;
 4436  B1D8     A7          			.byte	0a7h
 4437                     	;
 4438  B1D9     FF          			.byte	0ffh
 4439                     	;
 4440  B1DA     FF          			.byte	0ffh
 4441                     	;
 4442  B1DB     FF          			.byte	0ffh
 4443                     	;
 4444  B1DC     FF          			.byte	0ffh
 4445                     	;
 4446  B1DD     00          			.byte	000h
 4447                     	;
 4448  B1DE     00          			.byte	000h
 4449                     	;
 4450  B1DF     00          			.byte	000h
 4451                     	;
 4452  B1E0     01          			.byte	001h
 4453                     	;
 4454  B1E1     FF          			.byte	0ffh
 4455                     	;
 4456  B1E2     FF          			.byte	0ffh
 4457                     	;
 4458  B1E3     FF          			.byte	0ffh
 4459                     	;
 4460  B1E4     FF          			.byte	0ffh
 4461                     	;
 4462  B1E5     C5          			.byte	0c5h
 4463                     	;
 4464  B1E6     A0          			.byte	0a0h
 4465                     	;
 4466  B1E7     00          			.byte	000h
 4467                     	;
  Sun Jan 12 14:21:22 2003                                                                                               Page   98




 4468  B1E8     00          			.byte	000h
 4469                     	;
 4470  B1E9     00          			.byte	000h
 4471                     	;
 4472  B1EA     00          			.byte	000h
 4473                     	;
 4474  B1EB     00          			.byte	000h
 4475                     	;
 4476  B1EC     00          			.byte	000h
 4477                     	;
 4478  B1ED     00          			.byte	000h
 4479                     	;
 4480  B1EE     00          			.byte	000h
 4481                     	;
 4482  B1EF     00          			.byte	000h
 4483                     	;
 4484  B1F0     00          			.byte	000h
 4485                     	;
 4486  B1F1     00          			.byte	000h
 4487                     	;
 4488  B1F2     00          			.byte	000h
 4489                     	;
 4490  B1F3     05          			.byte	005h
 4491                     	;
 4492  B1F4     A0          			.byte	0a0h
 4493                     	;
 4494  B1F5     00          			.byte	000h
 4495                     	;
 4496  B1F6     00          			.byte	000h
 4497                     	;
 4498  B1F7     00          			.byte	000h
 4499                     	;
 4500  B1F8     00          			.byte	000h
 4501                     	;
 4502  B1F9     00          			.byte	000h
 4503                     	;
 4504  B1FA     00          			.byte	000h
 4505                     	;
 4506  B1FB     00          			.byte	000h
 4507                     	;
 4508  B1FC     00          			.byte	000h
 4509                     	;
 4510  B1FD     00          			.byte	000h
 4511                     	;
 4512  B1FE     00          			.byte	000h
 4513                     	;
 4514  B1FF     00          			.byte	000h
 4515                     	;
 4516  B200     00          			.byte	000h
 4517                     	;
 4518  B201     05          			.byte	005h
 4519                     	;
 4520  B202     A0          			.byte	0a0h
 4521                     	;
 4522  B203     00          			.byte	000h
 4523                     	;
 4524  B204     00          			.byte	000h
  Sun Jan 12 14:21:22 2003                                                                                               Page   99




 4525                     	;
 4526  B205     00          			.byte	000h
 4527                     	;
 4528  B206     00          			.byte	000h
 4529                     	;
 4530  B207     00          			.byte	000h
 4531                     	;
 4532  B208     00          			.byte	000h
 4533                     	;
 4534  B209     00          			.byte	000h
 4535                     	;
 4536  B20A     00          			.byte	000h
 4537                     	;
 4538  B20B     00          			.byte	000h
 4539                     	;
 4540  B20C     00          			.byte	000h
 4541                     	;
 4542  B20D     00          			.byte	000h
 4543                     	;
 4544  B20E     00          			.byte	000h
 4545                     	;
 4546  B20F     05          			.byte	005h
 4547                     	;
 4548  B210     BF          			.byte	0bfh
 4549                     	;
 4550  B211     FF          			.byte	0ffh
 4551                     	;
 4552  B212     FF          			.byte	0ffh
 4553                     	;
 4554  B213     FF          			.byte	0ffh
 4555                     	;
 4556  B214     FF          			.byte	0ffh
 4557                     	;
 4558  B215     FF          			.byte	0ffh
 4559                     	;
 4560  B216     FF          			.byte	0ffh
 4561                     	;
 4562  B217     FF          			.byte	0ffh
 4563                     	;
 4564  B218     FF          			.byte	0ffh
 4565                     	;
 4566  B219     FF          			.byte	0ffh
 4567                     	;
 4568  B21A     FF          			.byte	0ffh
 4569                     	;
 4570  B21B     FF          			.byte	0ffh
 4571                     	;
 4572  B21C     FF          			.byte	0ffh
 4573                     	;
 4574  B21D     FD          			.byte	0fdh
 4575                     	;
 4576  B21E     80          			.byte	080h
 4577                     	;
 4578  B21F     00          			.byte	000h
 4579                     	;
 4580  B220     00          			.byte	000h
 4581                     	;
  Sun Jan 12 14:21:22 2003                                                                                               Page  100




 4582  B221     00          			.byte	000h
 4583                     	;
 4584  B222     00          			.byte	000h
 4585                     	;
 4586  B223     00          			.byte	000h
 4587                     	;
 4588  B224     00          			.byte	000h
 4589                     	;
 4590  B225     00          			.byte	000h
 4591                     	;
 4592  B226     00          			.byte	000h
 4593                     	;
 4594  B227     00          			.byte	000h
 4595                     	;
 4596  B228     00          			.byte	000h
 4597                     	;
 4598  B229     00          			.byte	000h
 4599                     	;
 4600  B22A     00          			.byte	000h
 4601                     	;
 4602  B22B     01          			.byte	001h
 4603                     	;
 4604  B22C     FF          			.byte	0ffh
 4605                     	;
 4606  B22D     FF          			.byte	0ffh
 4607                     	;
 4608  B22E     FF          			.byte	0ffh
 4609                     	;
 4610  B22F     FF          			.byte	0ffh
 4611                     	;
 4612  B230     FF          			.byte	0ffh
 4613                     	;
 4614  B231     FF          			.byte	0ffh
 4615                     	;
 4616  B232     FF          			.byte	0ffh
 4617                     	;
 4618  B233     FF          			.byte	0ffh
 4619                     	;
 4620  B234     FF          			.byte	0ffh
 4621                     	;
 4622  B235     FF          			.byte	0ffh
 4623                     	;
 4624  B236     FF          			.byte	0ffh
 4625                     	;
 4626  B237     FF          			.byte	0ffh
 4627                     	;
 4628  B238     FF          			.byte	0ffh
 4629                     	;
 4630  B239     FF          			.byte	0ffh
 4631                     	;
 4632                     			.attrib	_GameMTBattlePad,635,v,c,u,g,d,c,d,c,03b8h,00h
 4633                     	;
 4634  B23A     08          	_GameMTChar:	.byte	008h
 4635                     	;
 4636  B23B     00          			.byte	000h
 4637                     	;
 4638  B23C     1C          			.byte	01ch
  Sun Jan 12 14:21:22 2003                                                                                               Page  101




 4639                     	;
 4640  B23D     00          			.byte	000h
 4641                     	;
 4642  B23E     36          			.byte	036h
 4643                     	;
 4644  B23F     00          			.byte	000h
 4645                     	;
 4646  B240     7F          			.byte	07fh
 4647                     	;
 4648  B241     00          			.byte	000h
 4649                     	;
 4650  B242     C1          			.byte	0c1h
 4651                     	;
 4652  B243     80          			.byte	080h
 4653                     	;
 4654  B244     77          			.byte	077h
 4655                     	;
 4656  B245     00          			.byte	000h
 4657                     	;
 4658  B246     55          			.byte	055h
 4659                     	;
 4660  B247     00          			.byte	000h
 4661                     	;
 4662  B248     55          			.byte	055h
 4663                     	;
 4664  B249     00          			.byte	000h
 4665                     	;
 4666  B24A     77          			.byte	077h
 4667                     	;
 4668  B24B     00          			.byte	000h
 4669                     	;
 4670  B24C     04          			.byte	004h
 4671                     	;
 4672  B24D     00          			.byte	000h
 4673                     	;
 4674  B24E     04          			.byte	004h
 4675                     	;
 4676  B24F     00          			.byte	000h
 4677                     	;
 4678  B250     08          			.byte	008h
 4679                     	;
 4680  B251     00          			.byte	000h
 4681                     	;
 4682  B252     FF          			.byte	0ffh
 4683                     	;
 4684  B253     80          			.byte	080h
 4685                     	;
 4686  B254     5A          			.byte	05ah
 4687                     	;
 4688  B255     00          			.byte	000h
 4689                     	;
 4690  B256     6A          			.byte	06ah
 4691                     	;
 4692  B257     00          			.byte	000h
 4693                     	;
 4694  B258     4E          			.byte	04eh
 4695                     	;
  Sun Jan 12 14:21:22 2003                                                                                               Page  102




 4696  B259     00          			.byte	000h
 4697                     	;
 4698  B25A     64          			.byte	064h
 4699                     	;
 4700  B25B     00          			.byte	000h
 4701                     	;
 4702  B25C     C6          			.byte	0c6h
 4703                     	;
 4704  B25D     00          			.byte	000h
 4705                     	;
 4706  B25E     09          			.byte	009h
 4707                     	;
 4708  B25F     00          			.byte	000h
 4709                     	;
 4710  B260     11          			.byte	011h
 4711                     	;
 4712  B261     80          			.byte	080h
 4713                     	;
 4714  B262     E4          			.byte	0e4h
 4715                     	;
 4716  B263     00          			.byte	000h
 4717                     	;
 4718  B264     A4          			.byte	0a4h
 4719                     	;
 4720  B265     00          			.byte	000h
 4721                     	;
 4722  B266     BF          			.byte	0bfh
 4723                     	;
 4724  B267     80          			.byte	080h
 4725                     	;
 4726  B268     C8          			.byte	0c8h
 4727                     	;
 4728  B269     00          			.byte	000h
 4729                     	;
 4730  B26A     EF          			.byte	0efh
 4731                     	;
 4732  B26B     00          			.byte	000h
 4733                     	;
 4734  B26C     A9          			.byte	0a9h
 4735                     	;
 4736  B26D     00          			.byte	000h
 4737                     	;
 4738  B26E     A9          			.byte	0a9h
 4739                     	;
 4740  B26F     00          			.byte	000h
 4741                     	;
 4742  B270     C9          			.byte	0c9h
 4743                     	;
 4744  B271     00          			.byte	000h
 4745                     	;
 4746  B272     91          			.byte	091h
 4747                     	;
 4748  B273     00          			.byte	000h
 4749                     	;
 4750  B274     A3          			.byte	0a3h
 4751                     	;
 4752  B275     00          			.byte	000h
  Sun Jan 12 14:21:22 2003                                                                                               Page  103




 4753                     	;
 4754  B276     00          			.byte	000h
 4755                     	;
 4756  B277     00          			.byte	000h
 4757                     	;
 4758  B278     08          			.byte	008h
 4759                     	;
 4760  B279     00          			.byte	000h
 4761                     	;
 4762  B27A     1C          			.byte	01ch
 4763                     	;
 4764  B27B     00          			.byte	000h
 4765                     	;
 4766  B27C     36          			.byte	036h
 4767                     	;
 4768  B27D     00          			.byte	000h
 4769                     	;
 4770  B27E     7F          			.byte	07fh
 4771                     	;
 4772  B27F     00          			.byte	000h
 4773                     	;
 4774  B280     C9          			.byte	0c9h
 4775                     	;
 4776  B281     80          			.byte	080h
 4777                     	;
 4778  B282     1C          			.byte	01ch
 4779                     	;
 4780  B283     00          			.byte	000h
 4781                     	;
 4782  B284     2A          			.byte	02ah
 4783                     	;
 4784  B285     00          			.byte	000h
 4785                     	;
 4786  B286     1C          			.byte	01ch
 4787                     	;
 4788  B287     00          			.byte	000h
 4789                     	;
 4790  B288     7F          			.byte	07fh
 4791                     	;
 4792  B289     00          			.byte	000h
 4793                     	;
 4794  B28A     00          			.byte	000h
 4795                     	;
 4796  B28B     00          			.byte	000h
 4797                     	;
 4798  B28C     2E          			.byte	02eh
 4799                     	;
 4800  B28D     00          			.byte	000h
 4801                     	;
 4802  B28E     42          			.byte	042h
 4803                     	;
 4804  B28F     00          			.byte	000h
 4805                     	;
 4806  B290     84          			.byte	084h
 4807                     	;
 4808  B291     00          			.byte	000h
 4809                     	;
  Sun Jan 12 14:21:22 2003                                                                                               Page  104




 4810  B292     EA          			.byte	0eah
 4811                     	;
 4812  B293     00          			.byte	000h
 4813                     	;
 4814  B294     51          			.byte	051h
 4815                     	;
 4816  B295     00          			.byte	000h
 4817                     	;
 4818  B296     8E          			.byte	08eh
 4819                     	;
 4820  B297     00          			.byte	000h
 4821                     	;
 4822  B298     E4          			.byte	0e4h
 4823                     	;
 4824  B299     00          			.byte	000h
 4825                     	;
 4826  B29A     24          			.byte	024h
 4827                     	;
 4828  B29B     00          			.byte	000h
 4829                     	;
 4830  B29C     DF          			.byte	0dfh
 4831                     	;
 4832  B29D     00          			.byte	000h
 4833                     	;
 4834  B29E     2F          			.byte	02fh
 4835                     	;
 4836  B29F     80          			.byte	080h
 4837                     	;
 4838  B2A0     28          			.byte	028h
 4839                     	;
 4840  B2A1     80          			.byte	080h
 4841                     	;
 4842  B2A2     FF          			.byte	0ffh
 4843                     	;
 4844  B2A3     80          			.byte	080h
 4845                     	;
 4846  B2A4     20          			.byte	020h
 4847                     	;
 4848  B2A5     00          			.byte	000h
 4849                     	;
 4850  B2A6     3F          			.byte	03fh
 4851                     	;
 4852  B2A7     80          			.byte	080h
 4853                     	;
 4854  B2A8     28          			.byte	028h
 4855                     	;
 4856  B2A9     80          			.byte	080h
 4857                     	;
 4858  B2AA     6A          			.byte	06ah
 4859                     	;
 4860  B2AB     80          			.byte	080h
 4861                     	;
 4862  B2AC     AA          			.byte	0aah
 4863                     	;
 4864  B2AD     80          			.byte	080h
 4865                     	;
 4866  B2AE     25          			.byte	025h
  Sun Jan 12 14:21:22 2003                                                                                               Page  105




 4867                     	;
 4868  B2AF     00          			.byte	000h
 4869                     	;
 4870  B2B0     68          			.byte	068h
 4871                     	;
 4872  B2B1     80          			.byte	080h
 4873                     	;
 4874  B2B2     08          			.byte	008h
 4875                     	;
 4876  B2B3     00          			.byte	000h
 4877                     	;
 4878  B2B4     28          			.byte	028h
 4879                     	;
 4880  B2B5     00          			.byte	000h
 4881                     	;
 4882  B2B6     3E          			.byte	03eh
 4883                     	;
 4884  B2B7     00          			.byte	000h
 4885                     	;
 4886  B2B8     48          			.byte	048h
 4887                     	;
 4888  B2B9     00          			.byte	000h
 4889                     	;
 4890  B2BA     08          			.byte	008h
 4891                     	;
 4892  B2BB     00          			.byte	000h
 4893                     	;
 4894  B2BC     FF          			.byte	0ffh
 4895                     	;
 4896  B2BD     80          			.byte	080h
 4897                     	;
 4898  B2BE     14          			.byte	014h
 4899                     	;
 4900  B2BF     00          			.byte	000h
 4901                     	;
 4902  B2C0     14          			.byte	014h
 4903                     	;
 4904  B2C1     00          			.byte	000h
 4905                     	;
 4906  B2C2     22          			.byte	022h
 4907                     	;
 4908  B2C3     00          			.byte	000h
 4909                     	;
 4910  B2C4     41          			.byte	041h
 4911                     	;
 4912  B2C5     80          			.byte	080h
 4913                     	;
 4914  B2C6     10          			.byte	010h
 4915                     	;
 4916  B2C7     00          			.byte	000h
 4917                     	;
 4918  B2C8     11          			.byte	011h
 4919                     	;
 4920  B2C9     00          			.byte	000h
 4921                     	;
 4922  B2CA     3F          			.byte	03fh
 4923                     	;
  Sun Jan 12 14:21:22 2003                                                                                               Page  106




 4924  B2CB     00          			.byte	000h
 4925                     	;
 4926  B2CC     52          			.byte	052h
 4927                     	;
 4928  B2CD     00          			.byte	000h
 4929                     	;
 4930  B2CE     94          			.byte	094h
 4931                     	;
 4932  B2CF     00          			.byte	000h
 4933                     	;
 4934  B2D0     08          			.byte	008h
 4935                     	;
 4936  B2D1     00          			.byte	000h
 4937                     	;
 4938  B2D2     3F          			.byte	03fh
 4939                     	;
 4940  B2D3     00          			.byte	000h
 4941                     	;
 4942  B2D4     E1          			.byte	0e1h
 4943                     	;
 4944  B2D5     00          			.byte	000h
 4945                     	;
 4946  B2D6     21          			.byte	021h
 4947                     	;
 4948  B2D7     00          			.byte	000h
 4949                     	;
 4950  B2D8     3F          			.byte	03fh
 4951                     	;
 4952  B2D9     00          			.byte	000h
 4953                     	;
 4954  B2DA     14          			.byte	014h
 4955                     	;
 4956  B2DB     00          			.byte	000h
 4957                     	;
 4958  B2DC     64          			.byte	064h
 4959                     	;
 4960  B2DD     00          			.byte	000h
 4961                     	;
 4962  B2DE     2B          			.byte	02bh
 4963                     	;
 4964  B2DF     80          			.byte	080h
 4965                     	;
 4966  B2E0     F2          			.byte	0f2h
 4967                     	;
 4968  B2E1     80          			.byte	080h
 4969                     	;
 4970  B2E2     22          			.byte	022h
 4971                     	;
 4972  B2E3     00          			.byte	000h
 4973                     	;
 4974  B2E4     77          			.byte	077h
 4975                     	;
 4976  B2E5     00          			.byte	000h
 4977                     	;
 4978  B2E6     6A          			.byte	06ah
 4979                     	;
 4980  B2E7     80          			.byte	080h
  Sun Jan 12 14:21:22 2003                                                                                               Page  107




 4981                     	;
 4982  B2E8     AA          			.byte	0aah
 4983                     	;
 4984  B2E9     80          			.byte	080h
 4985                     	;
 4986  B2EA     22          			.byte	022h
 4987                     	;
 4988  B2EB     00          			.byte	000h
 4989                     	;
 4990  B2EC     26          			.byte	026h
 4991                     	;
 4992  B2ED     00          			.byte	000h
 4993                     	;
 4994                     			.attrib	_GameMTChar,646,v,c,u,g,d,c,d,c,01h,014h,00h
 4995                     	;
 4996  B2EE     10          	_GameMTNotice:	.byte	010h
 4997                     	;
 4998  B2EF     38          			.byte	038h
 4999                     	;
 5000  B2F0     7C          			.byte	07ch
 5001                     	;
 5002  B2F1     FE          			.byte	0feh
 5003                     	;
 5004  B2F2     FE          			.byte	0feh
 5005                     	;
 5006  B2F3     7C          			.byte	07ch
 5007                     	;
 5008  B2F4     38          			.byte	038h
 5009                     	;
 5010  B2F5     10          			.byte	010h
 5011                     	;
 5012                     			.attrib	_GameMTNotice,648,v,c,u,g,d,c,d,c,08h,00h
 5013                     	;
 5014  B2F5                 			.i_align
 5015  B2F6     1405        	_GameMTMonData:	.word	1300
 5016                     	;
 5017  B2F8     2C01        			.word	300
 5018                     	;
 5019  B2FA     9600        			.word	150
 5020                     	;
 5021  B2FC     2800        			.word	40
 5022                     	;
 5023  B2FE     1E00        			.word	30
 5024                     	;
 5025  B300     C201        			.word	450
 5026                     	;
 5027  B302     9600        			.word	150
 5028                     	;
 5029  B304     5A00        			.word	90
 5030                     	;
 5031  B306     1600        			.word	22
 5032                     	;
 5033  B308     1300        			.word	19
 5034                     	;
 5035  B30A     9600        			.word	150
 5036                     	;
 5037  B30C     4100        			.word	65
  Sun Jan 12 14:21:22 2003                                                                                               Page  108




 5038                     	;
 5039  B30E     1E00        			.word	30
 5040                     	;
 5041  B310     0A00        			.word	10
 5042                     	;
 5043  B312     0800        			.word	8
 5044                     	;
 5045  B314     4600        			.word	70
 5046                     	;
 5047  B316     0F00        			.word	15
 5048                     	;
 5049  B318     0200        			.word	2
 5050                     	;
 5051  B31A     0200        			.word	2
 5052                     	;
 5053  B31C     0100        			.word	1
 5054                     	;
 5055  B31E     6400        			.word	100
 5056                     	;
 5057  B320     C800        			.word	200
 5058                     	;
 5059  B322     6E00        			.word	110
 5060                     	;
 5061  B324     1E00        			.word	30
 5062                     	;
 5063  B326     1900        			.word	25
 5064                     	;
 5065  B328     DC05        			.word	1500
 5066                     	;
 5067  B32A     3002        			.word	560
 5068                     	;
 5069  B32C     CC01        			.word	460
 5070                     	;
 5071  B32E     3C00        			.word	60
 5072                     	;
 5073  B330     3200        			.word	50
 5074                     	;
 5075  B332     BC02        			.word	700
 5076                     	;
 5077  B334     FA00        			.word	250
 5078                     	;
 5079  B336     7D00        			.word	125
 5080                     	;
 5081  B338     2000        			.word	32
 5082                     	;
 5083  B33A     1900        			.word	25
 5084                     	;
 5085  B33C     C800        			.word	200
 5086                     	;
 5087  B33E     2300        			.word	35
 5088                     	;
 5089  B340     0A00        			.word	10
 5090                     	;
 5091  B342     0500        			.word	5
 5092                     	;
 5093  B344     0300        			.word	3
 5094                     	;
  Sun Jan 12 14:21:22 2003                                                                                               Page  109




 5095  B346     F401        			.word	500
 5096                     	;
 5097  B348     9001        			.word	400
 5098                     	;
 5099  B34A     0401        			.word	260
 5100                     	;
 5101  B34C     2F00        			.word	47
 5102                     	;
 5103  B34E     2300        			.word	35
 5104                     	;
 5105  B350     983A        			.word	15000
 5106                     	;
 5107  B352     E803        			.word	1000
 5108                     	;
 5109  B354     E803        			.word	1000
 5110                     	;
 5111  B356     6400        			.word	100
 5112                     	;
 5113  B358     6400        			.word	100
 5114                     	;
 5115  B35A     8403        			.word	900
 5116                     	;
 5117  B35C     EE02        			.word	750
 5118                     	;
 5119  B35E     8A02        			.word	650
 5120                     	;
 5121  B360     4D00        			.word	77
 5122                     	;
 5123  B362     3C00        			.word	60
 5124                     	;
 5125  B364     5203        			.word	850
 5126                     	;
 5127  B366     5E01        			.word	350
 5128                     	;
 5129  B368     C800        			.word	200
 5130                     	;
 5131  B36A     2D00        			.word	45
 5132                     	;
 5133  B36C     2300        			.word	35
 5134                     	;
 5135  B36E     9001        			.word	400
 5136                     	;
 5137  B370     5A00        			.word	90
 5138                     	;
 5139  B372     3200        			.word	50
 5140                     	;
 5141  B374     0F00        			.word	15
 5142                     	;
 5143  B376     0C00        			.word	12
 5144                     	;
 5145  B378     6E00        			.word	110
 5146                     	;
 5147  B37A     1900        			.word	25
 5148                     	;
 5149  B37C     0500        			.word	5
 5150                     	;
 5151  B37E     0500        			.word	5
  Sun Jan 12 14:21:22 2003                                                                                               Page  110




 5152                     	;
 5153  B380     0300        			.word	3
 5154                     	;
 5155  B382     9600        			.word	150
 5156                     	;
 5157  B384     2800        			.word	40
 5158                     	;
 5159  B386     1400        			.word	20
 5160                     	;
 5161  B388     0800        			.word	8
 5162                     	;
 5163  B38A     0500        			.word	5
 5164                     	;
 5165  B38C     DC05        			.word	1500
 5166                     	;
 5167  B38E     3E03        			.word	830
 5168                     	;
 5169  B390     DA02        			.word	730
 5170                     	;
 5171  B392     5000        			.word	80
 5172                     	;
 5173  B394     4100        			.word	65
 5174                     	;
 5175  B396     B004        			.word	1200
 5176                     	;
 5177  B398     B603        			.word	950
 5178                     	;
 5179  B39A     8403        			.word	900
 5180                     	;
 5181  B39C     5800        			.word	88
 5182                     	;
 5183  B39E     4B00        			.word	75
 5184                     	;
 5185  B3A0     FA00        			.word	250
 5186                     	;
 5187  B3A2     7800        			.word	120
 5188                     	;
 5189  B3A4     4600        			.word	70
 5190                     	;
 5191  B3A6     1400        			.word	20
 5192                     	;
 5193  B3A8     0F00        			.word	15
 5194                     	;
 5195  B3AA     C409        			.word	2500
 5196                     	;
 5197  B3AC     8403        			.word	900
 5198                     	;
 5199  B3AE     5203        			.word	850
 5200                     	;
 5201  B3B0     5400        			.word	84
 5202                     	;
 5203  B3B2     4600        			.word	70
 5204                     	;
 5205  B3B4     A861        			.word	25000
 5206                     	;
 5207  B3B6     DC05        			.word	1500
 5208                     	;
  Sun Jan 12 14:21:22 2003                                                                                               Page  111




 5209  B3B8     B004        			.word	1200
 5210                     	;
 5211  B3BA     9600        			.word	150
 5212                     	;
 5213  B3BC     7800        			.word	120
 5214                     	;
 5215  B3BE     E204        			.word	1250
 5216                     	;
 5217  B3C0     F401        			.word	500
 5218                     	;
 5219  B3C2     9001        			.word	400
 5220                     	;
 5221  B3C4     3700        			.word	55
 5222                     	;
 5223  B3C6     2D00        			.word	45
 5224                     	;
 5225  B3C8     D007        			.word	2000
 5226                     	;
 5227  B3CA     A802        			.word	680
 5228                     	;
 5229  B3CC     4E02        			.word	590
 5230                     	;
 5231  B3CE     4600        			.word	70
 5232                     	;
 5233  B3D0     3700        			.word	55
 5234                     	;
 5235  B3D2     F401        			.word	500
 5236                     	;
 5237  B3D4     7300        			.word	115
 5238                     	;
 5239  B3D6     4100        			.word	65
 5240                     	;
 5241  B3D8     0F00        			.word	15
 5242                     	;
 5243  B3DA     0F00        			.word	15
 5244                     	;
 5245  B3DC     2C01        			.word	300
 5246                     	;
 5247  B3DE     4B00        			.word	75
 5248                     	;
 5249  B3E0     2D00        			.word	45
 5250                     	;
 5251  B3E2     0D00        			.word	13
 5252                     	;
 5253  B3E4     0A00        			.word	10
 5254                     	;
 5255  B3E6     8403        			.word	900
 5256                     	;
 5257  B3E8     C201        			.word	450
 5258                     	;
 5259  B3EA     4A01        			.word	330
 5260                     	;
 5261  B3EC     3200        			.word	50
 5262                     	;
 5263  B3EE     2800        			.word	40
 5264                     	;
 5265  B3F0     B004        			.word	1200
  Sun Jan 12 14:21:22 2003                                                                                               Page  112




 5266                     	;
 5267  B3F2     6C02        			.word	620
 5268                     	;
 5269  B3F4     0802        			.word	520
 5270                     	;
 5271  B3F6     4100        			.word	65
 5272                     	;
 5273  B3F8     3200        			.word	50
 5274                     	;
 5275  B3FA     2602        			.word	550
 5276                     	;
 5277  B3FC     AA00        			.word	170
 5278                     	;
 5279  B3FE     6400        			.word	100
 5280                     	;
 5281  B400     1900        			.word	25
 5282                     	;
 5283  B402     1400        			.word	20
 5284                     	;
 5285  B404     6400        			.word	100
 5286                     	;
 5287  B406     1400        			.word	20
 5288                     	;
 5289  B408     0500        			.word	5
 5290                     	;
 5291  B40A     0300        			.word	3
 5292                     	;
 5293  B40C     0200        			.word	2
 5294                     	;
 5295  B40E     7D00        			.word	125
 5296                     	;
 5297  B410     3200        			.word	50
 5298                     	;
 5299  B412     1900        			.word	25
 5300                     	;
 5301  B414     0A00        			.word	10
 5302                     	;
 5303  B416     0700        			.word	7
 5304                     	;
 5305  B418     3200        			.word	50
 5306                     	;
 5307  B41A     1400        			.word	20
 5308                     	;
 5309  B41C     0100        			.word	1
 5310                     	;
 5311  B41E     0100        			.word	1
 5312                     	;
 5313  B420     0100        			.word	1
 5314                     	;
 5315  B422     1C0C        			.word	3100
 5316                     	;
 5317  B424     1A04        			.word	1050
 5318                     	;
 5319  B426     B603        			.word	950
 5320                     	;
 5321  B428     5C00        			.word	92
 5322                     	;
  Sun Jan 12 14:21:22 2003                                                                                               Page  113




 5323  B42A     5000        			.word	80
 5324                     	;
 5325  B42C     204E        			.word	20000
 5326                     	;
 5327  B42E     3505        			.word	1333
 5328                     	;
 5329  B430     3505        			.word	1333
 5330                     	;
 5331  B432     6400        			.word	100
 5332                     	;
 5333  B434     6400        			.word	100
 5334                     	;
 5335  B436     7C92        			.word	37500
 5336                     	;
 5337  B438     CA08        			.word	2250
 5338                     	;
 5339  B43A     0807        			.word	1800
 5340                     	;
 5341  B43C     9600        			.word	150
 5342                     	;
 5343  B43E     7800        			.word	120
 5344                     	;
 5345                     			.attrib	_GameMTMonData,683,v,i,u,g,d,c,d,c,01h,05h,00h
 5346                     	;
 5347  B440     00          	_GameMTUnitPic:	.byte	000h
 5348                     	;
 5349  B441     00          			.byte	000h
 5350                     	;
 5351  B442     00          			.byte	000h
 5352                     	;
 5353  B443     00          			.byte	000h
 5354                     	;
 5355  B444     00          			.byte	000h
 5356                     	;
 5357  B445     00          			.byte	000h
 5358                     	;
 5359  B446     00          			.byte	000h
 5360                     	;
 5361  B447     00          			.byte	000h
 5362                     	;
 5363  B448     00          			.byte	000h
 5364                     	;
 5365  B449     00          			.byte	000h
 5366                     	;
 5367  B44A     00          			.byte	000h
 5368                     	;
 5369  B44B     00          			.byte	000h
 5370                     	;
 5371  B44C     00          			.byte	000h
 5372                     	;
 5373  B44D     00          			.byte	000h
 5374                     	;
 5375  B44E     00          			.byte	000h
 5376                     	;
 5377  B44F     00          			.byte	000h
 5378                     	;
 5379  B450     00          			.byte	000h
  Sun Jan 12 14:21:22 2003                                                                                               Page  114




 5380                     	;
 5381  B451     00          			.byte	000h
 5382                     	;
 5383  B452     00          			.byte	000h
 5384                     	;
 5385  B453     00          			.byte	000h
 5386                     	;
 5387  B454     00          			.byte	000h
 5388                     	;
 5389  B455     00          			.byte	000h
 5390                     	;
 5391  B456     00          			.byte	000h
 5392                     	;
 5393  B457     00          			.byte	000h
 5394                     	;
 5395  B458     00          			.byte	000h
 5396                     	;
 5397  B459     00          			.byte	000h
 5398                     	;
 5399  B45A     00          			.byte	000h
 5400                     	;
 5401  B45B     00          			.byte	000h
 5402                     	;
 5403  B45C     00          			.byte	000h
 5404                     	;
 5405  B45D     00          			.byte	000h
 5406                     	;
 5407  B45E     00          			.byte	000h
 5408                     	;
 5409  B45F     00          			.byte	000h
 5410                     	;
 5411  B460     7C          			.byte	07ch
 5412                     	;
 5413  B461     3E          			.byte	03eh
 5414                     	;
 5415  B462     FE          			.byte	0feh
 5416                     	;
 5417  B463     7F          			.byte	07fh
 5418                     	;
 5419  B464     86          			.byte	086h
 5420                     	;
 5421  B465     61          			.byte	061h
 5422                     	;
 5423  B466     B6          			.byte	0b6h
 5424                     	;
 5425  B467     6D          			.byte	06dh
 5426                     	;
 5427  B468     B6          			.byte	0b6h
 5428                     	;
 5429  B469     6D          			.byte	06dh
 5430                     	;
 5431  B46A     BF          			.byte	0bfh
 5432                     	;
 5433  B46B     FD          			.byte	0fdh
 5434                     	;
 5435  B46C     BF          			.byte	0bfh
 5436                     	;
  Sun Jan 12 14:21:22 2003                                                                                               Page  115




 5437  B46D     FD          			.byte	0fdh
 5438                     	;
 5439  B46E     BB          			.byte	0bbh
 5440                     	;
 5441  B46F     DD          			.byte	0ddh
 5442                     	;
 5443  B470     BB          			.byte	0bbh
 5444                     	;
 5445  B471     DD          			.byte	0ddh
 5446                     	;
 5447  B472     BF          			.byte	0bfh
 5448                     	;
 5449  B473     FD          			.byte	0fdh
 5450                     	;
 5451  B474     BE          			.byte	0beh
 5452                     	;
 5453  B475     7D          			.byte	07dh
 5454                     	;
 5455  B476     B6          			.byte	0b6h
 5456                     	;
 5457  B477     6D          			.byte	06dh
 5458                     	;
 5459  B478     B6          			.byte	0b6h
 5460                     	;
 5461  B479     6D          			.byte	06dh
 5462                     	;
 5463  B47A     86          			.byte	086h
 5464                     	;
 5465  B47B     61          			.byte	061h
 5466                     	;
 5467  B47C     FE          			.byte	0feh
 5468                     	;
 5469  B47D     7F          			.byte	07fh
 5470                     	;
 5471  B47E     7C          			.byte	07ch
 5472                     	;
 5473  B47F     3E          			.byte	03eh
 5474                     	;
 5475  B480     7C          			.byte	07ch
 5476                     	;
 5477  B481     3E          			.byte	03eh
 5478                     	;
 5479  B482     FE          			.byte	0feh
 5480                     	;
 5481  B483     7F          			.byte	07fh
 5482                     	;
 5483  B484     86          			.byte	086h
 5484                     	;
 5485  B485     61          			.byte	061h
 5486                     	;
 5487  B486     B6          			.byte	0b6h
 5488                     	;
 5489  B487     6D          			.byte	06dh
 5490                     	;
 5491  B488     B6          			.byte	0b6h
 5492                     	;
 5493  B489     6D          			.byte	06dh
  Sun Jan 12 14:21:22 2003                                                                                               Page  116




 5494                     	;
 5495  B48A     BF          			.byte	0bfh
 5496                     	;
 5497  B48B     FD          			.byte	0fdh
 5498                     	;
 5499  B48C     B8          			.byte	0b8h
 5500                     	;
 5501  B48D     1D          			.byte	01dh
 5502                     	;
 5503  B48E     BF          			.byte	0bfh
 5504                     	;
 5505  B48F     FD          			.byte	0fdh
 5506                     	;
 5507  B490     B8          			.byte	0b8h
 5508                     	;
 5509  B491     1D          			.byte	01dh
 5510                     	;
 5511  B492     BF          			.byte	0bfh
 5512                     	;
 5513  B493     FD          			.byte	0fdh
 5514                     	;
 5515  B494     BE          			.byte	0beh
 5516                     	;
 5517  B495     7D          			.byte	07dh
 5518                     	;
 5519  B496     B6          			.byte	0b6h
 5520                     	;
 5521  B497     6D          			.byte	06dh
 5522                     	;
 5523  B498     B6          			.byte	0b6h
 5524                     	;
 5525  B499     6D          			.byte	06dh
 5526                     	;
 5527  B49A     86          			.byte	086h
 5528                     	;
 5529  B49B     61          			.byte	061h
 5530                     	;
 5531  B49C     FE          			.byte	0feh
 5532                     	;
 5533  B49D     7F          			.byte	07fh
 5534                     	;
 5535  B49E     7C          			.byte	07ch
 5536                     	;
 5537  B49F     3E          			.byte	03eh
 5538                     	;
 5539  B4A0     7C          			.byte	07ch
 5540                     	;
 5541  B4A1     3E          			.byte	03eh
 5542                     	;
 5543  B4A2     FE          			.byte	0feh
 5544                     	;
 5545  B4A3     7F          			.byte	07fh
 5546                     	;
 5547  B4A4     86          			.byte	086h
 5548                     	;
 5549  B4A5     61          			.byte	061h
 5550                     	;
  Sun Jan 12 14:21:22 2003                                                                                               Page  117




 5551  B4A6     B6          			.byte	0b6h
 5552                     	;
 5553  B4A7     6D          			.byte	06dh
 5554                     	;
 5555  B4A8     B6          			.byte	0b6h
 5556                     	;
 5557  B4A9     6D          			.byte	06dh
 5558                     	;
 5559  B4AA     9F          			.byte	09fh
 5560                     	;
 5561  B4AB     F9          			.byte	0f9h
 5562                     	;
 5563  B4AC     AF          			.byte	0afh
 5564                     	;
 5565  B4AD     F5          			.byte	0f5h
 5566                     	;
 5567  B4AE     B2          			.byte	0b2h
 5568                     	;
 5569  B4AF     4D          			.byte	04dh
 5570                     	;
 5571  B4B0     B2          			.byte	0b2h
 5572                     	;
 5573  B4B1     4D          			.byte	04dh
 5574                     	;
 5575  B4B2     AF          			.byte	0afh
 5576                     	;
 5577  B4B3     F5          			.byte	0f5h
 5578                     	;
 5579  B4B4     9E          			.byte	09eh
 5580                     	;
 5581  B4B5     79          			.byte	079h
 5582                     	;
 5583  B4B6     B6          			.byte	0b6h
 5584                     	;
 5585  B4B7     6D          			.byte	06dh
 5586                     	;
 5587  B4B8     B6          			.byte	0b6h
 5588                     	;
 5589  B4B9     6D          			.byte	06dh
 5590                     	;
 5591  B4BA     86          			.byte	086h
 5592                     	;
 5593  B4BB     61          			.byte	061h
 5594                     	;
 5595  B4BC     FE          			.byte	0feh
 5596                     	;
 5597  B4BD     7F          			.byte	07fh
 5598                     	;
 5599  B4BE     7C          			.byte	07ch
 5600                     	;
 5601  B4BF     3E          			.byte	03eh
 5602                     	;
 5603  B4C0     00          			.byte	000h
 5604                     	;
 5605  B4C1     00          			.byte	000h
 5606                     	;
 5607  B4C2     00          			.byte	000h
  Sun Jan 12 14:21:22 2003                                                                                               Page  118




 5608                     	;
 5609  B4C3     00          			.byte	000h
 5610                     	;
 5611  B4C4     03          			.byte	003h
 5612                     	;
 5613  B4C5     FF          			.byte	0ffh
 5614                     	;
 5615  B4C6     02          			.byte	002h
 5616                     	;
 5617  B4C7     01          			.byte	001h
 5618                     	;
 5619  B4C8     07          			.byte	007h
 5620                     	;
 5621  B4C9     FF          			.byte	0ffh
 5622                     	;
 5623  B4CA     04          			.byte	004h
 5624                     	;
 5625  B4CB     03          			.byte	003h
 5626                     	;
 5627  B4CC     0F          			.byte	00fh
 5628                     	;
 5629  B4CD     FF          			.byte	0ffh
 5630                     	;
 5631  B4CE     08          			.byte	008h
 5632                     	;
 5633  B4CF     03          			.byte	003h
 5634                     	;
 5635  B4D0     1F          			.byte	01fh
 5636                     	;
 5637  B4D1     FF          			.byte	0ffh
 5638                     	;
 5639  B4D2     10          			.byte	010h
 5640                     	;
 5641  B4D3     05          			.byte	005h
 5642                     	;
 5643  B4D4     3F          			.byte	03fh
 5644                     	;
 5645  B4D5     FD          			.byte	0fdh
 5646                     	;
 5647  B4D6     20          			.byte	020h
 5648                     	;
 5649  B4D7     05          			.byte	005h
 5650                     	;
 5651  B4D8     7F          			.byte	07fh
 5652                     	;
 5653  B4D9     FD          			.byte	0fdh
 5654                     	;
 5655  B4DA     40          			.byte	040h
 5656                     	;
 5657  B4DB     09          			.byte	009h
 5658                     	;
 5659  B4DC     7F          			.byte	07fh
 5660                     	;
 5661  B4DD     FF          			.byte	0ffh
 5662                     	;
 5663  B4DE     00          			.byte	000h
 5664                     	;
  Sun Jan 12 14:21:22 2003                                                                                               Page  119




 5665  B4DF     00          			.byte	000h
 5666                     	;
 5667  B4E0     00          			.byte	000h
 5668                     	;
 5669  B4E1     00          			.byte	000h
 5670                     	;
 5671  B4E2     00          			.byte	000h
 5672                     	;
 5673  B4E3     00          			.byte	000h
 5674                     	;
 5675  B4E4     00          			.byte	000h
 5676                     	;
 5677  B4E5     00          			.byte	000h
 5678                     	;
 5679  B4E6     00          			.byte	000h
 5680                     	;
 5681  B4E7     00          			.byte	000h
 5682                     	;
 5683  B4E8     B0          			.byte	0b0h
 5684                     	;
 5685  B4E9     00          			.byte	000h
 5686                     	;
 5687  B4EA     F0          			.byte	0f0h
 5688                     	;
 5689  B4EB     00          			.byte	000h
 5690                     	;
 5691  B4EC     F0          			.byte	0f0h
 5692                     	;
 5693  B4ED     00          			.byte	000h
 5694                     	;
 5695  B4EE     F6          			.byte	0f6h
 5696                     	;
 5697  B4EF     FF          			.byte	0ffh
 5698                     	;
 5699  B4F0     F5          			.byte	0f5h
 5700                     	;
 5701  B4F1     FE          			.byte	0feh
 5702                     	;
 5703  B4F2     6B          			.byte	06bh
 5704                     	;
 5705  B4F3     FC          			.byte	0fch
 5706                     	;
 5707  B4F4     97          			.byte	097h
 5708                     	;
 5709  B4F5     F8          			.byte	0f8h
 5710                     	;
 5711  B4F6     A7          			.byte	0a7h
 5712                     	;
 5713  B4F7     F0          			.byte	0f0h
 5714                     	;
 5715  B4F8     6F          			.byte	06fh
 5716                     	;
 5717  B4F9     F8          			.byte	0f8h
 5718                     	;
 5719  B4FA     9F          			.byte	09fh
 5720                     	;
 5721  B4FB     FC          			.byte	0fch
  Sun Jan 12 14:21:22 2003                                                                                               Page  120




 5722                     	;
 5723  B4FC     FB          			.byte	0fbh
 5724                     	;
 5725  B4FD     DC          			.byte	0dch
 5726                     	;
 5727  B4FE     9B          			.byte	09bh
 5728                     	;
 5729  B4FF     DC          			.byte	0dch
 5730                     	;
 5731  B500     00          			.byte	000h
 5732                     	;
 5733  B501     00          			.byte	000h
 5734                     	;
 5735  B502     F3          			.byte	0f3h
 5736                     	;
 5737  B503     CF          			.byte	0cfh
 5738                     	;
 5739  B504     FF          			.byte	0ffh
 5740                     	;
 5741  B505     FF          			.byte	0ffh
 5742                     	;
 5743  B506     7F          			.byte	07fh
 5744                     	;
 5745  B507     FE          			.byte	0feh
 5746                     	;
 5747  B508     7F          			.byte	07fh
 5748                     	;
 5749  B509     FE          			.byte	0feh
 5750                     	;
 5751  B50A     80          			.byte	080h
 5752                     	;
 5753  B50B     01          			.byte	001h
 5754                     	;
 5755  B50C     FF          			.byte	0ffh
 5756                     	;
 5757  B50D     F7          			.byte	0f7h
 5758                     	;
 5759  B50E     FF          			.byte	0ffh
 5760                     	;
 5761  B50F     FF          			.byte	0ffh
 5762                     	;
 5763  B510     FF          			.byte	0ffh
 5764                     	;
 5765  B511     FF          			.byte	0ffh
 5766                     	;
 5767  B512     B3          			.byte	0b3h
 5768                     	;
 5769  B513     CD          			.byte	0cdh
 5770                     	;
 5771  B514     DB          			.byte	0dbh
 5772                     	;
 5773  B515     DB          			.byte	0dbh
 5774                     	;
 5775  B516     DF          			.byte	0dfh
 5776                     	;
 5777  B517     FB          			.byte	0fbh
 5778                     	;
  Sun Jan 12 14:21:22 2003                                                                                               Page  121




 5779  B518     D1          			.byte	0d1h
 5780                     	;
 5781  B519     8B          			.byte	08bh
 5782                     	;
 5783  B51A     FF          			.byte	0ffh
 5784                     	;
 5785  B51B     FF          			.byte	0ffh
 5786                     	;
 5787  B51C     DF          			.byte	0dfh
 5788                     	;
 5789  B51D     FB          			.byte	0fbh
 5790                     	;
 5791  B51E     7F          			.byte	07fh
 5792                     	;
 5793  B51F     FE          			.byte	0feh
 5794                     	;
 5795  B520     00          			.byte	000h
 5796                     	;
 5797  B521     00          			.byte	000h
 5798                     	;
 5799  B522     00          			.byte	000h
 5800                     	;
 5801  B523     00          			.byte	000h
 5802                     	;
 5803  B524     00          			.byte	000h
 5804                     	;
 5805  B525     00          			.byte	000h
 5806                     	;
 5807  B526     00          			.byte	000h
 5808                     	;
 5809  B527     00          			.byte	000h
 5810                     	;
 5811  B528     00          			.byte	000h
 5812                     	;
 5813  B529     0D          			.byte	00dh
 5814                     	;
 5815  B52A     00          			.byte	000h
 5816                     	;
 5817  B52B     0F          			.byte	00fh
 5818                     	;
 5819  B52C     00          			.byte	000h
 5820                     	;
 5821  B52D     0F          			.byte	00fh
 5822                     	;
 5823  B52E     FF          			.byte	0ffh
 5824                     	;
 5825  B52F     6F          			.byte	06fh
 5826                     	;
 5827  B530     7F          			.byte	07fh
 5828                     	;
 5829  B531     AF          			.byte	0afh
 5830                     	;
 5831  B532     3F          			.byte	03fh
 5832                     	;
 5833  B533     D6          			.byte	0d6h
 5834                     	;
 5835  B534     1F          			.byte	01fh
  Sun Jan 12 14:21:22 2003                                                                                               Page  122




 5836                     	;
 5837  B535     E9          			.byte	0e9h
 5838                     	;
 5839  B536     0F          			.byte	00fh
 5840                     	;
 5841  B537     E5          			.byte	0e5h
 5842                     	;
 5843  B538     1F          			.byte	01fh
 5844                     	;
 5845  B539     F6          			.byte	0f6h
 5846                     	;
 5847  B53A     3F          			.byte	03fh
 5848                     	;
 5849  B53B     F9          			.byte	0f9h
 5850                     	;
 5851  B53C     3B          			.byte	03bh
 5852                     	;
 5853  B53D     DF          			.byte	0dfh
 5854                     	;
 5855  B53E     3B          			.byte	03bh
 5856                     	;
 5857  B53F     D9          			.byte	0d9h
 5858                     	;
 5859  B540     FF          			.byte	0ffh
 5860                     	;
 5861  B541     FF          			.byte	0ffh
 5862                     	;
 5863  B542     FF          			.byte	0ffh
 5864                     	;
 5865  B543     FF          			.byte	0ffh
 5866                     	;
 5867  B544     66          			.byte	066h
 5868                     	;
 5869  B545     66          			.byte	066h
 5870                     	;
 5871  B546     66          			.byte	066h
 5872                     	;
 5873  B547     66          			.byte	066h
 5874                     	;
 5875  B548     66          			.byte	066h
 5876                     	;
 5877  B549     66          			.byte	066h
 5878                     	;
 5879  B54A     66          			.byte	066h
 5880                     	;
 5881  B54B     66          			.byte	066h
 5882                     	;
 5883  B54C     66          			.byte	066h
 5884                     	;
 5885  B54D     66          			.byte	066h
 5886                     	;
 5887  B54E     66          			.byte	066h
 5888                     	;
 5889  B54F     66          			.byte	066h
 5890                     	;
 5891  B550     66          			.byte	066h
 5892                     	;
  Sun Jan 12 14:21:22 2003                                                                                               Page  123




 5893  B551     66          			.byte	066h
 5894                     	;
 5895  B552     66          			.byte	066h
 5896                     	;
 5897  B553     66          			.byte	066h
 5898                     	;
 5899  B554     66          			.byte	066h
 5900                     	;
 5901  B555     66          			.byte	066h
 5902                     	;
 5903  B556     66          			.byte	066h
 5904                     	;
 5905  B557     66          			.byte	066h
 5906                     	;
 5907  B558     66          			.byte	066h
 5908                     	;
 5909  B559     66          			.byte	066h
 5910                     	;
 5911  B55A     66          			.byte	066h
 5912                     	;
 5913  B55B     66          			.byte	066h
 5914                     	;
 5915  B55C     FF          			.byte	0ffh
 5916                     	;
 5917  B55D     FF          			.byte	0ffh
 5918                     	;
 5919  B55E     FF          			.byte	0ffh
 5920                     	;
 5921  B55F     FF          			.byte	0ffh
 5922                     	;
 5923  B560     FF          			.byte	0ffh
 5924                     	;
 5925  B561     FF          			.byte	0ffh
 5926                     	;
 5927  B562     FF          			.byte	0ffh
 5928                     	;
 5929  B563     FD          			.byte	0fdh
 5930                     	;
 5931  B564     FF          			.byte	0ffh
 5932                     	;
 5933  B565     F5          			.byte	0f5h
 5934                     	;
 5935  B566     FF          			.byte	0ffh
 5936                     	;
 5937  B567     D5          			.byte	0d5h
 5938                     	;
 5939  B568     FF          			.byte	0ffh
 5940                     	;
 5941  B569     55          			.byte	055h
 5942                     	;
 5943  B56A     FD          			.byte	0fdh
 5944                     	;
 5945  B56B     55          			.byte	055h
 5946                     	;
 5947  B56C     F5          			.byte	0f5h
 5948                     	;
 5949  B56D     55          			.byte	055h
  Sun Jan 12 14:21:22 2003                                                                                               Page  124




 5950                     	;
 5951  B56E     D5          			.byte	0d5h
 5952                     	;
 5953  B56F     55          			.byte	055h
 5954                     	;
 5955  B570     D5          			.byte	0d5h
 5956                     	;
 5957  B571     55          			.byte	055h
 5958                     	;
 5959  B572     D5          			.byte	0d5h
 5960                     	;
 5961  B573     55          			.byte	055h
 5962                     	;
 5963  B574     D5          			.byte	0d5h
 5964                     	;
 5965  B575     55          			.byte	055h
 5966                     	;
 5967  B576     D5          			.byte	0d5h
 5968                     	;
 5969  B577     55          			.byte	055h
 5970                     	;
 5971  B578     D5          			.byte	0d5h
 5972                     	;
 5973  B579     55          			.byte	055h
 5974                     	;
 5975  B57A     D5          			.byte	0d5h
 5976                     	;
 5977  B57B     55          			.byte	055h
 5978                     	;
 5979  B57C     D5          			.byte	0d5h
 5980                     	;
 5981  B57D     55          			.byte	055h
 5982                     	;
 5983  B57E     FF          			.byte	0ffh
 5984                     	;
 5985  B57F     FF          			.byte	0ffh
 5986                     	;
 5987  B580     00          			.byte	000h
 5988                     	;
 5989  B581     00          			.byte	000h
 5990                     	;
 5991  B582     00          			.byte	000h
 5992                     	;
 5993  B583     80          			.byte	080h
 5994                     	;
 5995  B584     00          			.byte	000h
 5996                     	;
 5997  B585     80          			.byte	080h
 5998                     	;
 5999  B586     01          			.byte	001h
 6000                     	;
 6001  B587     40          			.byte	040h
 6002                     	;
 6003  B588     06          			.byte	006h
 6004                     	;
 6005  B589     30          			.byte	030h
 6006                     	;
  Sun Jan 12 14:21:22 2003                                                                                               Page  125




 6007  B58A     01          			.byte	001h
 6008                     	;
 6009  B58B     40          			.byte	040h
 6010                     	;
 6011  B58C     00          			.byte	000h
 6012                     	;
 6013  B58D     80          			.byte	080h
 6014                     	;
 6015  B58E     00          			.byte	000h
 6016                     	;
 6017  B58F     80          			.byte	080h
 6018                     	;
 6019  B590     00          			.byte	000h
 6020                     	;
 6021  B591     00          			.byte	000h
 6022                     	;
 6023  B592     08          			.byte	008h
 6024                     	;
 6025  B593     00          			.byte	000h
 6026                     	;
 6027  B594     08          			.byte	008h
 6028                     	;
 6029  B595     00          			.byte	000h
 6030                     	;
 6031  B596     36          			.byte	036h
 6032                     	;
 6033  B597     00          			.byte	000h
 6034                     	;
 6035  B598     08          			.byte	008h
 6036                     	;
 6037  B599     08          			.byte	008h
 6038                     	;
 6039  B59A     08          			.byte	008h
 6040                     	;
 6041  B59B     14          			.byte	014h
 6042                     	;
 6043  B59C     00          			.byte	000h
 6044                     	;
 6045  B59D     08          			.byte	008h
 6046                     	;
 6047  B59E     00          			.byte	000h
 6048                     	;
 6049  B59F     00          			.byte	000h
 6050                     	;
 6051  B5A0     FE          			.byte	0feh
 6052                     	;
 6053  B5A1     FE          			.byte	0feh
 6054                     	;
 6055  B5A2     FE          			.byte	0feh
 6056                     	;
 6057  B5A3     FE          			.byte	0feh
 6058                     	;
 6059  B5A4     FE          			.byte	0feh
 6060                     	;
 6061  B5A5     FE          			.byte	0feh
 6062                     	;
 6063  B5A6     00          			.byte	000h
  Sun Jan 12 14:21:22 2003                                                                                               Page  126




 6064                     	;
 6065  B5A7     00          			.byte	000h
 6066                     	;
 6067  B5A8     EF          			.byte	0efh
 6068                     	;
 6069  B5A9     EF          			.byte	0efh
 6070                     	;
 6071  B5AA     EF          			.byte	0efh
 6072                     	;
 6073  B5AB     EF          			.byte	0efh
 6074                     	;
 6075  B5AC     EF          			.byte	0efh
 6076                     	;
 6077  B5AD     EF          			.byte	0efh
 6078                     	;
 6079  B5AE     00          			.byte	000h
 6080                     	;
 6081  B5AF     00          			.byte	000h
 6082                     	;
 6083  B5B0     FE          			.byte	0feh
 6084                     	;
 6085  B5B1     FE          			.byte	0feh
 6086                     	;
 6087  B5B2     FE          			.byte	0feh
 6088                     	;
 6089  B5B3     FE          			.byte	0feh
 6090                     	;
 6091  B5B4     FE          			.byte	0feh
 6092                     	;
 6093  B5B5     FE          			.byte	0feh
 6094                     	;
 6095  B5B6     00          			.byte	000h
 6096                     	;
 6097  B5B7     00          			.byte	000h
 6098                     	;
 6099  B5B8     EF          			.byte	0efh
 6100                     	;
 6101  B5B9     EF          			.byte	0efh
 6102                     	;
 6103  B5BA     EF          			.byte	0efh
 6104                     	;
 6105  B5BB     EF          			.byte	0efh
 6106                     	;
 6107  B5BC     EF          			.byte	0efh
 6108                     	;
 6109  B5BD     EF          			.byte	0efh
 6110                     	;
 6111  B5BE     00          			.byte	000h
 6112                     	;
 6113  B5BF     00          			.byte	000h
 6114                     	;
 6115  B5C0     07          			.byte	007h
 6116                     	;
 6117  B5C1     E0          			.byte	0e0h
 6118                     	;
 6119  B5C2     0A          			.byte	00ah
 6120                     	;
  Sun Jan 12 14:21:22 2003                                                                                               Page  127




 6121  B5C3     50          			.byte	050h
 6122                     	;
 6123  B5C4     09          			.byte	009h
 6124                     	;
 6125  B5C5     90          			.byte	090h
 6126                     	;
 6127  B5C6     15          			.byte	015h
 6128                     	;
 6129  B5C7     E8          			.byte	0e8h
 6130                     	;
 6131  B5C8     1C          			.byte	01ch
 6132                     	;
 6133  B5C9     F8          			.byte	0f8h
 6134                     	;
 6135  B5CA     1A          			.byte	01ah
 6136                     	;
 6137  B5CB     58          			.byte	058h
 6138                     	;
 6139  B5CC     3A          			.byte	03ah
 6140                     	;
 6141  B5CD     5C          			.byte	05ch
 6142                     	;
 6143  B5CE     3C          			.byte	03ch
 6144                     	;
 6145  B5CF     3C          			.byte	03ch
 6146                     	;
 6147  B5D0     73          			.byte	073h
 6148                     	;
 6149  B5D1     CE          			.byte	0ceh
 6150                     	;
 6151  B5D2     60          			.byte	060h
 6152                     	;
 6153  B5D3     06          			.byte	006h
 6154                     	;
 6155  B5D4     24          			.byte	024h
 6156                     	;
 6157  B5D5     24          			.byte	024h
 6158                     	;
 6159  B5D6     4B          			.byte	04bh
 6160                     	;
 6161  B5D7     D2          			.byte	0d2h
 6162                     	;
 6163  B5D8     70          			.byte	070h
 6164                     	;
 6165  B5D9     0A          			.byte	00ah
 6166                     	;
 6167  B5DA     20          			.byte	020h
 6168                     	;
 6169  B5DB     04          			.byte	004h
 6170                     	;
 6171  B5DC     40          			.byte	040h
 6172                     	;
 6173  B5DD     02          			.byte	002h
 6174                     	;
 6175  B5DE     3E          			.byte	03eh
 6176                     	;
 6177  B5DF     BC          			.byte	0bch
  Sun Jan 12 14:21:22 2003                                                                                               Page  128




 6178                     	;
 6179  B5E0     07          			.byte	007h
 6180                     	;
 6181  B5E1     E0          			.byte	0e0h
 6182                     	;
 6183  B5E2     0E          			.byte	00eh
 6184                     	;
 6185  B5E3     70          			.byte	070h
 6186                     	;
 6187  B5E4     3D          			.byte	03dh
 6188                     	;
 6189  B5E5     BC          			.byte	0bch
 6190                     	;
 6191  B5E6     7F          			.byte	07fh
 6192                     	;
 6193  B5E7     FE          			.byte	0feh
 6194                     	;
 6195  B5E8     7F          			.byte	07fh
 6196                     	;
 6197  B5E9     FE          			.byte	0feh
 6198                     	;
 6199  B5EA     35          			.byte	035h
 6200                     	;
 6201  B5EB     AC          			.byte	0ach
 6202                     	;
 6203  B5EC     56          			.byte	056h
 6204                     	;
 6205  B5ED     6A          			.byte	06ah
 6206                     	;
 6207  B5EE     42          			.byte	042h
 6208                     	;
 6209  B5EF     42          			.byte	042h
 6210                     	;
 6211  B5F0     30          			.byte	030h
 6212                     	;
 6213  B5F1     0C          			.byte	00ch
 6214                     	;
 6215  B5F2     19          			.byte	019h
 6216                     	;
 6217  B5F3     98          			.byte	098h
 6218                     	;
 6219  B5F4     6E          			.byte	06eh
 6220                     	;
 6221  B5F5     76          			.byte	076h
 6222                     	;
 6223  B5F6     4F          			.byte	04fh
 6224                     	;
 6225  B5F7     F2          			.byte	0f2h
 6226                     	;
 6227  B5F8     3C          			.byte	03ch
 6228                     	;
 6229  B5F9     3C          			.byte	03ch
 6230                     	;
 6231  B5FA     6B          			.byte	06bh
 6232                     	;
 6233  B5FB     D8          			.byte	0d8h
 6234                     	;
  Sun Jan 12 14:21:22 2003                                                                                               Page  129




 6235  B5FC     4F          			.byte	04fh
 6236                     	;
 6237  B5FD     F8          			.byte	0f8h
 6238                     	;
 6239  B5FE     1E          			.byte	01eh
 6240                     	;
 6241  B5FF     70          			.byte	070h
 6242                     	;
 6243  B600     0F          			.byte	00fh
 6244                     	;
 6245  B601     F0          			.byte	0f0h
 6246                     	;
 6247  B602     1F          			.byte	01fh
 6248                     	;
 6249  B603     F8          			.byte	0f8h
 6250                     	;
 6251  B604     16          			.byte	016h
 6252                     	;
 6253  B605     68          			.byte	068h
 6254                     	;
 6255  B606     10          			.byte	010h
 6256                     	;
 6257  B607     08          			.byte	008h
 6258                     	;
 6259  B608     11          			.byte	011h
 6260                     	;
 6261  B609     88          			.byte	088h
 6262                     	;
 6263  B60A     11          			.byte	011h
 6264                     	;
 6265  B60B     88          			.byte	088h
 6266                     	;
 6267  B60C     72          			.byte	072h
 6268                     	;
 6269  B60D     4E          			.byte	04eh
 6270                     	;
 6271  B60E     F9          			.byte	0f9h
 6272                     	;
 6273  B60F     9F          			.byte	09fh
 6274                     	;
 6275  B610     FC          			.byte	0fch
 6276                     	;
 6277  B611     3F          			.byte	03fh
 6278                     	;
 6279  B612     FB          			.byte	0fbh
 6280                     	;
 6281  B613     DF          			.byte	0dfh
 6282                     	;
 6283  B614     F9          			.byte	0f9h
 6284                     	;
 6285  B615     9F          			.byte	09fh
 6286                     	;
 6287  B616     FA          			.byte	0fah
 6288                     	;
 6289  B617     5F          			.byte	05fh
 6290                     	;
 6291  B618     79          			.byte	079h
  Sun Jan 12 14:21:22 2003                                                                                               Page  130




 6292                     	;
 6293  B619     9E          			.byte	09eh
 6294                     	;
 6295  B61A     0F          			.byte	00fh
 6296                     	;
 6297  B61B     F0          			.byte	0f0h
 6298                     	;
 6299  B61C     3F          			.byte	03fh
 6300                     	;
 6301  B61D     FC          			.byte	0fch
 6302                     	;
 6303  B61E     3F          			.byte	03fh
 6304                     	;
 6305  B61F     FC          			.byte	0fch
 6306                     	;
 6307  B620     07          			.byte	007h
 6308                     	;
 6309  B621     E0          			.byte	0e0h
 6310                     	;
 6311  B622     0C          			.byte	00ch
 6312                     	;
 6313  B623     30          			.byte	030h
 6314                     	;
 6315  B624     0E          			.byte	00eh
 6316                     	;
 6317  B625     70          			.byte	070h
 6318                     	;
 6319  B626     08          			.byte	008h
 6320                     	;
 6321  B627     10          			.byte	010h
 6322                     	;
 6323  B628     39          			.byte	039h
 6324                     	;
 6325  B629     9C          			.byte	09ch
 6326                     	;
 6327  B62A     F8          			.byte	0f8h
 6328                     	;
 6329  B62B     1F          			.byte	01fh
 6330                     	;
 6331  B62C     B8          			.byte	0b8h
 6332                     	;
 6333  B62D     1D          			.byte	01dh
 6334                     	;
 6335  B62E     FC          			.byte	0fch
 6336                     	;
 6337  B62F     3F          			.byte	03fh
 6338                     	;
 6339  B630     BE          			.byte	0beh
 6340                     	;
 6341  B631     7D          			.byte	07dh
 6342                     	;
 6343  B632     6F          			.byte	06fh
 6344                     	;
 6345  B633     F6          			.byte	0f6h
 6346                     	;
 6347  B634     0F          			.byte	00fh
 6348                     	;
  Sun Jan 12 14:21:22 2003                                                                                               Page  131




 6349  B635     F0          			.byte	0f0h
 6350                     	;
 6351  B636     1F          			.byte	01fh
 6352                     	;
 6353  B637     F8          			.byte	0f8h
 6354                     	;
 6355  B638     1F          			.byte	01fh
 6356                     	;
 6357  B639     F8          			.byte	0f8h
 6358                     	;
 6359  B63A     3F          			.byte	03fh
 6360                     	;
 6361  B63B     FC          			.byte	0fch
 6362                     	;
 6363  B63C     3F          			.byte	03fh
 6364                     	;
 6365  B63D     FC          			.byte	0fch
 6366                     	;
 6367  B63E     1F          			.byte	01fh
 6368                     	;
 6369  B63F     F8          			.byte	0f8h
 6370                     	;
 6371  B640     07          			.byte	007h
 6372                     	;
 6373  B641     E0          			.byte	0e0h
 6374                     	;
 6375  B642     0F          			.byte	00fh
 6376                     	;
 6377  B643     F0          			.byte	0f0h
 6378                     	;
 6379  B644     7B          			.byte	07bh
 6380                     	;
 6381  B645     DE          			.byte	0deh
 6382                     	;
 6383  B646     4F          			.byte	04fh
 6384                     	;
 6385  B647     F2          			.byte	0f2h
 6386                     	;
 6387  B648     5E          			.byte	05eh
 6388                     	;
 6389  B649     7A          			.byte	07ah
 6390                     	;
 6391  B64A     38          			.byte	038h
 6392                     	;
 6393  B64B     1C          			.byte	01ch
 6394                     	;
 6395  B64C     0A          			.byte	00ah
 6396                     	;
 6397  B64D     50          			.byte	050h
 6398                     	;
 6399  B64E     4A          			.byte	04ah
 6400                     	;
 6401  B64F     52          			.byte	052h
 6402                     	;
 6403  B650     BC          			.byte	0bch
 6404                     	;
 6405  B651     3D          			.byte	03dh
  Sun Jan 12 14:21:22 2003                                                                                               Page  132




 6406                     	;
 6407  B652     43          			.byte	043h
 6408                     	;
 6409  B653     C2          			.byte	0c2h
 6410                     	;
 6411  B654     56          			.byte	056h
 6412                     	;
 6413  B655     6A          			.byte	06ah
 6414                     	;
 6415  B656     2C          			.byte	02ch
 6416                     	;
 6417  B657     34          			.byte	034h
 6418                     	;
 6419  B658     59          			.byte	059h
 6420                     	;
 6421  B659     9A          			.byte	09ah
 6422                     	;
 6423  B65A     8E          			.byte	08eh
 6424                     	;
 6425  B65B     71          			.byte	071h
 6426                     	;
 6427  B65C     52          			.byte	052h
 6428                     	;
 6429  B65D     4A          			.byte	04ah
 6430                     	;
 6431  B65E     23          			.byte	023h
 6432                     	;
 6433  B65F     C4          			.byte	0c4h
 6434                     	;
 6435  B660     00          			.byte	000h
 6436                     	;
 6437  B661     00          			.byte	000h
 6438                     	;
 6439  B662     03          			.byte	003h
 6440                     	;
 6441  B663     C0          			.byte	0c0h
 6442                     	;
 6443  B664     06          			.byte	006h
 6444                     	;
 6445  B665     60          			.byte	060h
 6446                     	;
 6447  B666     03          			.byte	003h
 6448                     	;
 6449  B667     C0          			.byte	0c0h
 6450                     	;
 6451  B668     02          			.byte	002h
 6452                     	;
 6453  B669     40          			.byte	040h
 6454                     	;
 6455  B66A     02          			.byte	002h
 6456                     	;
 6457  B66B     40          			.byte	040h
 6458                     	;
 6459  B66C     02          			.byte	002h
 6460                     	;
 6461  B66D     40          			.byte	040h
 6462                     	;
  Sun Jan 12 14:21:22 2003                                                                                               Page  133




 6463  B66E     04          			.byte	004h
 6464                     	;
 6465  B66F     20          			.byte	020h
 6466                     	;
 6467  B670     08          			.byte	008h
 6468                     	;
 6469  B671     10          			.byte	010h
 6470                     	;
 6471  B672     10          			.byte	010h
 6472                     	;
 6473  B673     08          			.byte	008h
 6474                     	;
 6475  B674     3F          			.byte	03fh
 6476                     	;
 6477  B675     FC          			.byte	0fch
 6478                     	;
 6479  B676     3B          			.byte	03bh
 6480                     	;
 6481  B677     FC          			.byte	0fch
 6482                     	;
 6483  B678     37          			.byte	037h
 6484                     	;
 6485  B679     FC          			.byte	0fch
 6486                     	;
 6487  B67A     1F          			.byte	01fh
 6488                     	;
 6489  B67B     F8          			.byte	0f8h
 6490                     	;
 6491  B67C     0F          			.byte	00fh
 6492                     	;
 6493  B67D     F0          			.byte	0f0h
 6494                     	;
 6495  B67E     07          			.byte	007h
 6496                     	;
 6497  B67F     E0          			.byte	0e0h
 6498                     	;
 6499  B680     01          			.byte	001h
 6500                     	;
 6501  B681     80          			.byte	080h
 6502                     	;
 6503  B682     03          			.byte	003h
 6504                     	;
 6505  B683     C0          			.byte	0c0h
 6506                     	;
 6507  B684     03          			.byte	003h
 6508                     	;
 6509  B685     C0          			.byte	0c0h
 6510                     	;
 6511  B686     11          			.byte	011h
 6512                     	;
 6513  B687     88          			.byte	088h
 6514                     	;
 6515  B688     1B          			.byte	01bh
 6516                     	;
 6517  B689     D8          			.byte	0d8h
 6518                     	;
 6519  B68A     0C          			.byte	00ch
  Sun Jan 12 14:21:22 2003                                                                                               Page  134




 6520                     	;
 6521  B68B     30          			.byte	030h
 6522                     	;
 6523  B68C     69          			.byte	069h
 6524                     	;
 6525  B68D     96          			.byte	096h
 6526                     	;
 6527  B68E     F2          			.byte	0f2h
 6528                     	;
 6529  B68F     4F          			.byte	04fh
 6530                     	;
 6531  B690     F2          			.byte	0f2h
 6532                     	;
 6533  B691     4F          			.byte	04fh
 6534                     	;
 6535  B692     69          			.byte	069h
 6536                     	;
 6537  B693     96          			.byte	096h
 6538                     	;
 6539  B694     0C          			.byte	00ch
 6540                     	;
 6541  B695     30          			.byte	030h
 6542                     	;
 6543  B696     1B          			.byte	01bh
 6544                     	;
 6545  B697     D8          			.byte	0d8h
 6546                     	;
 6547  B698     19          			.byte	019h
 6548                     	;
 6549  B699     98          			.byte	098h
 6550                     	;
 6551  B69A     03          			.byte	003h
 6552                     	;
 6553  B69B     C0          			.byte	0c0h
 6554                     	;
 6555  B69C     03          			.byte	003h
 6556                     	;
 6557  B69D     C0          			.byte	0c0h
 6558                     	;
 6559  B69E     01          			.byte	001h
 6560                     	;
 6561  B69F     80          			.byte	080h
 6562                     	;
 6563  B6A0     00          			.byte	000h
 6564                     	;
 6565  B6A1     00          			.byte	000h
 6566                     	;
 6567  B6A2     18          			.byte	018h
 6568                     	;
 6569  B6A3     18          			.byte	018h
 6570                     	;
 6571  B6A4     3C          			.byte	03ch
 6572                     	;
 6573  B6A5     3C          			.byte	03ch
 6574                     	;
 6575  B6A6     3F          			.byte	03fh
 6576                     	;
  Sun Jan 12 14:21:22 2003                                                                                               Page  135




 6577  B6A7     FC          			.byte	0fch
 6578                     	;
 6579  B6A8     67          			.byte	067h
 6580                     	;
 6581  B6A9     E6          			.byte	0e6h
 6582                     	;
 6583  B6AA     64          			.byte	064h
 6584                     	;
 6585  B6AB     26          			.byte	026h
 6586                     	;
 6587  B6AC     6C          			.byte	06ch
 6588                     	;
 6589  B6AD     36          			.byte	036h
 6590                     	;
 6591  B6AE     35          			.byte	035h
 6592                     	;
 6593  B6AF     AC          			.byte	0ach
 6594                     	;
 6595  B6B0     36          			.byte	036h
 6596                     	;
 6597  B6B1     6C          			.byte	06ch
 6598                     	;
 6599  B6B2     35          			.byte	035h
 6600                     	;
 6601  B6B3     AC          			.byte	0ach
 6602                     	;
 6603  B6B4     1A          			.byte	01ah
 6604                     	;
 6605  B6B5     58          			.byte	058h
 6606                     	;
 6607  B6B6     1D          			.byte	01dh
 6608                     	;
 6609  B6B7     B8          			.byte	0b8h
 6610                     	;
 6611  B6B8     0F          			.byte	00fh
 6612                     	;
 6613  B6B9     F0          			.byte	0f0h
 6614                     	;
 6615  B6BA     07          			.byte	007h
 6616                     	;
 6617  B6BB     E0          			.byte	0e0h
 6618                     	;
 6619  B6BC     03          			.byte	003h
 6620                     	;
 6621  B6BD     C0          			.byte	0c0h
 6622                     	;
 6623  B6BE     00          			.byte	000h
 6624                     	;
 6625  B6BF     00          			.byte	000h
 6626                     	;
 6627  B6C0     00          			.byte	000h
 6628                     	;
 6629  B6C1     03          			.byte	003h
 6630                     	;
 6631  B6C2     00          			.byte	000h
 6632                     	;
 6633  B6C3     05          			.byte	005h
  Sun Jan 12 14:21:22 2003                                                                                               Page  136




 6634                     	;
 6635  B6C4     00          			.byte	000h
 6636                     	;
 6637  B6C5     0A          			.byte	00ah
 6638                     	;
 6639  B6C6     00          			.byte	000h
 6640                     	;
 6641  B6C7     14          			.byte	014h
 6642                     	;
 6643  B6C8     00          			.byte	000h
 6644                     	;
 6645  B6C9     28          			.byte	028h
 6646                     	;
 6647  B6CA     00          			.byte	000h
 6648                     	;
 6649  B6CB     50          			.byte	050h
 6650                     	;
 6651  B6CC     08          			.byte	008h
 6652                     	;
 6653  B6CD     A0          			.byte	0a0h
 6654                     	;
 6655  B6CE     11          			.byte	011h
 6656                     	;
 6657  B6CF     40          			.byte	040h
 6658                     	;
 6659  B6D0     1A          			.byte	01ah
 6660                     	;
 6661  B6D1     80          			.byte	080h
 6662                     	;
 6663  B6D2     0D          			.byte	00dh
 6664                     	;
 6665  B6D3     00          			.byte	000h
 6666                     	;
 6667  B6D4     0E          			.byte	00eh
 6668                     	;
 6669  B6D5     00          			.byte	000h
 6670                     	;
 6671  B6D6     1F          			.byte	01fh
 6672                     	;
 6673  B6D7     40          			.byte	040h
 6674                     	;
 6675  B6D8     39          			.byte	039h
 6676                     	;
 6677  B6D9     80          			.byte	080h
 6678                     	;
 6679  B6DA     70          			.byte	070h
 6680                     	;
 6681  B6DB     00          			.byte	000h
 6682                     	;
 6683  B6DC     E0          			.byte	0e0h
 6684                     	;
 6685  B6DD     00          			.byte	000h
 6686                     	;
 6687  B6DE     40          			.byte	040h
 6688                     	;
 6689  B6DF     00          			.byte	000h
 6690                     	;
  Sun Jan 12 14:21:22 2003                                                                                               Page  137




 6691  B6E0     00          			.byte	000h
 6692                     	;
 6693  B6E1     00          			.byte	000h
 6694                     	;
 6695  B6E2     06          			.byte	006h
 6696                     	;
 6697  B6E3     60          			.byte	060h
 6698                     	;
 6699  B6E4     0A          			.byte	00ah
 6700                     	;
 6701  B6E5     50          			.byte	050h
 6702                     	;
 6703  B6E6     CD          			.byte	0cdh
 6704                     	;
 6705  B6E7     B3          			.byte	0b3h
 6706                     	;
 6707  B6E8     EE          			.byte	0eeh
 6708                     	;
 6709  B6E9     77          			.byte	077h
 6710                     	;
 6711  B6EA     42          			.byte	042h
 6712                     	;
 6713  B6EB     42          			.byte	042h
 6714                     	;
 6715  B6EC     E1          			.byte	0e1h
 6716                     	;
 6717  B6ED     87          			.byte	087h
 6718                     	;
 6719  B6EE     6E          			.byte	06eh
 6720                     	;
 6721  B6EF     76          			.byte	076h
 6722                     	;
 6723  B6F0     6D          			.byte	06dh
 6724                     	;
 6725  B6F1     B6          			.byte	0b6h
 6726                     	;
 6727  B6F2     6E          			.byte	06eh
 6728                     	;
 6729  B6F3     76          			.byte	076h
 6730                     	;
 6731  B6F4     2E          			.byte	02eh
 6732                     	;
 6733  B6F5     74          			.byte	074h
 6734                     	;
 6735  B6F6     06          			.byte	006h
 6736                     	;
 6737  B6F7     60          			.byte	060h
 6738                     	;
 6739  B6F8     06          			.byte	006h
 6740                     	;
 6741  B6F9     60          			.byte	060h
 6742                     	;
 6743  B6FA     02          			.byte	002h
 6744                     	;
 6745  B6FB     40          			.byte	040h
 6746                     	;
 6747  B6FC     02          			.byte	002h
  Sun Jan 12 14:21:22 2003                                                                                               Page  138




 6748                     	;
 6749  B6FD     40          			.byte	040h
 6750                     	;
 6751  B6FE     01          			.byte	001h
 6752                     	;
 6753  B6FF     80          			.byte	080h
 6754                     	;
 6755  B700     00          			.byte	000h
 6756                     	;
 6757  B701     00          			.byte	000h
 6758                     	;
 6759  B702     00          			.byte	000h
 6760                     	;
 6761  B703     00          			.byte	000h
 6762                     	;
 6763  B704     03          			.byte	003h
 6764                     	;
 6765  B705     80          			.byte	080h
 6766                     	;
 6767  B706     06          			.byte	006h
 6768                     	;
 6769  B707     C0          			.byte	0c0h
 6770                     	;
 6771  B708     0E          			.byte	00eh
 6772                     	;
 6773  B709     E0          			.byte	0e0h
 6774                     	;
 6775  B70A     15          			.byte	015h
 6776                     	;
 6777  B70B     50          			.byte	050h
 6778                     	;
 6779  B70C     1A          			.byte	01ah
 6780                     	;
 6781  B70D     B0          			.byte	0b0h
 6782                     	;
 6783  B70E     19          			.byte	019h
 6784                     	;
 6785  B70F     B0          			.byte	0b0h
 6786                     	;
 6787  B710     1B          			.byte	01bh
 6788                     	;
 6789  B711     B0          			.byte	0b0h
 6790                     	;
 6791  B712     1B          			.byte	01bh
 6792                     	;
 6793  B713     B0          			.byte	0b0h
 6794                     	;
 6795  B714     15          			.byte	015h
 6796                     	;
 6797  B715     50          			.byte	050h
 6798                     	;
 6799  B716     0E          			.byte	00eh
 6800                     	;
 6801  B717     E0          			.byte	0e0h
 6802                     	;
 6803  B718     06          			.byte	006h
 6804                     	;
  Sun Jan 12 14:21:22 2003                                                                                               Page  139




 6805  B719     C0          			.byte	0c0h
 6806                     	;
 6807  B71A     03          			.byte	003h
 6808                     	;
 6809  B71B     80          			.byte	080h
 6810                     	;
 6811  B71C     00          			.byte	000h
 6812                     	;
 6813  B71D     00          			.byte	000h
 6814                     	;
 6815  B71E     00          			.byte	000h
 6816                     	;
 6817  B71F     00          			.byte	000h
 6818                     	;
 6819  B720     00          			.byte	000h
 6820                     	;
 6821  B721     00          			.byte	000h
 6822                     	;
 6823  B722     00          			.byte	000h
 6824                     	;
 6825  B723     00          			.byte	000h
 6826                     	;
 6827  B724     00          			.byte	000h
 6828                     	;
 6829  B725     00          			.byte	000h
 6830                     	;
 6831  B726     07          			.byte	007h
 6832                     	;
 6833  B727     E0          			.byte	0e0h
 6834                     	;
 6835  B728     0B          			.byte	00bh
 6836                     	;
 6837  B729     D0          			.byte	0d0h
 6838                     	;
 6839  B72A     1C          			.byte	01ch
 6840                     	;
 6841  B72B     38          			.byte	038h
 6842                     	;
 6843  B72C     3A          			.byte	03ah
 6844                     	;
 6845  B72D     DC          			.byte	0dch
 6846                     	;
 6847  B72E     25          			.byte	025h
 6848                     	;
 6849  B72F     E4          			.byte	0e4h
 6850                     	;
 6851  B730     3B          			.byte	03bh
 6852                     	;
 6853  B731     DC          			.byte	0dch
 6854                     	;
 6855  B732     1C          			.byte	01ch
 6856                     	;
 6857  B733     38          			.byte	038h
 6858                     	;
 6859  B734     0B          			.byte	00bh
 6860                     	;
 6861  B735     D0          			.byte	0d0h
  Sun Jan 12 14:21:22 2003                                                                                               Page  140




 6862                     	;
 6863  B736     07          			.byte	007h
 6864                     	;
 6865  B737     E0          			.byte	0e0h
 6866                     	;
 6867  B738     00          			.byte	000h
 6868                     	;
 6869  B739     00          			.byte	000h
 6870                     	;
 6871  B73A     00          			.byte	000h
 6872                     	;
 6873  B73B     00          			.byte	000h
 6874                     	;
 6875  B73C     00          			.byte	000h
 6876                     	;
 6877  B73D     00          			.byte	000h
 6878                     	;
 6879  B73E     00          			.byte	000h
 6880                     	;
 6881  B73F     00          			.byte	000h
 6882                     	;
 6883  B740     04          			.byte	004h
 6884                     	;
 6885  B741     40          			.byte	040h
 6886                     	;
 6887  B742     06          			.byte	006h
 6888                     	;
 6889  B743     C0          			.byte	0c0h
 6890                     	;
 6891  B744     06          			.byte	006h
 6892                     	;
 6893  B745     80          			.byte	080h
 6894                     	;
 6895  B746     12          			.byte	012h
 6896                     	;
 6897  B747     90          			.byte	090h
 6898                     	;
 6899  B748     3A          			.byte	03ah
 6900                     	;
 6901  B749     B8          			.byte	0b8h
 6902                     	;
 6903  B74A     3D          			.byte	03dh
 6904                     	;
 6905  B74B     78          			.byte	078h
 6906                     	;
 6907  B74C     24          			.byte	024h
 6908                     	;
 6909  B74D     48          			.byte	048h
 6910                     	;
 6911  B74E     32          			.byte	032h
 6912                     	;
 6913  B74F     98          			.byte	098h
 6914                     	;
 6915  B750     3B          			.byte	03bh
 6916                     	;
 6917  B751     B8          			.byte	0b8h
 6918                     	;
  Sun Jan 12 14:21:22 2003                                                                                               Page  141




 6919  B752     1B          			.byte	01bh
 6920                     	;
 6921  B753     B0          			.byte	0b0h
 6922                     	;
 6923  B754     0B          			.byte	00bh
 6924                     	;
 6925  B755     A0          			.byte	0a0h
 6926                     	;
 6927  B756     03          			.byte	003h
 6928                     	;
 6929  B757     80          			.byte	080h
 6930                     	;
 6931  B758     03          			.byte	003h
 6932                     	;
 6933  B759     80          			.byte	080h
 6934                     	;
 6935  B75A     03          			.byte	003h
 6936                     	;
 6937  B75B     80          			.byte	080h
 6938                     	;
 6939  B75C     01          			.byte	001h
 6940                     	;
 6941  B75D     00          			.byte	000h
 6942                     	;
 6943  B75E     00          			.byte	000h
 6944                     	;
 6945  B75F     00          			.byte	000h
 6946                     	;
 6947  B760     00          			.byte	000h
 6948                     	;
 6949  B761     00          			.byte	000h
 6950                     	;
 6951  B762     01          			.byte	001h
 6952                     	;
 6953  B763     80          			.byte	080h
 6954                     	;
 6955  B764     02          			.byte	002h
 6956                     	;
 6957  B765     40          			.byte	040h
 6958                     	;
 6959  B766     01          			.byte	001h
 6960                     	;
 6961  B767     80          			.byte	080h
 6962                     	;
 6963  B768     01          			.byte	001h
 6964                     	;
 6965  B769     80          			.byte	080h
 6966                     	;
 6967  B76A     01          			.byte	001h
 6968                     	;
 6969  B76B     80          			.byte	080h
 6970                     	;
 6971  B76C     41          			.byte	041h
 6972                     	;
 6973  B76D     82          			.byte	082h
 6974                     	;
 6975  B76E     E3          			.byte	0e3h
  Sun Jan 12 14:21:22 2003                                                                                               Page  142




 6976                     	;
 6977  B76F     C7          			.byte	0c7h
 6978                     	;
 6979  B770     BF          			.byte	0bfh
 6980                     	;
 6981  B771     FD          			.byte	0fdh
 6982                     	;
 6983  B772     9E          			.byte	09eh
 6984                     	;
 6985  B773     79          			.byte	079h
 6986                     	;
 6987  B774     5A          			.byte	05ah
 6988                     	;
 6989  B775     5A          			.byte	05ah
 6990                     	;
 6991  B776     78          			.byte	078h
 6992                     	;
 6993  B777     1E          			.byte	01eh
 6994                     	;
 6995  B778     1A          			.byte	01ah
 6996                     	;
 6997  B779     58          			.byte	058h
 6998                     	;
 6999  B77A     1E          			.byte	01eh
 7000                     	;
 7001  B77B     78          			.byte	078h
 7002                     	;
 7003  B77C     0F          			.byte	00fh
 7004                     	;
 7005  B77D     F0          			.byte	0f0h
 7006                     	;
 7007  B77E     07          			.byte	007h
 7008                     	;
 7009  B77F     E0          			.byte	0e0h
 7010                     	;
 7011  B780     00          			.byte	000h
 7012                     	;
 7013  B781     00          			.byte	000h
 7014                     	;
 7015  B782     7F          			.byte	07fh
 7016                     	;
 7017  B783     FE          			.byte	0feh
 7018                     	;
 7019  B784     50          			.byte	050h
 7020                     	;
 7021  B785     0A          			.byte	00ah
 7022                     	;
 7023  B786     6E          			.byte	06eh
 7024                     	;
 7025  B787     76          			.byte	076h
 7026                     	;
 7027  B788     5F          			.byte	05fh
 7028                     	;
 7029  B789     FA          			.byte	0fah
 7030                     	;
 7031  B78A     5E          			.byte	05eh
 7032                     	;
  Sun Jan 12 14:21:22 2003                                                                                               Page  143




 7033  B78B     7A          			.byte	07ah
 7034                     	;
 7035  B78C     4D          			.byte	04dh
 7036                     	;
 7037  B78D     32          			.byte	032h
 7038                     	;
 7039  B78E     5D          			.byte	05dh
 7040                     	;
 7041  B78F     3A          			.byte	03ah
 7042                     	;
 7043  B790     5E          			.byte	05eh
 7044                     	;
 7045  B791     7A          			.byte	07ah
 7046                     	;
 7047  B792     6F          			.byte	06fh
 7048                     	;
 7049  B793     F6          			.byte	0f6h
 7050                     	;
 7051  B794     5E          			.byte	05eh
 7052                     	;
 7053  B795     7A          			.byte	07ah
 7054                     	;
 7055  B796     56          			.byte	056h
 7056                     	;
 7057  B797     6A          			.byte	06ah
 7058                     	;
 7059  B798     2E          			.byte	02eh
 7060                     	;
 7061  B799     74          			.byte	074h
 7062                     	;
 7063  B79A     13          			.byte	013h
 7064                     	;
 7065  B79B     C8          			.byte	0c8h
 7066                     	;
 7067  B79C     08          			.byte	008h
 7068                     	;
 7069  B79D     10          			.byte	010h
 7070                     	;
 7071  B79E     07          			.byte	007h
 7072                     	;
 7073  B79F     E0          			.byte	0e0h
 7074                     	;
 7075  B7A0     00          			.byte	000h
 7076                     	;
 7077  B7A1     03          			.byte	003h
 7078                     	;
 7079  B7A2     00          			.byte	000h
 7080                     	;
 7081  B7A3     07          			.byte	007h
 7082                     	;
 7083  B7A4     00          			.byte	000h
 7084                     	;
 7085  B7A5     0E          			.byte	00eh
 7086                     	;
 7087  B7A6     00          			.byte	000h
 7088                     	;
 7089  B7A7     1C          			.byte	01ch
  Sun Jan 12 14:21:22 2003                                                                                               Page  144




 7090                     	;
 7091  B7A8     00          			.byte	000h
 7092                     	;
 7093  B7A9     38          			.byte	038h
 7094                     	;
 7095  B7AA     00          			.byte	000h
 7096                     	;
 7097  B7AB     70          			.byte	070h
 7098                     	;
 7099  B7AC     00          			.byte	000h
 7100                     	;
 7101  B7AD     E0          			.byte	0e0h
 7102                     	;
 7103  B7AE     21          			.byte	021h
 7104                     	;
 7105  B7AF     C0          			.byte	0c0h
 7106                     	;
 7107  B7B0     33          			.byte	033h
 7108                     	;
 7109  B7B1     80          			.byte	080h
 7110                     	;
 7111  B7B2     17          			.byte	017h
 7112                     	;
 7113  B7B3     00          			.byte	000h
 7114                     	;
 7115  B7B4     1E          			.byte	01eh
 7116                     	;
 7117  B7B5     00          			.byte	000h
 7118                     	;
 7119  B7B6     0C          			.byte	00ch
 7120                     	;
 7121  B7B7     00          			.byte	000h
 7122                     	;
 7123  B7B8     17          			.byte	017h
 7124                     	;
 7125  B7B9     00          			.byte	000h
 7126                     	;
 7127  B7BA     21          			.byte	021h
 7128                     	;
 7129  B7BB     80          			.byte	080h
 7130                     	;
 7131  B7BC     40          			.byte	040h
 7132                     	;
 7133  B7BD     00          			.byte	000h
 7134                     	;
 7135  B7BE     80          			.byte	080h
 7136                     	;
 7137  B7BF     00          			.byte	000h
 7138                     	;
 7139  B7C0     00          			.byte	000h
 7140                     	;
 7141  B7C1     00          			.byte	000h
 7142                     	;
 7143  B7C2     00          			.byte	000h
 7144                     	;
 7145  B7C3     00          			.byte	000h
 7146                     	;
  Sun Jan 12 14:21:22 2003                                                                                               Page  145




 7147  B7C4     07          			.byte	007h
 7148                     	;
 7149  B7C5     FE          			.byte	0feh
 7150                     	;
 7151  B7C6     06          			.byte	006h
 7152                     	;
 7153  B7C7     04          			.byte	004h
 7154                     	;
 7155  B7C8     0F          			.byte	00fh
 7156                     	;
 7157  B7C9     F8          			.byte	0f8h
 7158                     	;
 7159  B7CA     0C          			.byte	00ch
 7160                     	;
 7161  B7CB     08          			.byte	008h
 7162                     	;
 7163  B7CC     1F          			.byte	01fh
 7164                     	;
 7165  B7CD     F0          			.byte	0f0h
 7166                     	;
 7167  B7CE     18          			.byte	018h
 7168                     	;
 7169  B7CF     20          			.byte	020h
 7170                     	;
 7171  B7D0     3F          			.byte	03fh
 7172                     	;
 7173  B7D1     C0          			.byte	0c0h
 7174                     	;
 7175  B7D2     30          			.byte	030h
 7176                     	;
 7177  B7D3     40          			.byte	040h
 7178                     	;
 7179  B7D4     7F          			.byte	07fh
 7180                     	;
 7181  B7D5     80          			.byte	080h
 7182                     	;
 7183  B7D6     60          			.byte	060h
 7184                     	;
 7185  B7D7     00          			.byte	000h
 7186                     	;
 7187  B7D8     60          			.byte	060h
 7188                     	;
 7189  B7D9     00          			.byte	000h
 7190                     	;
 7191  B7DA     90          			.byte	090h
 7192                     	;
 7193  B7DB     00          			.byte	000h
 7194                     	;
 7195  B7DC     90          			.byte	090h
 7196                     	;
 7197  B7DD     00          			.byte	000h
 7198                     	;
 7199  B7DE     60          			.byte	060h
 7200                     	;
 7201  B7DF     00          			.byte	000h
 7202                     	;
 7203  B7E0     00          			.byte	000h
  Sun Jan 12 14:21:22 2003                                                                                               Page  146




 7204                     	;
 7205  B7E1     00          			.byte	000h
 7206                     	;
 7207  B7E2     03          			.byte	003h
 7208                     	;
 7209  B7E3     80          			.byte	080h
 7210                     	;
 7211  B7E4     06          			.byte	006h
 7212                     	;
 7213  B7E5     C0          			.byte	0c0h
 7214                     	;
 7215  B7E6     03          			.byte	003h
 7216                     	;
 7217  B7E7     80          			.byte	080h
 7218                     	;
 7219  B7E8     02          			.byte	002h
 7220                     	;
 7221  B7E9     80          			.byte	080h
 7222                     	;
 7223  B7EA     02          			.byte	002h
 7224                     	;
 7225  B7EB     80          			.byte	080h
 7226                     	;
 7227  B7EC     02          			.byte	002h
 7228                     	;
 7229  B7ED     80          			.byte	080h
 7230                     	;
 7231  B7EE     0E          			.byte	00eh
 7232                     	;
 7233  B7EF     E0          			.byte	0e0h
 7234                     	;
 7235  B7F0     08          			.byte	008h
 7236                     	;
 7237  B7F1     20          			.byte	020h
 7238                     	;
 7239  B7F2     10          			.byte	010h
 7240                     	;
 7241  B7F3     10          			.byte	010h
 7242                     	;
 7243  B7F4     1F          			.byte	01fh
 7244                     	;
 7245  B7F5     F0          			.byte	0f0h
 7246                     	;
 7247  B7F6     1B          			.byte	01bh
 7248                     	;
 7249  B7F7     F0          			.byte	0f0h
 7250                     	;
 7251  B7F8     1D          			.byte	01dh
 7252                     	;
 7253  B7F9     F0          			.byte	0f0h
 7254                     	;
 7255  B7FA     0F          			.byte	00fh
 7256                     	;
 7257  B7FB     E0          			.byte	0e0h
 7258                     	;
 7259  B7FC     07          			.byte	007h
 7260                     	;
  Sun Jan 12 14:21:22 2003                                                                                               Page  147




 7261  B7FD     C0          			.byte	0c0h
 7262                     	;
 7263  B7FE     00          			.byte	000h
 7264                     	;
 7265  B7FF     00          			.byte	000h
 7266                     	;
 7267  B800     04          			.byte	004h
 7268                     	;
 7269  B801     07          			.byte	007h
 7270                     	;
 7271  B802     04          			.byte	004h
 7272                     	;
 7273  B803     0F          			.byte	00fh
 7274                     	;
 7275  B804     0A          			.byte	00ah
 7276                     	;
 7277  B805     1F          			.byte	01fh
 7278                     	;
 7279  B806     31          			.byte	031h
 7280                     	;
 7281  B807     BE          			.byte	0beh
 7282                     	;
 7283  B808     0A          			.byte	00ah
 7284                     	;
 7285  B809     7C          			.byte	07ch
 7286                     	;
 7287  B80A     04          			.byte	004h
 7288                     	;
 7289  B80B     F8          			.byte	0f8h
 7290                     	;
 7291  B80C     25          			.byte	025h
 7292                     	;
 7293  B80D     F0          			.byte	0f0h
 7294                     	;
 7295  B80E     33          			.byte	033h
 7296                     	;
 7297  B80F     E0          			.byte	0e0h
 7298                     	;
 7299  B810     1F          			.byte	01fh
 7300                     	;
 7301  B811     C0          			.byte	0c0h
 7302                     	;
 7303  B812     0F          			.byte	00fh
 7304                     	;
 7305  B813     84          			.byte	084h
 7306                     	;
 7307  B814     0F          			.byte	00fh
 7308                     	;
 7309  B815     04          			.byte	004h
 7310                     	;
 7311  B816     1F          			.byte	01fh
 7312                     	;
 7313  B817     1B          			.byte	01bh
 7314                     	;
 7315  B818     39          			.byte	039h
 7316                     	;
 7317  B819     84          			.byte	084h
  Sun Jan 12 14:21:22 2003                                                                                               Page  148




 7318                     	;
 7319  B81A     50          			.byte	050h
 7320                     	;
 7321  B81B     C4          			.byte	0c4h
 7322                     	;
 7323  B81C     E0          			.byte	0e0h
 7324                     	;
 7325  B81D     00          			.byte	000h
 7326                     	;
 7327  B81E     40          			.byte	040h
 7328                     	;
 7329  B81F     00          			.byte	000h
 7330                     	;
 7331  B820     1C          			.byte	01ch
 7332                     	;
 7333  B821     00          			.byte	000h
 7334                     	;
 7335  B822     03          			.byte	003h
 7336                     	;
 7337  B823     80          			.byte	080h
 7338                     	;
 7339  B824     00          			.byte	000h
 7340                     	;
 7341  B825     FC          			.byte	0fch
 7342                     	;
 7343  B826     00          			.byte	000h
 7344                     	;
 7345  B827     6C          			.byte	06ch
 7346                     	;
 7347  B828     00          			.byte	000h
 7348                     	;
 7349  B829     44          			.byte	044h
 7350                     	;
 7351  B82A     00          			.byte	000h
 7352                     	;
 7353  B82B     6C          			.byte	06ch
 7354                     	;
 7355  B82C     00          			.byte	000h
 7356                     	;
 7357  B82D     FC          			.byte	0fch
 7358                     	;
 7359  B82E     01          			.byte	001h
 7360                     	;
 7361  B82F     C6          			.byte	0c6h
 7362                     	;
 7363  B830     03          			.byte	003h
 7364                     	;
 7365  B831     82          			.byte	082h
 7366                     	;
 7367  B832     07          			.byte	007h
 7368                     	;
 7369  B833     02          			.byte	002h
 7370                     	;
 7371  B834     0E          			.byte	00eh
 7372                     	;
 7373  B835     01          			.byte	001h
 7374                     	;
  Sun Jan 12 14:21:22 2003                                                                                               Page  149




 7375  B836     14          			.byte	014h
 7376                     	;
 7377  B837     01          			.byte	001h
 7378                     	;
 7379  B838     28          			.byte	028h
 7380                     	;
 7381  B839     01          			.byte	001h
 7382                     	;
 7383  B83A     50          			.byte	050h
 7384                     	;
 7385  B83B     00          			.byte	000h
 7386                     	;
 7387  B83C     E0          			.byte	0e0h
 7388                     	;
 7389  B83D     00          			.byte	000h
 7390                     	;
 7391  B83E     40          			.byte	040h
 7392                     	;
 7393  B83F     00          			.byte	000h
 7394                     	;
 7395  B840     01          			.byte	001h
 7396                     	;
 7397  B841     40          			.byte	040h
 7398                     	;
 7399  B842     03          			.byte	003h
 7400                     	;
 7401  B843     E0          			.byte	0e0h
 7402                     	;
 7403  B844     01          			.byte	001h
 7404                     	;
 7405  B845     40          			.byte	040h
 7406                     	;
 7407  B846     01          			.byte	001h
 7408                     	;
 7409  B847     C0          			.byte	0c0h
 7410                     	;
 7411  B848     21          			.byte	021h
 7412                     	;
 7413  B849     C2          			.byte	0c2h
 7414                     	;
 7415  B84A     7F          			.byte	07fh
 7416                     	;
 7417  B84B     7F          			.byte	07fh
 7418                     	;
 7419  B84C     32          			.byte	032h
 7420                     	;
 7421  B84D     26          			.byte	026h
 7422                     	;
 7423  B84E     7F          			.byte	07fh
 7424                     	;
 7425  B84F     7F          			.byte	07fh
 7426                     	;
 7427  B850     21          			.byte	021h
 7428                     	;
 7429  B851     C2          			.byte	0c2h
 7430                     	;
 7431  B852     01          			.byte	001h
  Sun Jan 12 14:21:22 2003                                                                                               Page  150




 7432                     	;
 7433  B853     40          			.byte	040h
 7434                     	;
 7435  B854     01          			.byte	001h
 7436                     	;
 7437  B855     40          			.byte	040h
 7438                     	;
 7439  B856     01          			.byte	001h
 7440                     	;
 7441  B857     40          			.byte	040h
 7442                     	;
 7443  B858     01          			.byte	001h
 7444                     	;
 7445  B859     40          			.byte	040h
 7446                     	;
 7447  B85A     01          			.byte	001h
 7448                     	;
 7449  B85B     C0          			.byte	0c0h
 7450                     	;
 7451  B85C     03          			.byte	003h
 7452                     	;
 7453  B85D     E0          			.byte	0e0h
 7454                     	;
 7455  B85E     01          			.byte	001h
 7456                     	;
 7457  B85F     40          			.byte	040h
 7458                     	;
 7459  B860     00          			.byte	000h
 7460                     	;
 7461  B861     00          			.byte	000h
 7462                     	;
 7463  B862     00          			.byte	000h
 7464                     	;
 7465  B863     00          			.byte	000h
 7466                     	;
 7467  B864     00          			.byte	000h
 7468                     	;
 7469  B865     0C          			.byte	00ch
 7470                     	;
 7471  B866     00          			.byte	000h
 7472                     	;
 7473  B867     3C          			.byte	03ch
 7474                     	;
 7475  B868     00          			.byte	000h
 7476                     	;
 7477  B869     38          			.byte	038h
 7478                     	;
 7479  B86A     00          			.byte	000h
 7480                     	;
 7481  B86B     F0          			.byte	0f0h
 7482                     	;
 7483  B86C     00          			.byte	000h
 7484                     	;
 7485  B86D     E0          			.byte	0e0h
 7486                     	;
 7487  B86E     1F          			.byte	01fh
 7488                     	;
  Sun Jan 12 14:21:22 2003                                                                                               Page  151




 7489  B86F     C0          			.byte	0c0h
 7490                     	;
 7491  B870     3F          			.byte	03fh
 7492                     	;
 7493  B871     80          			.byte	080h
 7494                     	;
 7495  B872     7F          			.byte	07fh
 7496                     	;
 7497  B873     80          			.byte	080h
 7498                     	;
 7499  B874     7F          			.byte	07fh
 7500                     	;
 7501  B875     80          			.byte	080h
 7502                     	;
 7503  B876     67          			.byte	067h
 7504                     	;
 7505  B877     80          			.byte	080h
 7506                     	;
 7507  B878     67          			.byte	067h
 7508                     	;
 7509  B879     80          			.byte	080h
 7510                     	;
 7511  B87A     3F          			.byte	03fh
 7512                     	;
 7513  B87B     00          			.byte	000h
 7514                     	;
 7515  B87C     1E          			.byte	01eh
 7516                     	;
 7517  B87D     00          			.byte	000h
 7518                     	;
 7519  B87E     00          			.byte	000h
 7520                     	;
 7521  B87F     00          			.byte	000h
 7522                     	;
 7523  B880     00          			.byte	000h
 7524                     	;
 7525  B881     00          			.byte	000h
 7526                     	;
 7527  B882     1E          			.byte	01eh
 7528                     	;
 7529  B883     00          			.byte	000h
 7530                     	;
 7531  B884     3F          			.byte	03fh
 7532                     	;
 7533  B885     00          			.byte	000h
 7534                     	;
 7535  B886     67          			.byte	067h
 7536                     	;
 7537  B887     80          			.byte	080h
 7538                     	;
 7539  B888     67          			.byte	067h
 7540                     	;
 7541  B889     80          			.byte	080h
 7542                     	;
 7543  B88A     7F          			.byte	07fh
 7544                     	;
 7545  B88B     80          			.byte	080h
  Sun Jan 12 14:21:22 2003                                                                                               Page  152




 7546                     	;
 7547  B88C     7F          			.byte	07fh
 7548                     	;
 7549  B88D     80          			.byte	080h
 7550                     	;
 7551  B88E     3F          			.byte	03fh
 7552                     	;
 7553  B88F     80          			.byte	080h
 7554                     	;
 7555  B890     1F          			.byte	01fh
 7556                     	;
 7557  B891     E0          			.byte	0e0h
 7558                     	;
 7559  B892     00          			.byte	000h
 7560                     	;
 7561  B893     E0          			.byte	0e0h
 7562                     	;
 7563  B894     00          			.byte	000h
 7564                     	;
 7565  B895     78          			.byte	078h
 7566                     	;
 7567  B896     00          			.byte	000h
 7568                     	;
 7569  B897     38          			.byte	038h
 7570                     	;
 7571  B898     00          			.byte	000h
 7572                     	;
 7573  B899     1C          			.byte	01ch
 7574                     	;
 7575  B89A     00          			.byte	000h
 7576                     	;
 7577  B89B     0C          			.byte	00ch
 7578                     	;
 7579  B89C     00          			.byte	000h
 7580                     	;
 7581  B89D     00          			.byte	000h
 7582                     	;
 7583  B89E     00          			.byte	000h
 7584                     	;
 7585  B89F     00          			.byte	000h
 7586                     	;
 7587  B8A0     00          			.byte	000h
 7588                     	;
 7589  B8A1     00          			.byte	000h
 7590                     	;
 7591  B8A2     00          			.byte	000h
 7592                     	;
 7593  B8A3     00          			.byte	000h
 7594                     	;
 7595  B8A4     60          			.byte	060h
 7596                     	;
 7597  B8A5     00          			.byte	000h
 7598                     	;
 7599  B8A6     78          			.byte	078h
 7600                     	;
 7601  B8A7     00          			.byte	000h
 7602                     	;
  Sun Jan 12 14:21:22 2003                                                                                               Page  153




 7603  B8A8     38          			.byte	038h
 7604                     	;
 7605  B8A9     00          			.byte	000h
 7606                     	;
 7607  B8AA     1E          			.byte	01eh
 7608                     	;
 7609  B8AB     00          			.byte	000h
 7610                     	;
 7611  B8AC     0E          			.byte	00eh
 7612                     	;
 7613  B8AD     00          			.byte	000h
 7614                     	;
 7615  B8AE     07          			.byte	007h
 7616                     	;
 7617  B8AF     F0          			.byte	0f0h
 7618                     	;
 7619  B8B0     03          			.byte	003h
 7620                     	;
 7621  B8B1     F8          			.byte	0f8h
 7622                     	;
 7623  B8B2     03          			.byte	003h
 7624                     	;
 7625  B8B3     FC          			.byte	0fch
 7626                     	;
 7627  B8B4     03          			.byte	003h
 7628                     	;
 7629  B8B5     FC          			.byte	0fch
 7630                     	;
 7631  B8B6     03          			.byte	003h
 7632                     	;
 7633  B8B7     CC          			.byte	0cch
 7634                     	;
 7635  B8B8     03          			.byte	003h
 7636                     	;
 7637  B8B9     CC          			.byte	0cch
 7638                     	;
 7639  B8BA     01          			.byte	001h
 7640                     	;
 7641  B8BB     F8          			.byte	0f8h
 7642                     	;
 7643  B8BC     00          			.byte	000h
 7644                     	;
 7645  B8BD     F0          			.byte	0f0h
 7646                     	;
 7647  B8BE     00          			.byte	000h
 7648                     	;
 7649  B8BF     00          			.byte	000h
 7650                     	;
 7651  B8C0     00          			.byte	000h
 7652                     	;
 7653  B8C1     00          			.byte	000h
 7654                     	;
 7655  B8C2     00          			.byte	000h
 7656                     	;
 7657  B8C3     66          			.byte	066h
 7658                     	;
 7659  B8C4     00          			.byte	000h
  Sun Jan 12 14:21:22 2003                                                                                               Page  154




 7660                     	;
 7661  B8C5     3E          			.byte	03eh
 7662                     	;
 7663  B8C6     00          			.byte	000h
 7664                     	;
 7665  B8C7     1C          			.byte	01ch
 7666                     	;
 7667  B8C8     03          			.byte	003h
 7668                     	;
 7669  B8C9     38          			.byte	038h
 7670                     	;
 7671  B8CA     01          			.byte	001h
 7672                     	;
 7673  B8CB     F0          			.byte	0f0h
 7674                     	;
 7675  B8CC     00          			.byte	000h
 7676                     	;
 7677  B8CD     E0          			.byte	0e0h
 7678                     	;
 7679  B8CE     73          			.byte	073h
 7680                     	;
 7681  B8CF     C0          			.byte	0c0h
 7682                     	;
 7683  B8D0     7F          			.byte	07fh
 7684                     	;
 7685  B8D1     80          			.byte	080h
 7686                     	;
 7687  B8D2     7F          			.byte	07fh
 7688                     	;
 7689  B8D3     80          			.byte	080h
 7690                     	;
 7691  B8D4     7E          			.byte	07eh
 7692                     	;
 7693  B8D5     00          			.byte	000h
 7694                     	;
 7695  B8D6     67          			.byte	067h
 7696                     	;
 7697  B8D7     80          			.byte	080h
 7698                     	;
 7699  B8D8     67          			.byte	067h
 7700                     	;
 7701  B8D9     80          			.byte	080h
 7702                     	;
 7703  B8DA     3F          			.byte	03fh
 7704                     	;
 7705  B8DB     80          			.byte	080h
 7706                     	;
 7707  B8DC     1F          			.byte	01fh
 7708                     	;
 7709  B8DD     80          			.byte	080h
 7710                     	;
 7711  B8DE     00          			.byte	000h
 7712                     	;
 7713  B8DF     00          			.byte	000h
 7714                     	;
 7715  B8E0     03          			.byte	003h
 7716                     	;
  Sun Jan 12 14:21:22 2003                                                                                               Page  155




 7717  B8E1     FF          			.byte	0ffh
 7718                     	;
 7719  B8E2     03          			.byte	003h
 7720                     	;
 7721  B8E3     02          			.byte	002h
 7722                     	;
 7723  B8E4     07          			.byte	007h
 7724                     	;
 7725  B8E5     FE          			.byte	0feh
 7726                     	;
 7727  B8E6     06          			.byte	006h
 7728                     	;
 7729  B8E7     04          			.byte	004h
 7730                     	;
 7731  B8E8     0F          			.byte	00fh
 7732                     	;
 7733  B8E9     F8          			.byte	0f8h
 7734                     	;
 7735  B8EA     0C          			.byte	00ch
 7736                     	;
 7737  B8EB     08          			.byte	008h
 7738                     	;
 7739  B8EC     1F          			.byte	01fh
 7740                     	;
 7741  B8ED     F0          			.byte	0f0h
 7742                     	;
 7743  B8EE     18          			.byte	018h
 7744                     	;
 7745  B8EF     20          			.byte	020h
 7746                     	;
 7747  B8F0     3F          			.byte	03fh
 7748                     	;
 7749  B8F1     C0          			.byte	0c0h
 7750                     	;
 7751  B8F2     30          			.byte	030h
 7752                     	;
 7753  B8F3     40          			.byte	040h
 7754                     	;
 7755  B8F4     7F          			.byte	07fh
 7756                     	;
 7757  B8F5     80          			.byte	080h
 7758                     	;
 7759  B8F6     70          			.byte	070h
 7760                     	;
 7761  B8F7     00          			.byte	000h
 7762                     	;
 7763  B8F8     88          			.byte	088h
 7764                     	;
 7765  B8F9     00          			.byte	000h
 7766                     	;
 7767  B8FA     A8          			.byte	0a8h
 7768                     	;
 7769  B8FB     00          			.byte	000h
 7770                     	;
 7771  B8FC     88          			.byte	088h
 7772                     	;
 7773  B8FD     00          			.byte	000h
  Sun Jan 12 14:21:22 2003                                                                                               Page  156




 7774                     	;
 7775  B8FE     70          			.byte	070h
 7776                     	;
 7777  B8FF     00          			.byte	000h
 7778                     	;
 7779  B900     03          			.byte	003h
 7780                     	;
 7781  B901     C0          			.byte	0c0h
 7782                     	;
 7783  B902     07          			.byte	007h
 7784                     	;
 7785  B903     E0          			.byte	0e0h
 7786                     	;
 7787  B904     02          			.byte	002h
 7788                     	;
 7789  B905     40          			.byte	040h
 7790                     	;
 7791  B906     3B          			.byte	03bh
 7792                     	;
 7793  B907     DC          			.byte	0dch
 7794                     	;
 7795  B908     79          			.byte	079h
 7796                     	;
 7797  B909     9E          			.byte	09eh
 7798                     	;
 7799  B90A     FC          			.byte	0fch
 7800                     	;
 7801  B90B     3F          			.byte	03fh
 7802                     	;
 7803  B90C     E1          			.byte	0e1h
 7804                     	;
 7805  B90D     87          			.byte	087h
 7806                     	;
 7807  B90E     1B          			.byte	01bh
 7808                     	;
 7809  B90F     D8          			.byte	0d8h
 7810                     	;
 7811  B910     E2          			.byte	0e2h
 7812                     	;
 7813  B911     47          			.byte	047h
 7814                     	;
 7815  B912     0B          			.byte	00bh
 7816                     	;
 7817  B913     D0          			.byte	0d0h
 7818                     	;
 7819  B914     7B          			.byte	07bh
 7820                     	;
 7821  B915     DE          			.byte	0deh
 7822                     	;
 7823  B916     79          			.byte	079h
 7824                     	;
 7825  B917     9E          			.byte	09eh
 7826                     	;
 7827  B918     7B          			.byte	07bh
 7828                     	;
 7829  B919     DE          			.byte	0deh
 7830                     	;
  Sun Jan 12 14:21:22 2003                                                                                               Page  157




 7831  B91A     37          			.byte	037h
 7832                     	;
 7833  B91B     EC          			.byte	0ech
 7834                     	;
 7835  B91C     23          			.byte	023h
 7836                     	;
 7837  B91D     C4          			.byte	0c4h
 7838                     	;
 7839  B91E     1E          			.byte	01eh
 7840                     	;
 7841  B91F     78          			.byte	078h
 7842                     	;
 7843  B920     07          			.byte	007h
 7844                     	;
 7845  B921     E0          			.byte	0e0h
 7846                     	;
 7847  B922     08          			.byte	008h
 7848                     	;
 7849  B923     10          			.byte	010h
 7850                     	;
 7851  B924     3E          			.byte	03eh
 7852                     	;
 7853  B925     7E          			.byte	07eh
 7854                     	;
 7855  B926     48          			.byte	048h
 7856                     	;
 7857  B927     13          			.byte	013h
 7858                     	;
 7859  B928     85          			.byte	085h
 7860                     	;
 7861  B929     A1          			.byte	0a1h
 7862                     	;
 7863  B92A     8A          			.byte	08ah
 7864                     	;
 7865  B92B     51          			.byte	051h
 7866                     	;
 7867  B92C     F1          			.byte	0f1h
 7868                     	;
 7869  B92D     8F          			.byte	08fh
 7870                     	;
 7871  B92E     96          			.byte	096h
 7872                     	;
 7873  B92F     69          			.byte	069h
 7874                     	;
 7875  B930     89          			.byte	089h
 7876                     	;
 7877  B931     91          			.byte	091h
 7878                     	;
 7879  B932     EA          			.byte	0eah
 7880                     	;
 7881  B933     57          			.byte	057h
 7882                     	;
 7883  B934     91          			.byte	091h
 7884                     	;
 7885  B935     89          			.byte	089h
 7886                     	;
 7887  B936     60          			.byte	060h
  Sun Jan 12 14:21:22 2003                                                                                               Page  158




 7888                     	;
 7889  B937     06          			.byte	006h
 7890                     	;
 7891  B938     2D          			.byte	02dh
 7892                     	;
 7893  B939     B4          			.byte	0b4h
 7894                     	;
 7895  B93A     32          			.byte	032h
 7896                     	;
 7897  B93B     4C          			.byte	04ch
 7898                     	;
 7899  B93C     42          			.byte	042h
 7900                     	;
 7901  B93D     42          			.byte	042h
 7902                     	;
 7903  B93E     7E          			.byte	07eh
 7904                     	;
 7905  B93F     7E          			.byte	07eh
 7906                     	;
 7907  B940     00          			.byte	000h
 7908                     	;
 7909  B941     00          			.byte	000h
 7910                     	;
 7911  B942     00          			.byte	000h
 7912                     	;
 7913  B943     00          			.byte	000h
 7914                     	;
 7915  B944     10          			.byte	010h
 7916                     	;
 7917  B945     10          			.byte	010h
 7918                     	;
 7919  B946     30          			.byte	030h
 7920                     	;
 7921  B947     18          			.byte	018h
 7922                     	;
 7923  B948     72          			.byte	072h
 7924                     	;
 7925  B949     9C          			.byte	09ch
 7926                     	;
 7927  B94A     7B          			.byte	07bh
 7928                     	;
 7929  B94B     BC          			.byte	0bch
 7930                     	;
 7931  B94C     FF          			.byte	0ffh
 7932                     	;
 7933  B94D     FE          			.byte	0feh
 7934                     	;
 7935  B94E     FD          			.byte	0fdh
 7936                     	;
 7937  B94F     7E          			.byte	07eh
 7938                     	;
 7939  B950     FF          			.byte	0ffh
 7940                     	;
 7941  B951     FE          			.byte	0feh
 7942                     	;
 7943  B952     7F          			.byte	07fh
 7944                     	;
  Sun Jan 12 14:21:22 2003                                                                                               Page  159




 7945  B953     FC          			.byte	0fch
 7946                     	;
 7947  B954     3D          			.byte	03dh
 7948                     	;
 7949  B955     7C          			.byte	07ch
 7950                     	;
 7951  B956     38          			.byte	038h
 7952                     	;
 7953  B957     38          			.byte	038h
 7954                     	;
 7955  B958     18          			.byte	018h
 7956                     	;
 7957  B959     30          			.byte	030h
 7958                     	;
 7959  B95A     10          			.byte	010h
 7960                     	;
 7961  B95B     10          			.byte	010h
 7962                     	;
 7963  B95C     00          			.byte	000h
 7964                     	;
 7965  B95D     00          			.byte	000h
 7966                     	;
 7967  B95E     00          			.byte	000h
 7968                     	;
 7969  B95F     00          			.byte	000h
 7970                     	;
 7971  B960     00          			.byte	000h
 7972                     	;
 7973  B961     00          			.byte	000h
 7974                     	;
 7975  B962     00          			.byte	000h
 7976                     	;
 7977  B963     00          			.byte	000h
 7978                     	;
 7979  B964     0F          			.byte	00fh
 7980                     	;
 7981  B965     E0          			.byte	0e0h
 7982                     	;
 7983  B966     18          			.byte	018h
 7984                     	;
 7985  B967     30          			.byte	030h
 7986                     	;
 7987  B968     30          			.byte	030h
 7988                     	;
 7989  B969     18          			.byte	018h
 7990                     	;
 7991  B96A     6E          			.byte	06eh
 7992                     	;
 7993  B96B     EC          			.byte	0ech
 7994                     	;
 7995  B96C     51          			.byte	051h
 7996                     	;
 7997  B96D     14          			.byte	014h
 7998                     	;
 7999  B96E     D5          			.byte	0d5h
 8000                     	;
 8001  B96F     56          			.byte	056h
  Sun Jan 12 14:21:22 2003                                                                                               Page  160




 8002                     	;
 8003  B970     91          			.byte	091h
 8004                     	;
 8005  B971     12          			.byte	012h
 8006                     	;
 8007  B972     8E          			.byte	08eh
 8008                     	;
 8009  B973     E2          			.byte	0e2h
 8010                     	;
 8011  B974     80          			.byte	080h
 8012                     	;
 8013  B975     02          			.byte	002h
 8014                     	;
 8015  B976     C0          			.byte	0c0h
 8016                     	;
 8017  B977     06          			.byte	006h
 8018                     	;
 8019  B978     60          			.byte	060h
 8020                     	;
 8021  B979     0C          			.byte	00ch
 8022                     	;
 8023  B97A     38          			.byte	038h
 8024                     	;
 8025  B97B     18          			.byte	018h
 8026                     	;
 8027  B97C     0F          			.byte	00fh
 8028                     	;
 8029  B97D     F0          			.byte	0f0h
 8030                     	;
 8031  B97E     00          			.byte	000h
 8032                     	;
 8033  B97F     00          			.byte	000h
 8034                     	;
 8035  B980     07          			.byte	007h
 8036                     	;
 8037  B981     C0          			.byte	0c0h
 8038                     	;
 8039  B982     0C          			.byte	00ch
 8040                     	;
 8041  B983     60          			.byte	060h
 8042                     	;
 8043  B984     0E          			.byte	00eh
 8044                     	;
 8045  B985     E0          			.byte	0e0h
 8046                     	;
 8047  B986     08          			.byte	008h
 8048                     	;
 8049  B987     20          			.byte	020h
 8050                     	;
 8051  B988     7C          			.byte	07ch
 8052                     	;
 8053  B989     7E          			.byte	07eh
 8054                     	;
 8055  B98A     FF          			.byte	0ffh
 8056                     	;
 8057  B98B     FF          			.byte	0ffh
 8058                     	;
  Sun Jan 12 14:21:22 2003                                                                                               Page  161




 8059  B98C     BE          			.byte	0beh
 8060                     	;
 8061  B98D     FD          			.byte	0fdh
 8062                     	;
 8063  B98E     DC          			.byte	0dch
 8064                     	;
 8065  B98F     7B          			.byte	07bh
 8066                     	;
 8067  B990     B6          			.byte	0b6h
 8068                     	;
 8069  B991     ED          			.byte	0edh
 8070                     	;
 8071  B992     E6          			.byte	0e6h
 8072                     	;
 8073  B993     C7          			.byte	0c7h
 8074                     	;
 8075  B994     47          			.byte	047h
 8076                     	;
 8077  B995     C2          			.byte	0c2h
 8078                     	;
 8079  B996     0F          			.byte	00fh
 8080                     	;
 8081  B997     E0          			.byte	0e0h
 8082                     	;
 8083  B998     0F          			.byte	00fh
 8084                     	;
 8085  B999     E0          			.byte	0e0h
 8086                     	;
 8087  B99A     1F          			.byte	01fh
 8088                     	;
 8089  B99B     F0          			.byte	0f0h
 8090                     	;
 8091  B99C     3F          			.byte	03fh
 8092                     	;
 8093  B99D     F8          			.byte	0f8h
 8094                     	;
 8095  B99E     1F          			.byte	01fh
 8096                     	;
 8097  B99F     F0          			.byte	0f0h
 8098                     	;
 8099  B9A0     03          			.byte	003h
 8100                     	;
 8101  B9A1     C0          			.byte	0c0h
 8102                     	;
 8103  B9A2     04          			.byte	004h
 8104                     	;
 8105  B9A3     20          			.byte	020h
 8106                     	;
 8107  B9A4     07          			.byte	007h
 8108                     	;
 8109  B9A5     E0          			.byte	0e0h
 8110                     	;
 8111  B9A6     07          			.byte	007h
 8112                     	;
 8113  B9A7     E0          			.byte	0e0h
 8114                     	;
 8115  B9A8     69          			.byte	069h
  Sun Jan 12 14:21:22 2003                                                                                               Page  162




 8116                     	;
 8117  B9A9     96          			.byte	096h
 8118                     	;
 8119  B9AA     FE          			.byte	0feh
 8120                     	;
 8121  B9AB     7F          			.byte	07fh
 8122                     	;
 8123  B9AC     6F          			.byte	06fh
 8124                     	;
 8125  B9AD     F6          			.byte	0f6h
 8126                     	;
 8127  B9AE     9E          			.byte	09eh
 8128                     	;
 8129  B9AF     79          			.byte	079h
 8130                     	;
 8131  B9B0     ED          			.byte	0edh
 8132                     	;
 8133  B9B1     B7          			.byte	0b7h
 8134                     	;
 8135  B9B2     F6          			.byte	0f6h
 8136                     	;
 8137  B9B3     6F          			.byte	06fh
 8138                     	;
 8139  B9B4     F7          			.byte	0f7h
 8140                     	;
 8141  B9B5     EF          			.byte	0efh
 8142                     	;
 8143  B9B6     4F          			.byte	04fh
 8144                     	;
 8145  B9B7     F2          			.byte	0f2h
 8146                     	;
 8147  B9B8     3F          			.byte	03fh
 8148                     	;
 8149  B9B9     FC          			.byte	0fch
 8150                     	;
 8151  B9BA     2E          			.byte	02eh
 8152                     	;
 8153  B9BB     74          			.byte	074h
 8154                     	;
 8155  B9BC     7E          			.byte	07eh
 8156                     	;
 8157  B9BD     7E          			.byte	07eh
 8158                     	;
 8159  B9BE     7E          			.byte	07eh
 8160                     	;
 8161  B9BF     7E          			.byte	07eh
 8162                     	;
 8163  B9C0     00          			.byte	000h
 8164                     	;
 8165  B9C1     00          			.byte	000h
 8166                     	;
 8167  B9C2     08          			.byte	008h
 8168                     	;
 8169  B9C3     10          			.byte	010h
 8170                     	;
 8171  B9C4     05          			.byte	005h
 8172                     	;
  Sun Jan 12 14:21:22 2003                                                                                               Page  163




 8173  B9C5     A0          			.byte	0a0h
 8174                     	;
 8175  B9C6     03          			.byte	003h
 8176                     	;
 8177  B9C7     C0          			.byte	0c0h
 8178                     	;
 8179  B9C8     07          			.byte	007h
 8180                     	;
 8181  B9C9     F0          			.byte	0f0h
 8182                     	;
 8183  B9CA     1D          			.byte	01dh
 8184                     	;
 8185  B9CB     B8          			.byte	0b8h
 8186                     	;
 8187  B9CC     3A          			.byte	03ah
 8188                     	;
 8189  B9CD     5C          			.byte	05ch
 8190                     	;
 8191  B9CE     7D          			.byte	07dh
 8192                     	;
 8193  B9CF     BE          			.byte	0beh
 8194                     	;
 8195  B9D0     FF          			.byte	0ffh
 8196                     	;
 8197  B9D1     FF          			.byte	0ffh
 8198                     	;
 8199  B9D2     FE          			.byte	0feh
 8200                     	;
 8201  B9D3     7F          			.byte	07fh
 8202                     	;
 8203  B9D4     FF          			.byte	0ffh
 8204                     	;
 8205  B9D5     FF          			.byte	0ffh
 8206                     	;
 8207  B9D6     FF          			.byte	0ffh
 8208                     	;
 8209  B9D7     FF          			.byte	0ffh
 8210                     	;
 8211  B9D8     FF          			.byte	0ffh
 8212                     	;
 8213  B9D9     FF          			.byte	0ffh
 8214                     	;
 8215  B9DA     7F          			.byte	07fh
 8216                     	;
 8217  B9DB     FE          			.byte	0feh
 8218                     	;
 8219  B9DC     3F          			.byte	03fh
 8220                     	;
 8221  B9DD     F8          			.byte	0f8h
 8222                     	;
 8223  B9DE     0F          			.byte	00fh
 8224                     	;
 8225  B9DF     F0          			.byte	0f0h
 8226                     	;
 8227  B9E0     00          			.byte	000h
 8228                     	;
 8229  B9E1     00          			.byte	000h
  Sun Jan 12 14:21:22 2003                                                                                               Page  164




 8230                     	;
 8231  B9E2     00          			.byte	000h
 8232                     	;
 8233  B9E3     00          			.byte	000h
 8234                     	;
 8235  B9E4     0F          			.byte	00fh
 8236                     	;
 8237  B9E5     E0          			.byte	0e0h
 8238                     	;
 8239  B9E6     1F          			.byte	01fh
 8240                     	;
 8241  B9E7     F0          			.byte	0f0h
 8242                     	;
 8243  B9E8     3F          			.byte	03fh
 8244                     	;
 8245  B9E9     F8          			.byte	0f8h
 8246                     	;
 8247  B9EA     63          			.byte	063h
 8248                     	;
 8249  B9EB     8C          			.byte	08ch
 8250                     	;
 8251  B9EC     49          			.byte	049h
 8252                     	;
 8253  B9ED     24          			.byte	024h
 8254                     	;
 8255  B9EE     C9          			.byte	0c9h
 8256                     	;
 8257  B9EF     26          			.byte	026h
 8258                     	;
 8259  B9F0     C9          			.byte	0c9h
 8260                     	;
 8261  B9F1     26          			.byte	026h
 8262                     	;
 8263  B9F2     E3          			.byte	0e3h
 8264                     	;
 8265  B9F3     8E          			.byte	08eh
 8266                     	;
 8267  B9F4     FF          			.byte	0ffh
 8268                     	;
 8269  B9F5     FE          			.byte	0feh
 8270                     	;
 8271  B9F6     FF          			.byte	0ffh
 8272                     	;
 8273  B9F7     FE          			.byte	0feh
 8274                     	;
 8275  B9F8     7F          			.byte	07fh
 8276                     	;
 8277  B9F9     FC          			.byte	0fch
 8278                     	;
 8279  B9FA     3F          			.byte	03fh
 8280                     	;
 8281  B9FB     F8          			.byte	0f8h
 8282                     	;
 8283  B9FC     0F          			.byte	00fh
 8284                     	;
 8285  B9FD     F0          			.byte	0f0h
 8286                     	;
  Sun Jan 12 14:21:22 2003                                                                                               Page  165




 8287  B9FE     00          			.byte	000h
 8288                     	;
 8289  B9FF     00          			.byte	000h
 8290                     	;
 8291  BA00     01          			.byte	001h
 8292                     	;
 8293  BA01     86          			.byte	086h
 8294                     	;
 8295  BA02     03          			.byte	003h
 8296                     	;
 8297  BA03     C9          			.byte	0c9h
 8298                     	;
 8299  BA04     04          			.byte	004h
 8300                     	;
 8301  BA05     2B          			.byte	02bh
 8302                     	;
 8303  BA06     3C          			.byte	03ch
 8304                     	;
 8305  BA07     3F          			.byte	03fh
 8306                     	;
 8307  BA08     43          			.byte	043h
 8308                     	;
 8309  BA09     CA          			.byte	0cah
 8310                     	;
 8311  BA0A     30          			.byte	030h
 8312                     	;
 8313  BA0B     14          			.byte	014h
 8314                     	;
 8315  BA0C     0F          			.byte	00fh
 8316                     	;
 8317  BA0D     E8          			.byte	0e8h
 8318                     	;
 8319  BA0E     10          			.byte	010h
 8320                     	;
 8321  BA0F     64          			.byte	064h
 8322                     	;
 8323  BA10     24          			.byte	024h
 8324                     	;
 8325  BA11     92          			.byte	092h
 8326                     	;
 8327  BA12     49          			.byte	049h
 8328                     	;
 8329  BA13     D2          			.byte	0d2h
 8330                     	;
 8331  BA14     46          			.byte	046h
 8332                     	;
 8333  BA15     EA          			.byte	0eah
 8334                     	;
 8335  BA16     2D          			.byte	02dh
 8336                     	;
 8337  BA17     22          			.byte	022h
 8338                     	;
 8339  BA18     D2          			.byte	0d2h
 8340                     	;
 8341  BA19     17          			.byte	017h
 8342                     	;
 8343  BA1A     92          			.byte	092h
  Sun Jan 12 14:21:22 2003                                                                                               Page  166




 8344                     	;
 8345  BA1B     09          			.byte	009h
 8346                     	;
 8347  BA1C     6C          			.byte	06ch
 8348                     	;
 8349  BA1D     0E          			.byte	00eh
 8350                     	;
 8351  BA1E     1F          			.byte	01fh
 8352                     	;
 8353  BA1F     F0          			.byte	0f0h
 8354                     	;
 8355  BA20     04          			.byte	004h
 8356                     	;
 8357  BA21     20          			.byte	020h
 8358                     	;
 8359  BA22     07          			.byte	007h
 8360                     	;
 8361  BA23     E0          			.byte	0e0h
 8362                     	;
 8363  BA24     03          			.byte	003h
 8364                     	;
 8365  BA25     C0          			.byte	0c0h
 8366                     	;
 8367  BA26     3A          			.byte	03ah
 8368                     	;
 8369  BA27     5C          			.byte	05ch
 8370                     	;
 8371  BA28     79          			.byte	079h
 8372                     	;
 8373  BA29     9E          			.byte	09eh
 8374                     	;
 8375  BA2A     FD          			.byte	0fdh
 8376                     	;
 8377  BA2B     BF          			.byte	0bfh
 8378                     	;
 8379  BA2C     E2          			.byte	0e2h
 8380                     	;
 8381  BA2D     47          			.byte	047h
 8382                     	;
 8383  BA2E     19          			.byte	019h
 8384                     	;
 8385  BA2F     98          			.byte	098h
 8386                     	;
 8387  BA30     E2          			.byte	0e2h
 8388                     	;
 8389  BA31     47          			.byte	047h
 8390                     	;
 8391  BA32     09          			.byte	009h
 8392                     	;
 8393  BA33     90          			.byte	090h
 8394                     	;
 8395  BA34     7A          			.byte	07ah
 8396                     	;
 8397  BA35     5E          			.byte	05eh
 8398                     	;
 8399  BA36     7A          			.byte	07ah
 8400                     	;
  Sun Jan 12 14:21:22 2003                                                                                               Page  167




 8401  BA37     5E          			.byte	05eh
 8402                     	;
 8403  BA38     7D          			.byte	07dh
 8404                     	;
 8405  BA39     BE          			.byte	0beh
 8406                     	;
 8407  BA3A     37          			.byte	037h
 8408                     	;
 8409  BA3B     EC          			.byte	0ech
 8410                     	;
 8411  BA3C     23          			.byte	023h
 8412                     	;
 8413  BA3D     C4          			.byte	0c4h
 8414                     	;
 8415  BA3E     1E          			.byte	01eh
 8416                     	;
 8417  BA3F     78          			.byte	078h
 8418                     	;
 8419  BA40     45          			.byte	045h
 8420                     	;
 8421  BA41     A0          			.byte	0a0h
 8422                     	;
 8423  BA42     47          			.byte	047h
 8424                     	;
 8425  BA43     E0          			.byte	0e0h
 8426                     	;
 8427  BA44     AD          			.byte	0adh
 8428                     	;
 8429  BA45     B0          			.byte	0b0h
 8430                     	;
 8431  BA46     BA          			.byte	0bah
 8432                     	;
 8433  BA47     5E          			.byte	05eh
 8434                     	;
 8435  BA48     AB          			.byte	0abh
 8436                     	;
 8437  BA49     FF          			.byte	0ffh
 8438                     	;
 8439  BA4A     AE          			.byte	0aeh
 8440                     	;
 8441  BA4B     41          			.byte	041h
 8442                     	;
 8443  BA4C     A3          			.byte	0a3h
 8444                     	;
 8445  BA4D     C9          			.byte	0c9h
 8446                     	;
 8447  BA4E     AC          			.byte	0ach
 8448                     	;
 8449  BA4F     5D          			.byte	05dh
 8450                     	;
 8451  BA50     BB          			.byte	0bbh
 8452                     	;
 8453  BA51     C9          			.byte	0c9h
 8454                     	;
 8455  BA52     E5          			.byte	0e5h
 8456                     	;
 8457  BA53     C9          			.byte	0c9h
  Sun Jan 12 14:21:22 2003                                                                                               Page  168




 8458                     	;
 8459  BA54     AA          			.byte	0aah
 8460                     	;
 8461  BA55     62          			.byte	062h
 8462                     	;
 8463  BA56     F2          			.byte	0f2h
 8464                     	;
 8465  BA57     54          			.byte	054h
 8466                     	;
 8467  BA58     4F          			.byte	04fh
 8468                     	;
 8469  BA59     F8          			.byte	0f8h
 8470                     	;
 8471  BA5A     09          			.byte	009h
 8472                     	;
 8473  BA5B     90          			.byte	090h
 8474                     	;
 8475  BA5C     32          			.byte	032h
 8476                     	;
 8477  BA5D     4C          			.byte	04ch
 8478                     	;
 8479  BA5E     3E          			.byte	03eh
 8480                     	;
 8481  BA5F     7C          			.byte	07ch
 8482                     	;
 8483  BA60     47          			.byte	047h
 8484                     	;
 8485  BA61     E0          			.byte	0e0h
 8486                     	;
 8487  BA62     48          			.byte	048h
 8488                     	;
 8489  BA63     10          			.byte	010h
 8490                     	;
 8491  BA64     B5          			.byte	0b5h
 8492                     	;
 8493  BA65     A8          			.byte	0a8h
 8494                     	;
 8495  BA66     B5          			.byte	0b5h
 8496                     	;
 8497  BA67     AE          			.byte	0aeh
 8498                     	;
 8499  BA68     AD          			.byte	0adh
 8500                     	;
 8501  BA69     B1          			.byte	0b1h
 8502                     	;
 8503  BA6A     B7          			.byte	0b7h
 8504                     	;
 8505  BA6B     FF          			.byte	0ffh
 8506                     	;
 8507  BA6C     A8          			.byte	0a8h
 8508                     	;
 8509  BA6D     21          			.byte	021h
 8510                     	;
 8511  BA6E     AF          			.byte	0afh
 8512                     	;
 8513  BA6F     ED          			.byte	0edh
 8514                     	;
  Sun Jan 12 14:21:22 2003                                                                                               Page  169




 8515  BA70     B2          			.byte	0b2h
 8516                     	;
 8517  BA71     7F          			.byte	07fh
 8518                     	;
 8519  BA72     E1          			.byte	0e1h
 8520                     	;
 8521  BA73     AD          			.byte	0adh
 8522                     	;
 8523  BA74     A6          			.byte	0a6h
 8524                     	;
 8525  BA75     61          			.byte	061h
 8526                     	;
 8527  BA76     F2          			.byte	0f2h
 8528                     	;
 8529  BA77     52          			.byte	052h
 8530                     	;
 8531  BA78     4E          			.byte	04eh
 8532                     	;
 8533  BA79     7C          			.byte	07ch
 8534                     	;
 8535  BA7A     09          			.byte	009h
 8536                     	;
 8537  BA7B     90          			.byte	090h
 8538                     	;
 8539  BA7C     12          			.byte	012h
 8540                     	;
 8541  BA7D     48          			.byte	048h
 8542                     	;
 8543  BA7E     3E          			.byte	03eh
 8544                     	;
 8545  BA7F     7C          			.byte	07ch
 8546                     	;
 8547  BA80     07          			.byte	007h
 8548                     	;
 8549  BA81     C0          			.byte	0c0h
 8550                     	;
 8551  BA82     09          			.byte	009h
 8552                     	;
 8553  BA83     20          			.byte	020h
 8554                     	;
 8555  BA84     09          			.byte	009h
 8556                     	;
 8557  BA85     20          			.byte	020h
 8558                     	;
 8559  BA86     8E          			.byte	08eh
 8560                     	;
 8561  BA87     E0          			.byte	0e0h
 8562                     	;
 8563  BA88     87          			.byte	087h
 8564                     	;
 8565  BA89     C0          			.byte	0c0h
 8566                     	;
 8567  BA8A     64          			.byte	064h
 8568                     	;
 8569  BA8B     7F          			.byte	07fh
 8570                     	;
 8571  BA8C     7B          			.byte	07bh
  Sun Jan 12 14:21:22 2003                                                                                               Page  170




 8572                     	;
 8573  BA8D     BB          			.byte	0bbh
 8574                     	;
 8575  BA8E     69          			.byte	069h
 8576                     	;
 8577  BA8F     31          			.byte	031h
 8578                     	;
 8579  BA90     2F          			.byte	02fh
 8580                     	;
 8581  BA91     FB          			.byte	0fbh
 8582                     	;
 8583  BA92     29          			.byte	029h
 8584                     	;
 8585  BA93     3B          			.byte	03bh
 8586                     	;
 8587  BA94     37          			.byte	037h
 8588                     	;
 8589  BA95     DB          			.byte	0dbh
 8590                     	;
 8591  BA96     31          			.byte	031h
 8592                     	;
 8593  BA97     1F          			.byte	01fh
 8594                     	;
 8595  BA98     0E          			.byte	00eh
 8596                     	;
 8597  BA99     CE          			.byte	0ceh
 8598                     	;
 8599  BA9A     04          			.byte	004h
 8600                     	;
 8601  BA9B     44          			.byte	044h
 8602                     	;
 8603  BA9C     0C          			.byte	00ch
 8604                     	;
 8605  BA9D     60          			.byte	060h
 8606                     	;
 8607  BA9E     0C          			.byte	00ch
 8608                     	;
 8609  BA9F     60          			.byte	060h
 8610                     	;
 8611  BAA0     07          			.byte	007h
 8612                     	;
 8613  BAA1     C0          			.byte	0c0h
 8614                     	;
 8615  BAA2     09          			.byte	009h
 8616                     	;
 8617  BAA3     20          			.byte	020h
 8618                     	;
 8619  BAA4     09          			.byte	009h
 8620                     	;
 8621  BAA5     20          			.byte	020h
 8622                     	;
 8623  BAA6     0E          			.byte	00eh
 8624                     	;
 8625  BAA7     E0          			.byte	0e0h
 8626                     	;
 8627  BAA8     47          			.byte	047h
 8628                     	;
  Sun Jan 12 14:21:22 2003                                                                                               Page  171




 8629  BAA9     C4          			.byte	0c4h
 8630                     	;
 8631  BAAA     70          			.byte	070h
 8632                     	;
 8633  BAAB     1C          			.byte	01ch
 8634                     	;
 8635  BAAC     CB          			.byte	0cbh
 8636                     	;
 8637  BAAD     A6          			.byte	0a6h
 8638                     	;
 8639  BAAE     8C          			.byte	08ch
 8640                     	;
 8641  BAAF     62          			.byte	062h
 8642                     	;
 8643  BAB0     8D          			.byte	08dh
 8644                     	;
 8645  BAB1     62          			.byte	062h
 8646                     	;
 8647  BAB2     8D          			.byte	08dh
 8648                     	;
 8649  BAB3     62          			.byte	062h
 8650                     	;
 8651  BAB4     C1          			.byte	0c1h
 8652                     	;
 8653  BAB5     06          			.byte	006h
 8654                     	;
 8655  BAB6     CE          			.byte	0ceh
 8656                     	;
 8657  BAB7     E6          			.byte	0e6h
 8658                     	;
 8659  BAB8     04          			.byte	004h
 8660                     	;
 8661  BAB9     40          			.byte	040h
 8662                     	;
 8663  BABA     04          			.byte	004h
 8664                     	;
 8665  BABB     40          			.byte	040h
 8666                     	;
 8667  BABC     0C          			.byte	00ch
 8668                     	;
 8669  BABD     60          			.byte	060h
 8670                     	;
 8671  BABE     0C          			.byte	00ch
 8672                     	;
 8673  BABF     60          			.byte	060h
 8674                     	;
 8675  BAC0     03          			.byte	003h
 8676                     	;
 8677  BAC1     E0          			.byte	0e0h
 8678                     	;
 8679  BAC2     04          			.byte	004h
 8680                     	;
 8681  BAC3     90          			.byte	090h
 8682                     	;
 8683  BAC4     84          			.byte	084h
 8684                     	;
 8685  BAC5     90          			.byte	090h
  Sun Jan 12 14:21:22 2003                                                                                               Page  172




 8686                     	;
 8687  BAC6     87          			.byte	087h
 8688                     	;
 8689  BAC7     70          			.byte	070h
 8690                     	;
 8691  BAC8     43          			.byte	043h
 8692                     	;
 8693  BAC9     E0          			.byte	0e0h
 8694                     	;
 8695  BACA     7A          			.byte	07ah
 8696                     	;
 8697  BACB     3C          			.byte	03ch
 8698                     	;
 8699  BACC     65          			.byte	065h
 8700                     	;
 8701  BACD     DF          			.byte	0dfh
 8702                     	;
 8703  BACE     26          			.byte	026h
 8704                     	;
 8705  BACF     31          			.byte	031h
 8706                     	;
 8707  BAD0     26          			.byte	026h
 8708                     	;
 8709  BAD1     B5          			.byte	0b5h
 8710                     	;
 8711  BAD2     36          			.byte	036h
 8712                     	;
 8713  BAD3     B5          			.byte	0b5h
 8714                     	;
 8715  BAD4     30          			.byte	030h
 8716                     	;
 8717  BAD5     91          			.byte	091h
 8718                     	;
 8719  BAD6     07          			.byte	007h
 8720                     	;
 8721  BAD7     4A          			.byte	04ah
 8722                     	;
 8723  BAD8     02          			.byte	002h
 8724                     	;
 8725  BAD9     24          			.byte	024h
 8726                     	;
 8727  BADA     02          			.byte	002h
 8728                     	;
 8729  BADB     20          			.byte	020h
 8730                     	;
 8731  BADC     06          			.byte	006h
 8732                     	;
 8733  BADD     30          			.byte	030h
 8734                     	;
 8735  BADE     06          			.byte	006h
 8736                     	;
 8737  BADF     30          			.byte	030h
 8738                     	;
 8739  BAE0     73          			.byte	073h
 8740                     	;
 8741  BAE1     C0          			.byte	0c0h
 8742                     	;
  Sun Jan 12 14:21:22 2003                                                                                               Page  173




 8743  BAE2     AC          			.byte	0ach
 8744                     	;
 8745  BAE3     20          			.byte	020h
 8746                     	;
 8747  BAE4     D7          			.byte	0d7h
 8748                     	;
 8749  BAE5     E0          			.byte	0e0h
 8750                     	;
 8751  BAE6     76          			.byte	076h
 8752                     	;
 8753  BAE7     6E          			.byte	06eh
 8754                     	;
 8755  BAE8     5D          			.byte	05dh
 8756                     	;
 8757  BAE9     BB          			.byte	0bbh
 8758                     	;
 8759  BAEA     5B          			.byte	05bh
 8760                     	;
 8761  BAEB     DF          			.byte	0dfh
 8762                     	;
 8763  BAEC     51          			.byte	051h
 8764                     	;
 8765  BAED     95          			.byte	095h
 8766                     	;
 8767  BAEE     7E          			.byte	07eh
 8768                     	;
 8769  BAEF     7B          			.byte	07bh
 8770                     	;
 8771  BAF0     9A          			.byte	09ah
 8772                     	;
 8773  BAF1     55          			.byte	055h
 8774                     	;
 8775  BAF2     99          			.byte	099h
 8776                     	;
 8777  BAF3     9F          			.byte	09fh
 8778                     	;
 8779  BAF4     7B          			.byte	07bh
 8780                     	;
 8781  BAF5     DB          			.byte	0dbh
 8782                     	;
 8783  BAF6     7C          			.byte	07ch
 8784                     	;
 8785  BAF7     2E          			.byte	02eh
 8786                     	;
 8787  BAF8     5A          			.byte	05ah
 8788                     	;
 8789  BAF9     54          			.byte	054h
 8790                     	;
 8791  BAFA     5B          			.byte	05bh
 8792                     	;
 8793  BAFB     D0          			.byte	0d0h
 8794                     	;
 8795  BAFC     5E          			.byte	05eh
 8796                     	;
 8797  BAFD     70          			.byte	070h
 8798                     	;
 8799  BAFE     72          			.byte	072h
  Sun Jan 12 14:21:22 2003                                                                                               Page  174




 8800                     	;
 8801  BAFF     48          			.byte	048h
 8802                     	;
 8803  BB00     23          			.byte	023h
 8804                     	;
 8805  BB01     C0          			.byte	0c0h
 8806                     	;
 8807  BB02     24          			.byte	024h
 8808                     	;
 8809  BB03     20          			.byte	020h
 8810                     	;
 8811  BB04     57          			.byte	057h
 8812                     	;
 8813  BB05     E0          			.byte	0e0h
 8814                     	;
 8815  BB06     56          			.byte	056h
 8816                     	;
 8817  BB07     6E          			.byte	06eh
 8818                     	;
 8819  BB08     5D          			.byte	05dh
 8820                     	;
 8821  BB09     BB          			.byte	0bbh
 8822                     	;
 8823  BB0A     5B          			.byte	05bh
 8824                     	;
 8825  BB0B     DB          			.byte	0dbh
 8826                     	;
 8827  BB0C     51          			.byte	051h
 8828                     	;
 8829  BB0D     95          			.byte	095h
 8830                     	;
 8831  BB0E     5E          			.byte	05eh
 8832                     	;
 8833  BB0F     7F          			.byte	07fh
 8834                     	;
 8835  BB10     5A          			.byte	05ah
 8836                     	;
 8837  BB11     55          			.byte	055h
 8838                     	;
 8839  BB12     59          			.byte	059h
 8840                     	;
 8841  BB13     9B          			.byte	09bh
 8842                     	;
 8843  BB14     FB          			.byte	0fbh
 8844                     	;
 8845  BB15     DB          			.byte	0dbh
 8846                     	;
 8847  BB16     5C          			.byte	05ch
 8848                     	;
 8849  BB17     2E          			.byte	02eh
 8850                     	;
 8851  BB18     2A          			.byte	02ah
 8852                     	;
 8853  BB19     54          			.byte	054h
 8854                     	;
 8855  BB1A     0B          			.byte	00bh
 8856                     	;
  Sun Jan 12 14:21:22 2003                                                                                               Page  175




 8857  BB1B     D0          			.byte	0d0h
 8858                     	;
 8859  BB1C     0E          			.byte	00eh
 8860                     	;
 8861  BB1D     70          			.byte	070h
 8862                     	;
 8863  BB1E     12          			.byte	012h
 8864                     	;
 8865  BB1F     48          			.byte	048h
 8866                     	;
 8867  BB20     61          			.byte	061h
 8868                     	;
 8869  BB21     80          			.byte	080h
 8870                     	;
 8871  BB22     93          			.byte	093h
 8872                     	;
 8873  BB23     C0          			.byte	0c0h
 8874                     	;
 8875  BB24     D4          			.byte	0d4h
 8876                     	;
 8877  BB25     20          			.byte	020h
 8878                     	;
 8879  BB26     FC          			.byte	0fch
 8880                     	;
 8881  BB27     3C          			.byte	03ch
 8882                     	;
 8883  BB28     53          			.byte	053h
 8884                     	;
 8885  BB29     C2          			.byte	0c2h
 8886                     	;
 8887  BB2A     28          			.byte	028h
 8888                     	;
 8889  BB2B     0C          			.byte	00ch
 8890                     	;
 8891  BB2C     17          			.byte	017h
 8892                     	;
 8893  BB2D     F0          			.byte	0f0h
 8894                     	;
 8895  BB2E     26          			.byte	026h
 8896                     	;
 8897  BB2F     08          			.byte	008h
 8898                     	;
 8899  BB30     49          			.byte	049h
 8900                     	;
 8901  BB31     24          			.byte	024h
 8902                     	;
 8903  BB32     4B          			.byte	04bh
 8904                     	;
 8905  BB33     92          			.byte	092h
 8906                     	;
 8907  BB34     57          			.byte	057h
 8908                     	;
 8909  BB35     62          			.byte	062h
 8910                     	;
 8911  BB36     44          			.byte	044h
 8912                     	;
 8913  BB37     B4          			.byte	0b4h
  Sun Jan 12 14:21:22 2003                                                                                               Page  176




 8914                     	;
 8915  BB38     E8          			.byte	0e8h
 8916                     	;
 8917  BB39     4B          			.byte	04bh
 8918                     	;
 8919  BB3A     90          			.byte	090h
 8920                     	;
 8921  BB3B     49          			.byte	049h
 8922                     	;
 8923  BB3C     70          			.byte	070h
 8924                     	;
 8925  BB3D     36          			.byte	036h
 8926                     	;
 8927  BB3E     0F          			.byte	00fh
 8928                     	;
 8929  BB3F     F8          			.byte	0f8h
 8930                     	;
 8931  BB40     07          			.byte	007h
 8932                     	;
 8933  BB41     E0          			.byte	0e0h
 8934                     	;
 8935  BB42     09          			.byte	009h
 8936                     	;
 8937  BB43     90          			.byte	090h
 8938                     	;
 8939  BB44     09          			.byte	009h
 8940                     	;
 8941  BB45     90          			.byte	090h
 8942                     	;
 8943  BB46     0F          			.byte	00fh
 8944                     	;
 8945  BB47     F0          			.byte	0f0h
 8946                     	;
 8947  BB48     0C          			.byte	00ch
 8948                     	;
 8949  BB49     30          			.byte	030h
 8950                     	;
 8951  BB4A     76          			.byte	076h
 8952                     	;
 8953  BB4B     6E          			.byte	06eh
 8954                     	;
 8955  BB4C     9B          			.byte	09bh
 8956                     	;
 8957  BB4D     D9          			.byte	0d9h
 8958                     	;
 8959  BB4E     FF          			.byte	0ffh
 8960                     	;
 8961  BB4F     FF          			.byte	0ffh
 8962                     	;
 8963  BB50     FE          			.byte	0feh
 8964                     	;
 8965  BB51     7F          			.byte	07fh
 8966                     	;
 8967  BB52     FF          			.byte	0ffh
 8968                     	;
 8969  BB53     FF          			.byte	0ffh
 8970                     	;
  Sun Jan 12 14:21:22 2003                                                                                               Page  177




 8971  BB54     DC          			.byte	0dch
 8972                     	;
 8973  BB55     3B          			.byte	03bh
 8974                     	;
 8975  BB56     8B          			.byte	08bh
 8976                     	;
 8977  BB57     D1          			.byte	0d1h
 8978                     	;
 8979  BB58     DF          			.byte	0dfh
 8980                     	;
 8981  BB59     FB          			.byte	0fbh
 8982                     	;
 8983  BB5A     CF          			.byte	0cfh
 8984                     	;
 8985  BB5B     F3          			.byte	0f3h
 8986                     	;
 8987  BB5C     06          			.byte	006h
 8988                     	;
 8989  BB5D     60          			.byte	060h
 8990                     	;
 8991  BB5E     0E          			.byte	00eh
 8992                     	;
 8993  BB5F     70          			.byte	070h
 8994                     	;
 8995  BB60     03          			.byte	003h
 8996                     	;
 8997  BB61     C0          			.byte	0c0h
 8998                     	;
 8999  BB62     04          			.byte	004h
 9000                     	;
 9001  BB63     20          			.byte	020h
 9002                     	;
 9003  BB64     2A          			.byte	02ah
 9004                     	;
 9005  BB65     54          			.byte	054h
 9006                     	;
 9007  BB66     28          			.byte	028h
 9008                     	;
 9009  BB67     14          			.byte	014h
 9010                     	;
 9011  BB68     15          			.byte	015h
 9012                     	;
 9013  BB69     A8          			.byte	0a8h
 9014                     	;
 9015  BB6A     3A          			.byte	03ah
 9016                     	;
 9017  BB6B     5C          			.byte	05ch
 9018                     	;
 9019  BB6C     7B          			.byte	07bh
 9020                     	;
 9021  BB6D     DE          			.byte	0deh
 9022                     	;
 9023  BB6E     F4          			.byte	0f4h
 9024                     	;
 9025  BB6F     2F          			.byte	02fh
 9026                     	;
 9027  BB70     F5          			.byte	0f5h
  Sun Jan 12 14:21:22 2003                                                                                               Page  178




 9028                     	;
 9029  BB71     AF          			.byte	0afh
 9030                     	;
 9031  BB72     FB          			.byte	0fbh
 9032                     	;
 9033  BB73     DF          			.byte	0dfh
 9034                     	;
 9035  BB74     F1          			.byte	0f1h
 9036                     	;
 9037  BB75     8F          			.byte	08fh
 9038                     	;
 9039  BB76     FA          			.byte	0fah
 9040                     	;
 9041  BB77     5F          			.byte	05fh
 9042                     	;
 9043  BB78     FA          			.byte	0fah
 9044                     	;
 9045  BB79     5F          			.byte	05fh
 9046                     	;
 9047  BB7A     F5          			.byte	0f5h
 9048                     	;
 9049  BB7B     AF          			.byte	0afh
 9050                     	;
 9051  BB7C     63          			.byte	063h
 9052                     	;
 9053  BB7D     C6          			.byte	0c6h
 9054                     	;
 9055  BB7E     1E          			.byte	01eh
 9056                     	;
 9057  BB7F     78          			.byte	078h
 9058                     	;
 9059  BB80     07          			.byte	007h
 9060                     	;
 9061  BB81     E0          			.byte	0e0h
 9062                     	;
 9063  BB82     08          			.byte	008h
 9064                     	;
 9065  BB83     10          			.byte	010h
 9066                     	;
 9067  BB84     3E          			.byte	03eh
 9068                     	;
 9069  BB85     7E          			.byte	07eh
 9070                     	;
 9071  BB86     78          			.byte	078h
 9072                     	;
 9073  BB87     1F          			.byte	01fh
 9074                     	;
 9075  BB88     FD          			.byte	0fdh
 9076                     	;
 9077  BB89     AF          			.byte	0afh
 9078                     	;
 9079  BB8A     FA          			.byte	0fah
 9080                     	;
 9081  BB8B     5F          			.byte	05fh
 9082                     	;
 9083  BB8C     81          			.byte	081h
 9084                     	;
  Sun Jan 12 14:21:22 2003                                                                                               Page  179




 9085  BB8D     81          			.byte	081h
 9086                     	;
 9087  BB8E     E7          			.byte	0e7h
 9088                     	;
 9089  BB8F     E7          			.byte	0e7h
 9090                     	;
 9091  BB90     FA          			.byte	0fah
 9092                     	;
 9093  BB91     5F          			.byte	05fh
 9094                     	;
 9095  BB92     FC          			.byte	0fch
 9096                     	;
 9097  BB93     3F          			.byte	03fh
 9098                     	;
 9099  BB94     92          			.byte	092h
 9100                     	;
 9101  BB95     49          			.byte	049h
 9102                     	;
 9103  BB96     6D          			.byte	06dh
 9104                     	;
 9105  BB97     B6          			.byte	0b6h
 9106                     	;
 9107  BB98     3D          			.byte	03dh
 9108                     	;
 9109  BB99     BC          			.byte	0bch
 9110                     	;
 9111  BB9A     32          			.byte	032h
 9112                     	;
 9113  BB9B     4C          			.byte	04ch
 9114                     	;
 9115  BB9C     43          			.byte	043h
 9116                     	;
 9117  BB9D     C2          			.byte	0c2h
 9118                     	;
 9119  BB9E     7E          			.byte	07eh
 9120                     	;
 9121  BB9F     7E          			.byte	07eh
 9122                     	;
 9123  BBA0     07          			.byte	007h
 9124                     	;
 9125  BBA1     E0          			.byte	0e0h
 9126                     	;
 9127  BBA2     0E          			.byte	00eh
 9128                     	;
 9129  BBA3     70          			.byte	070h
 9130                     	;
 9131  BBA4     08          			.byte	008h
 9132                     	;
 9133  BBA5     10          			.byte	010h
 9134                     	;
 9135  BBA6     0E          			.byte	00eh
 9136                     	;
 9137  BBA7     70          			.byte	070h
 9138                     	;
 9139  BBA8     0E          			.byte	00eh
 9140                     	;
 9141  BBA9     70          			.byte	070h
  Sun Jan 12 14:21:22 2003                                                                                               Page  180




 9142                     	;
 9143  BBAA     76          			.byte	076h
 9144                     	;
 9145  BBAB     6E          			.byte	06eh
 9146                     	;
 9147  BBAC     9B          			.byte	09bh
 9148                     	;
 9149  BBAD     D9          			.byte	0d9h
 9150                     	;
 9151  BBAE     FF          			.byte	0ffh
 9152                     	;
 9153  BBAF     FF          			.byte	0ffh
 9154                     	;
 9155  BBB0     FE          			.byte	0feh
 9156                     	;
 9157  BBB1     7F          			.byte	07fh
 9158                     	;
 9159  BBB2     FF          			.byte	0ffh
 9160                     	;
 9161  BBB3     FF          			.byte	0ffh
 9162                     	;
 9163  BBB4     DB          			.byte	0dbh
 9164                     	;
 9165  BBB5     DB          			.byte	0dbh
 9166                     	;
 9167  BBB6     8C          			.byte	08ch
 9168                     	;
 9169  BBB7     31          			.byte	031h
 9170                     	;
 9171  BBB8     DF          			.byte	0dfh
 9172                     	;
 9173  BBB9     FB          			.byte	0fbh
 9174                     	;
 9175  BBBA     0F          			.byte	00fh
 9176                     	;
 9177  BBBB     F0          			.byte	0f0h
 9178                     	;
 9179  BBBC     06          			.byte	006h
 9180                     	;
 9181  BBBD     60          			.byte	060h
 9182                     	;
 9183  BBBE     0E          			.byte	00eh
 9184                     	;
 9185  BBBF     70          			.byte	070h
 9186                     	;
 9187  BBC0     00          			.byte	000h
 9188                     	;
 9189  BBC1     00          			.byte	000h
 9190                     	;
 9191  BBC2     00          			.byte	000h
 9192                     	;
 9193  BBC3     00          			.byte	000h
 9194                     	;
 9195  BBC4     1F          			.byte	01fh
 9196                     	;
 9197  BBC5     F8          			.byte	0f8h
 9198                     	;
  Sun Jan 12 14:21:22 2003                                                                                               Page  181




 9199  BBC6     30          			.byte	030h
 9200                     	;
 9201  BBC7     0C          			.byte	00ch
 9202                     	;
 9203  BBC8     EE          			.byte	0eeh
 9204                     	;
 9205  BBC9     77          			.byte	077h
 9206                     	;
 9207  BBCA     AC          			.byte	0ach
 9208                     	;
 9209  BBCB     35          			.byte	035h
 9210                     	;
 9211  BBCC     A1          			.byte	0a1h
 9212                     	;
 9213  BBCD     85          			.byte	085h
 9214                     	;
 9215  BBCE     B2          			.byte	0b2h
 9216                     	;
 9217  BBCF     4D          			.byte	04dh
 9218                     	;
 9219  BBD0     92          			.byte	092h
 9220                     	;
 9221  BBD1     49          			.byte	049h
 9222                     	;
 9223  BBD2     93          			.byte	093h
 9224                     	;
 9225  BBD3     C9          			.byte	0c9h
 9226                     	;
 9227  BBD4     94          			.byte	094h
 9228                     	;
 9229  BBD5     29          			.byte	029h
 9230                     	;
 9231  BBD6     F7          			.byte	0f7h
 9232                     	;
 9233  BBD7     EF          			.byte	0efh
 9234                     	;
 9235  BBD8     20          			.byte	020h
 9236                     	;
 9237  BBD9     04          			.byte	004h
 9238                     	;
 9239  BBDA     27          			.byte	027h
 9240                     	;
 9241  BBDB     E4          			.byte	0e4h
 9242                     	;
 9243  BBDC     28          			.byte	028h
 9244                     	;
 9245  BBDD     14          			.byte	014h
 9246                     	;
 9247  BBDE     1F          			.byte	01fh
 9248                     	;
 9249  BBDF     F8          			.byte	0f8h
 9250                     	;
 9251  BBE0     03          			.byte	003h
 9252                     	;
 9253  BBE1     60          			.byte	060h
 9254                     	;
 9255  BBE2     07          			.byte	007h
  Sun Jan 12 14:21:22 2003                                                                                               Page  182




 9256                     	;
 9257  BBE3     F0          			.byte	0f0h
 9258                     	;
 9259  BBE4     0C          			.byte	00ch
 9260                     	;
 9261  BBE5     18          			.byte	018h
 9262                     	;
 9263  BBE6     0A          			.byte	00ah
 9264                     	;
 9265  BBE7     28          			.byte	028h
 9266                     	;
 9267  BBE8     09          			.byte	009h
 9268                     	;
 9269  BBE9     C8          			.byte	0c8h
 9270                     	;
 9271  BBEA     14          			.byte	014h
 9272                     	;
 9273  BBEB     14          			.byte	014h
 9274                     	;
 9275  BBEC     26          			.byte	026h
 9276                     	;
 9277  BBED     B2          			.byte	0b2h
 9278                     	;
 9279  BBEE     43          			.byte	043h
 9280                     	;
 9281  BBEF     E1          			.byte	0e1h
 9282                     	;
 9283  BBF0     40          			.byte	040h
 9284                     	;
 9285  BBF1     81          			.byte	081h
 9286                     	;
 9287  BBF2     63          			.byte	063h
 9288                     	;
 9289  BBF3     E3          			.byte	0e3h
 9290                     	;
 9291  BBF4     00          			.byte	000h
 9292                     	;
 9293  BBF5     80          			.byte	080h
 9294                     	;
 9295  BBF6     03          			.byte	003h
 9296                     	;
 9297  BBF7     60          			.byte	060h
 9298                     	;
 9299  BBF8     02          			.byte	002h
 9300                     	;
 9301  BBF9     20          			.byte	020h
 9302                     	;
 9303  BBFA     02          			.byte	002h
 9304                     	;
 9305  BBFB     20          			.byte	020h
 9306                     	;
 9307  BBFC     02          			.byte	002h
 9308                     	;
 9309  BBFD     20          			.byte	020h
 9310                     	;
 9311  BBFE     0C          			.byte	00ch
 9312                     	;
  Sun Jan 12 14:21:22 2003                                                                                               Page  183




 9313  BBFF     18          			.byte	018h
 9314                     	;
 9315  BC00     06          			.byte	006h
 9316                     	;
 9317  BC01     C0          			.byte	0c0h
 9318                     	;
 9319  BC02     0F          			.byte	00fh
 9320                     	;
 9321  BC03     E0          			.byte	0e0h
 9322                     	;
 9323  BC04     98          			.byte	098h
 9324                     	;
 9325  BC05     30          			.byte	030h
 9326                     	;
 9327  BC06     94          			.byte	094h
 9328                     	;
 9329  BC07     50          			.byte	050h
 9330                     	;
 9331  BC08     53          			.byte	053h
 9332                     	;
 9333  BC09     90          			.byte	090h
 9334                     	;
 9335  BC0A     68          			.byte	068h
 9336                     	;
 9337  BC0B     28          			.byte	028h
 9338                     	;
 9339  BC0C     6D          			.byte	06dh
 9340                     	;
 9341  BC0D     7E          			.byte	07eh
 9342                     	;
 9343  BC0E     67          			.byte	067h
 9344                     	;
 9345  BC0F     E2          			.byte	0e2h
 9346                     	;
 9347  BC10     21          			.byte	021h
 9348                     	;
 9349  BC11     2A          			.byte	02ah
 9350                     	;
 9351  BC12     37          			.byte	037h
 9352                     	;
 9353  BC13     EA          			.byte	0eah
 9354                     	;
 9355  BC14     31          			.byte	031h
 9356                     	;
 9357  BC15     22          			.byte	022h
 9358                     	;
 9359  BC16     06          			.byte	006h
 9360                     	;
 9361  BC17     D4          			.byte	0d4h
 9362                     	;
 9363  BC18     04          			.byte	004h
 9364                     	;
 9365  BC19     48          			.byte	048h
 9366                     	;
 9367  BC1A     04          			.byte	004h
 9368                     	;
 9369  BC1B     40          			.byte	040h
  Sun Jan 12 14:21:22 2003                                                                                               Page  184




 9370                     	;
 9371  BC1C     04          			.byte	004h
 9372                     	;
 9373  BC1D     40          			.byte	040h
 9374                     	;
 9375  BC1E     18          			.byte	018h
 9376                     	;
 9377  BC1F     30          			.byte	030h
 9378                     	;
 9379  BC20     01          			.byte	001h
 9380                     	;
 9381  BC21     80          			.byte	080h
 9382                     	;
 9383  BC22     03          			.byte	003h
 9384                     	;
 9385  BC23     C0          			.byte	0c0h
 9386                     	;
 9387  BC24     04          			.byte	004h
 9388                     	;
 9389  BC25     20          			.byte	020h
 9390                     	;
 9391  BC26     86          			.byte	086h
 9392                     	;
 9393  BC27     61          			.byte	061h
 9394                     	;
 9395  BC28     8D          			.byte	08dh
 9396                     	;
 9397  BC29     B1          			.byte	0b1h
 9398                     	;
 9399  BC2A     92          			.byte	092h
 9400                     	;
 9401  BC2B     49          			.byte	049h
 9402                     	;
 9403  BC2C     51          			.byte	051h
 9404                     	;
 9405  BC2D     8A          			.byte	08ah
 9406                     	;
 9407  BC2E     54          			.byte	054h
 9408                     	;
 9409  BC2F     2A          			.byte	02ah
 9410                     	;
 9411  BC30     52          			.byte	052h
 9412                     	;
 9413  BC31     4A          			.byte	04ah
 9414                     	;
 9415  BC32     2B          			.byte	02bh
 9416                     	;
 9417  BC33     D4          			.byte	0d4h
 9418                     	;
 9419  BC34     55          			.byte	055h
 9420                     	;
 9421  BC35     AA          			.byte	0aah
 9422                     	;
 9423  BC36     26          			.byte	026h
 9424                     	;
 9425  BC37     64          			.byte	064h
 9426                     	;
  Sun Jan 12 14:21:22 2003                                                                                               Page  185




 9427  BC38     04          			.byte	004h
 9428                     	;
 9429  BC39     20          			.byte	020h
 9430                     	;
 9431  BC3A     09          			.byte	009h
 9432                     	;
 9433  BC3B     90          			.byte	090h
 9434                     	;
 9435  BC3C     0A          			.byte	00ah
 9436                     	;
 9437  BC3D     50          			.byte	050h
 9438                     	;
 9439  BC3E     1C          			.byte	01ch
 9440                     	;
 9441  BC3F     38          			.byte	038h
 9442                     	;
 9443  BC40     00          			.byte	000h
 9444                     	;
 9445  BC41     00          			.byte	000h
 9446                     	;
 9447  BC42     20          			.byte	020h
 9448                     	;
 9449  BC43     04          			.byte	004h
 9450                     	;
 9451  BC44     64          			.byte	064h
 9452                     	;
 9453  BC45     24          			.byte	024h
 9454                     	;
 9455  BC46     73          			.byte	073h
 9456                     	;
 9457  BC47     CE          			.byte	0ceh
 9458                     	;
 9459  BC48     FB          			.byte	0fbh
 9460                     	;
 9461  BC49     FE          			.byte	0feh
 9462                     	;
 9463  BC4A     FD          			.byte	0fdh
 9464                     	;
 9465  BC4B     BF          			.byte	0bfh
 9466                     	;
 9467  BC4C     FE          			.byte	0feh
 9468                     	;
 9469  BC4D     7F          			.byte	07fh
 9470                     	;
 9471  BC4E     FF          			.byte	0ffh
 9472                     	;
 9473  BC4F     FF          			.byte	0ffh
 9474                     	;
 9475  BC50     FD          			.byte	0fdh
 9476                     	;
 9477  BC51     BF          			.byte	0bfh
 9478                     	;
 9479  BC52     D9          			.byte	0d9h
 9480                     	;
 9481  BC53     9B          			.byte	09bh
 9482                     	;
 9483  BC54     91          			.byte	091h
  Sun Jan 12 14:21:22 2003                                                                                               Page  186




 9484                     	;
 9485  BC55     89          			.byte	089h
 9486                     	;
 9487  BC56     82          			.byte	082h
 9488                     	;
 9489  BC57     41          			.byte	041h
 9490                     	;
 9491  BC58     0C          			.byte	00ch
 9492                     	;
 9493  BC59     30          			.byte	030h
 9494                     	;
 9495  BC5A     04          			.byte	004h
 9496                     	;
 9497  BC5B     20          			.byte	020h
 9498                     	;
 9499  BC5C     00          			.byte	000h
 9500                     	;
 9501  BC5D     00          			.byte	000h
 9502                     	;
 9503  BC5E     00          			.byte	000h
 9504                     	;
 9505  BC5F     00          			.byte	000h
 9506                     	;
 9507  BC60     00          			.byte	000h
 9508                     	;
 9509  BC61     00          			.byte	000h
 9510                     	;
 9511  BC62     00          			.byte	000h
 9512                     	;
 9513  BC63     00          			.byte	000h
 9514                     	;
 9515  BC64     00          			.byte	000h
 9516                     	;
 9517  BC65     00          			.byte	000h
 9518                     	;
 9519  BC66     10          			.byte	010h
 9520                     	;
 9521  BC67     10          			.byte	010h
 9522                     	;
 9523  BC68     32          			.byte	032h
 9524                     	;
 9525  BC69     98          			.byte	098h
 9526                     	;
 9527  BC6A     3B          			.byte	03bh
 9528                     	;
 9529  BC6B     B8          			.byte	0b8h
 9530                     	;
 9531  BC6C     7F          			.byte	07fh
 9532                     	;
 9533  BC6D     FC          			.byte	0fch
 9534                     	;
 9535  BC6E     7D          			.byte	07dh
 9536                     	;
 9537  BC6F     7C          			.byte	07ch
 9538                     	;
 9539  BC70     7F          			.byte	07fh
 9540                     	;
  Sun Jan 12 14:21:22 2003                                                                                               Page  187




 9541  BC71     FC          			.byte	0fch
 9542                     	;
 9543  BC72     3F          			.byte	03fh
 9544                     	;
 9545  BC73     F8          			.byte	0f8h
 9546                     	;
 9547  BC74     1D          			.byte	01dh
 9548                     	;
 9549  BC75     70          			.byte	070h
 9550                     	;
 9551  BC76     18          			.byte	018h
 9552                     	;
 9553  BC77     30          			.byte	030h
 9554                     	;
 9555  BC78     08          			.byte	008h
 9556                     	;
 9557  BC79     20          			.byte	020h
 9558                     	;
 9559  BC7A     00          			.byte	000h
 9560                     	;
 9561  BC7B     00          			.byte	000h
 9562                     	;
 9563  BC7C     00          			.byte	000h
 9564                     	;
 9565  BC7D     00          			.byte	000h
 9566                     	;
 9567  BC7E     00          			.byte	000h
 9568                     	;
 9569  BC7F     00          			.byte	000h
 9570                     	;
 9571  BC80     07          			.byte	007h
 9572                     	;
 9573  BC81     C0          			.byte	0c0h
 9574                     	;
 9575  BC82     0C          			.byte	00ch
 9576                     	;
 9577  BC83     60          			.byte	060h
 9578                     	;
 9579  BC84     0E          			.byte	00eh
 9580                     	;
 9581  BC85     E0          			.byte	0e0h
 9582                     	;
 9583  BC86     08          			.byte	008h
 9584                     	;
 9585  BC87     20          			.byte	020h
 9586                     	;
 9587  BC88     3C          			.byte	03ch
 9588                     	;
 9589  BC89     7C          			.byte	07ch
 9590                     	;
 9591  BC8A     7F          			.byte	07fh
 9592                     	;
 9593  BC8B     FE          			.byte	0feh
 9594                     	;
 9595  BC8C     BF          			.byte	0bfh
 9596                     	;
 9597  BC8D     FD          			.byte	0fdh
  Sun Jan 12 14:21:22 2003                                                                                               Page  188




 9598                     	;
 9599  BC8E     FE          			.byte	0feh
 9600                     	;
 9601  BC8F     FF          			.byte	0ffh
 9602                     	;
 9603  BC90     B4          			.byte	0b4h
 9604                     	;
 9605  BC91     6D          			.byte	06dh
 9606                     	;
 9607  BC92     67          			.byte	067h
 9608                     	;
 9609  BC93     C6          			.byte	0c6h
 9610                     	;
 9611  BC94     07          			.byte	007h
 9612                     	;
 9613  BC95     C0          			.byte	0c0h
 9614                     	;
 9615  BC96     07          			.byte	007h
 9616                     	;
 9617  BC97     C0          			.byte	0c0h
 9618                     	;
 9619  BC98     0F          			.byte	00fh
 9620                     	;
 9621  BC99     E0          			.byte	0e0h
 9622                     	;
 9623  BC9A     1F          			.byte	01fh
 9624                     	;
 9625  BC9B     F0          			.byte	0f0h
 9626                     	;
 9627  BC9C     3F          			.byte	03fh
 9628                     	;
 9629  BC9D     F8          			.byte	0f8h
 9630                     	;
 9631  BC9E     1F          			.byte	01fh
 9632                     	;
 9633  BC9F     F0          			.byte	0f0h
 9634                     	;
 9635  BCA0     00          			.byte	000h
 9636                     	;
 9637  BCA1     00          			.byte	000h
 9638                     	;
 9639  BCA2     00          			.byte	000h
 9640                     	;
 9641  BCA3     00          			.byte	000h
 9642                     	;
 9643  BCA4     0F          			.byte	00fh
 9644                     	;
 9645  BCA5     E0          			.byte	0e0h
 9646                     	;
 9647  BCA6     10          			.byte	010h
 9648                     	;
 9649  BCA7     10          			.byte	010h
 9650                     	;
 9651  BCA8     20          			.byte	020h
 9652                     	;
 9653  BCA9     08          			.byte	008h
 9654                     	;
  Sun Jan 12 14:21:22 2003                                                                                               Page  189




 9655  BCAA     48          			.byte	048h
 9656                     	;
 9657  BCAB     24          			.byte	024h
 9658                     	;
 9659  BCAC     50          			.byte	050h
 9660                     	;
 9661  BCAD     14          			.byte	014h
 9662                     	;
 9663  BCAE     54          			.byte	054h
 9664                     	;
 9665  BCAF     54          			.byte	054h
 9666                     	;
 9667  BCB0     50          			.byte	050h
 9668                     	;
 9669  BCB1     14          			.byte	014h
 9670                     	;
 9671  BCB2     48          			.byte	048h
 9672                     	;
 9673  BCB3     24          			.byte	024h
 9674                     	;
 9675  BCB4     40          			.byte	040h
 9676                     	;
 9677  BCB5     04          			.byte	004h
 9678                     	;
 9679  BCB6     20          			.byte	020h
 9680                     	;
 9681  BCB7     08          			.byte	008h
 9682                     	;
 9683  BCB8     10          			.byte	010h
 9684                     	;
 9685  BCB9     10          			.byte	010h
 9686                     	;
 9687  BCBA     0F          			.byte	00fh
 9688                     	;
 9689  BCBB     E0          			.byte	0e0h
 9690                     	;
 9691  BCBC     00          			.byte	000h
 9692                     	;
 9693  BCBD     00          			.byte	000h
 9694                     	;
 9695  BCBE     00          			.byte	000h
 9696                     	;
 9697  BCBF     00          			.byte	000h
 9698                     	;
 9699  BCC0     07          			.byte	007h
 9700                     	;
 9701  BCC1     C0          			.byte	0c0h
 9702                     	;
 9703  BCC2     0F          			.byte	00fh
 9704                     	;
 9705  BCC3     E0          			.byte	0e0h
 9706                     	;
 9707  BCC4     0D          			.byte	00dh
 9708                     	;
 9709  BCC5     60          			.byte	060h
 9710                     	;
 9711  BCC6     07          			.byte	007h
  Sun Jan 12 14:21:22 2003                                                                                               Page  190




 9712                     	;
 9713  BCC7     DC          			.byte	0dch
 9714                     	;
 9715  BCC8     1F          			.byte	01fh
 9716                     	;
 9717  BCC9     FE          			.byte	0feh
 9718                     	;
 9719  BCCA     7F          			.byte	07fh
 9720                     	;
 9721  BCCB     FF          			.byte	0ffh
 9722                     	;
 9723  BCCC     FF          			.byte	0ffh
 9724                     	;
 9725  BCCD     FF          			.byte	0ffh
 9726                     	;
 9727  BCCE     FF          			.byte	0ffh
 9728                     	;
 9729  BCCF     E7          			.byte	0e7h
 9730                     	;
 9731  BCD0     CF          			.byte	0cfh
 9732                     	;
 9733  BCD1     C6          			.byte	0c6h
 9734                     	;
 9735  BCD2     EF          			.byte	0efh
 9736                     	;
 9737  BCD3     CE          			.byte	0ceh
 9738                     	;
 9739  BCD4     6F          			.byte	06fh
 9740                     	;
 9741  BCD5     EC          			.byte	0ech
 9742                     	;
 9743  BCD6     1F          			.byte	01fh
 9744                     	;
 9745  BCD7     E0          			.byte	0e0h
 9746                     	;
 9747  BCD8     1F          			.byte	01fh
 9748                     	;
 9749  BCD9     E0          			.byte	0e0h
 9750                     	;
 9751  BCDA     1C          			.byte	01ch
 9752                     	;
 9753  BCDB     F0          			.byte	0f0h
 9754                     	;
 9755  BCDC     3C          			.byte	03ch
 9756                     	;
 9757  BCDD     78          			.byte	078h
 9758                     	;
 9759  BCDE     38          			.byte	038h
 9760                     	;
 9761  BCDF     3C          			.byte	03ch
 9762                     	;
 9763  BCE0     00          			.byte	000h
 9764                     	;
 9765  BCE1     00          			.byte	000h
 9766                     	;
 9767  BCE2     00          			.byte	000h
 9768                     	;
  Sun Jan 12 14:21:22 2003                                                                                               Page  191




 9769  BCE3     00          			.byte	000h
 9770                     	;
 9771  BCE4     0C          			.byte	00ch
 9772                     	;
 9773  BCE5     0C          			.byte	00ch
 9774                     	;
 9775  BCE6     12          			.byte	012h
 9776                     	;
 9777  BCE7     12          			.byte	012h
 9778                     	;
 9779  BCE8     12          			.byte	012h
 9780                     	;
 9781  BCE9     12          			.byte	012h
 9782                     	;
 9783  BCEA     21          			.byte	021h
 9784                     	;
 9785  BCEB     21          			.byte	021h
 9786                     	;
 9787  BCEC     00          			.byte	000h
 9788                     	;
 9789  BCED     00          			.byte	000h
 9790                     	;
 9791  BCEE     00          			.byte	000h
 9792                     	;
 9793  BCEF     00          			.byte	000h
 9794                     	;
 9795  BCF0     00          			.byte	000h
 9796                     	;
 9797  BCF1     00          			.byte	000h
 9798                     	;
 9799  BCF2     00          			.byte	000h
 9800                     	;
 9801  BCF3     00          			.byte	000h
 9802                     	;
 9803  BCF4     81          			.byte	081h
 9804                     	;
 9805  BCF5     81          			.byte	081h
 9806                     	;
 9807  BCF6     42          			.byte	042h
 9808                     	;
 9809  BCF7     42          			.byte	042h
 9810                     	;
 9811  BCF8     42          			.byte	042h
 9812                     	;
 9813  BCF9     42          			.byte	042h
 9814                     	;
 9815  BCFA     24          			.byte	024h
 9816                     	;
 9817  BCFB     24          			.byte	024h
 9818                     	;
 9819  BCFC     00          			.byte	000h
 9820                     	;
 9821  BCFD     00          			.byte	000h
 9822                     	;
 9823  BCFE     00          			.byte	000h
 9824                     	;
 9825  BCFF     00          			.byte	000h
  Sun Jan 12 14:21:22 2003                                                                                               Page  192




 9826                     	;
 9827  BD00     7E          			.byte	07eh
 9828                     	;
 9829  BD01     7E          			.byte	07eh
 9830                     	;
 9831  BD02     81          			.byte	081h
 9832                     	;
 9833  BD03     C1          			.byte	0c1h
 9834                     	;
 9835  BD04     A2          			.byte	0a2h
 9836                     	;
 9837  BD05     45          			.byte	045h
 9838                     	;
 9839  BD06     92          			.byte	092h
 9840                     	;
 9841  BD07     49          			.byte	049h
 9842                     	;
 9843  BD08     8A          			.byte	08ah
 9844                     	;
 9845  BD09     51          			.byte	051h
 9846                     	;
 9847  BD0A     82          			.byte	082h
 9848                     	;
 9849  BD0B     41          			.byte	041h
 9850                     	;
 9851  BD0C     FC          			.byte	0fch
 9852                     	;
 9853  BD0D     3F          			.byte	03fh
 9854                     	;
 9855  BD0E     41          			.byte	041h
 9856                     	;
 9857  BD0F     82          			.byte	082h
 9858                     	;
 9859  BD10     41          			.byte	041h
 9860                     	;
 9861  BD11     82          			.byte	082h
 9862                     	;
 9863  BD12     FC          			.byte	0fch
 9864                     	;
 9865  BD13     3F          			.byte	03fh
 9866                     	;
 9867  BD14     82          			.byte	082h
 9868                     	;
 9869  BD15     41          			.byte	041h
 9870                     	;
 9871  BD16     8A          			.byte	08ah
 9872                     	;
 9873  BD17     51          			.byte	051h
 9874                     	;
 9875  BD18     92          			.byte	092h
 9876                     	;
 9877  BD19     49          			.byte	049h
 9878                     	;
 9879  BD1A     A2          			.byte	0a2h
 9880                     	;
 9881  BD1B     45          			.byte	045h
 9882                     	;
  Sun Jan 12 14:21:22 2003                                                                                               Page  193




 9883  BD1C     83          			.byte	083h
 9884                     	;
 9885  BD1D     C1          			.byte	0c1h
 9886                     	;
 9887  BD1E     7E          			.byte	07eh
 9888                     	;
 9889  BD1F     7E          			.byte	07eh
 9890                     	;
 9891  BD20     07          			.byte	007h
 9892                     	;
 9893  BD21     E8          			.byte	0e8h
 9894                     	;
 9895  BD22     18          			.byte	018h
 9896                     	;
 9897  BD23     18          			.byte	018h
 9898                     	;
 9899  BD24     23          			.byte	023h
 9900                     	;
 9901  BD25     D4          			.byte	0d4h
 9902                     	;
 9903  BD26     4C          			.byte	04ch
 9904                     	;
 9905  BD27     63          			.byte	063h
 9906                     	;
 9907  BD28     50          			.byte	050h
 9908                     	;
 9909  BD29     16          			.byte	016h
 9910                     	;
 9911  BD2A     96          			.byte	096h
 9912                     	;
 9913  BD2B     69          			.byte	069h
 9914                     	;
 9915  BD2C     A8          			.byte	0a8h
 9916                     	;
 9917  BD2D     1D          			.byte	01dh
 9918                     	;
 9919  BD2E     A0          			.byte	0a0h
 9920                     	;
 9921  BD2F     05          			.byte	005h
 9922                     	;
 9923  BD30     D0          			.byte	0d0h
 9924                     	;
 9925  BD31     05          			.byte	005h
 9926                     	;
 9927  BD32     8C          			.byte	08ch
 9928                     	;
 9929  BD33     25          			.byte	025h
 9930                     	;
 9931  BD34     D3          			.byte	0d3h
 9932                     	;
 9933  BD35     C9          			.byte	0c9h
 9934                     	;
 9935  BD36     70          			.byte	070h
 9936                     	;
 9937  BD37     0A          			.byte	00ah
 9938                     	;
 9939  BD38     6C          			.byte	06ch
  Sun Jan 12 14:21:22 2003                                                                                               Page  194




 9940                     	;
 9941  BD39     12          			.byte	012h
 9942                     	;
 9943  BD3A     23          			.byte	023h
 9944                     	;
 9945  BD3B     E4          			.byte	0e4h
 9946                     	;
 9947  BD3C     18          			.byte	018h
 9948                     	;
 9949  BD3D     18          			.byte	018h
 9950                     	;
 9951  BD3E     07          			.byte	007h
 9952                     	;
 9953  BD3F     E0          			.byte	0e0h
 9954                     	;
 9955                     	;
 9956                     	;
 9957                     	;
 9958                     	;
 9959                     	;
 9960                     	;
 9961                     	;
 9962                     	;
 9963                     	;
 9964                     	;
 9965                     	;
 9966                     	;
 9967                     	;
 9968                     	;
 9969                     	;
 9970                     	;
 9971                     	;
 9972                     	;
 9973                     	;
 9974                     	;
 9975                     	;
 9976                     	;
 9977                     	;
 9978                     	;
 9979                     	;
 9980                     	;
 9981                     	;
 9982                     	;
 9983                     	;
 9984                     	;
 9985                     	;
 9986                     	;
 9987                     	;
 9988                     	;
 9989                     	;
 9990                     	;
 9991                     	;
 9992                     	;
 9993                     	;
 9994                     	;
 9995                     	;
 9996                     	;
  Sun Jan 12 14:21:22 2003                                                                                               Page  195




 9997                     	;
 9998                     	;
 9999                     	;
10000                     	;
10001                     	;
10002                     	;
10003                     	;
10004                     	;
10005                     	;
10006                     	;
10007                     	;
10008                     	;
10009                     	;
10010                     	;
10011                     	;
10012                     	;
10013                     	;
10014                     	;
10015                     	;
10016                     	;
10017                     	;
10018                     	;
10019                     	;
10020                     	;
10021                     	;
10022                     	;
10023                     	;
10024                     	;
10025                     	;
10026                     	;
10027                     	;
10028                     	;
10029                     	;
10030                     	;
10031                     	;
10032                     	;
10033                     	;
10034                     	;
10035                     	;
10036                     	;
10037                     	;
10038                     	;
10039                     	;
10040                     	;
10041                     	;
10042                     	;
10043                     	;
10044                     	;
10045                     	;
10046                     	;
10047                     	;
10048                     	;
10049                     	;
10050                     	;
10051                     	;
10052                     	;
10053                     	;
  Sun Jan 12 14:21:22 2003                                                                                               Page  196




10054                     	;
10055                     	;
10056                     	;
10057                     	;
10058                     	;
10059                     	;
10060                     	;
10061                     	;
10062                     	;
10063                     	;
10064                     	;
10065                     	;
10066                     	;
10067                     	;
10068                     	;
10069                     	;
10070                     	;
10071                     	;
10072                     	;
10073                     	;
10074                     	;
10075                     	;
10076                     	;
10077                     	;
10078                     	;
10079                     	;
10080                     	;
10081                     	;
10082                     	;
10083                     	;
10084                     	;
10085                     	;
10086                     	;
10087                     	;
10088                     	;
10089                     	;
10090                     	;
10091                     	;
10092                     	;
10093                     	;
10094                     	;
10095                     	;
10096                     	;
10097                     	;
10098                     	;
10099                     	;
10100                     	;
10101                     	;
10102                     	;
10103                     	;
10104                     	;
10105                     	;
10106                     	;
10107                     	;
10108                     	;
10109                     	;
10110                     	;
  Sun Jan 12 14:21:22 2003                                                                                               Page  197




10111                     	;
10112                     	;
10113                     	;
10114                     	;
10115                     	;
10116                     	;
10117                     	;
10118                     	;
10119                     	;
10120                     	;
10121                     	;
10122                     	;
10123                     	;
10124                     	;
10125                     	;
10126                     	;
10127                     	;
10128                     	;
10129                     	;
10130                     	;
10131                     	;
10132                     	;
10133                     	;
10134                     	;
10135                     	;
10136                     	;
10137                     	;
10138                     	;
10139                     	;
10140                     	;
10141                     	;
10142                     	;
10143                     	;
10144                     	;
10145                     	;
10146                     	;
10147                     	;
10148                     	;
10149                     	;
10150                     	;
10151                     	;
10152                     	;
10153                     	;
10154                     	;
10155                     	;
10156                     	;
10157                     	;
10158                     	;
10159                     	;
10160                     	;
10161                     	;
10162                     	;
10163                     	;
10164                     	;
10165                     	;
10166                     	;
10167                     	;
  Sun Jan 12 14:21:22 2003                                                                                               Page  198




10168                     	;
10169                     	;
10170                     	;
10171                     	;
10172                     	;
10173                     	;
10174                     	;
10175                     	;
10176                     	;
10177                     	;
10178                     	;
10179                     	;
10180                     	;
10181                     	;
10182                     	;
10183                     	;
10184                     	;
10185                     	;
10186                     	;
10187                     	;
10188                     	;
10189                     	;
10190                     	;
10191                     	;
10192                     	;
10193                     	;
10194                     	;
10195                     	;
10196                     	;
10197                     	;
10198                     	;
10199                     	;
10200                     	;
10201                     	;
10202                     	;
10203                     	;
10204                     	;
10205                     	;
10206                     	;
10207                     	;
10208                     	;
10209                     	;
10210                     	;	
10211                     	;
10212                     			.attrib	_GameMTUnitPic,973,v,c,u,g,d,c,d,c,01h,020h,00h
10213                     	;
10214  BD40     05          	_GameMTStartPoint:	.byte	5
10215                     	;
10216  BD41     09          			.byte	9
10217                     	;
10218  BD42     05          			.byte	5
10219                     	;
10220  BD43     01          			.byte	1
10221                     	;
10222  BD44     05          			.byte	5
10223                     	;
10224  BD45     09          			.byte	9
  Sun Jan 12 14:21:22 2003                                                                                               Page  199




10225                     	;
10226  BD46     01          			.byte	1
10227                     	;
10228  BD47     00          			.byte	0
10229                     	;
10230  BD48     00          			.byte	0
10231                     	;
10232  BD49     01          			.byte	1
10233                     	;
10234  BD4A     00          			.byte	0
10235                     	;
10236  BD4B     09          			.byte	9
10237                     	;
10238  BD4C     01          			.byte	1
10239                     	;
10240  BD4D     0A          			.byte	10
10241                     	;
10242  BD4E     0A          			.byte	10
10243                     	;
10244  BD4F     09          			.byte	9
10245                     	;
10246  BD50     0A          			.byte	10
10247                     	;
10248  BD51     09          			.byte	9
10249                     	;
10250  BD52     00          			.byte	0
10251                     	;
10252  BD53     09          			.byte	9
10253                     	;
10254  BD54     00          			.byte	0
10255                     	;
10256  BD55     09          			.byte	9
10257                     	;
10258  BD56     09          			.byte	9
10259                     	;
10260  BD57     09          			.byte	9
10261                     	;
10262  BD58     09          			.byte	9
10263                     	;
10264  BD59     09          			.byte	9
10265                     	;
10266  BD5A     04          			.byte	4
10267                     	;
10268  BD5B     09          			.byte	9
10269                     	;
10270  BD5C     05          			.byte	5
10271                     	;
10272  BD5D     0A          			.byte	10
10273                     	;
10274  BD5E     01          			.byte	1
10275                     	;
10276  BD5F     00          			.byte	0
10277                     	;
10278  BD60     00          			.byte	0
10279                     	;
10280  BD61     01          			.byte	1
10281                     	;
  Sun Jan 12 14:21:22 2003                                                                                               Page  200




10282  BD62     07          			.byte	7
10283                     	;
10284  BD63     04          			.byte	4
10285                     	;
10286  BD64     06          			.byte	6
10287                     	;
10288  BD65     03          			.byte	3
10289                     	;
10290  BD66     06          			.byte	6
10291                     	;
10292  BD67     07          			.byte	7
10293                     	;
10294  BD68     04          			.byte	4
10295                     	;
10296  BD69     06          			.byte	6
10297                     	;
10298  BD6A     00          			.byte	0
10299                     	;
10300  BD6B     09          			.byte	9
10301                     	;
10302  BD6C     01          			.byte	1
10303                     	;
10304  BD6D     0A          			.byte	10
10305                     	;
10306  BD6E     09          			.byte	9
10307                     	;
10308  BD6F     0A          			.byte	10
10309                     	;
10310  BD70     09          			.byte	9
10311                     	;
10312  BD71     0A          			.byte	10
10313                     	;
10314  BD72     01          			.byte	1
10315                     	;
10316  BD73     0A          			.byte	10
10317                     	;
10318  BD74     01          			.byte	1
10319                     	;
10320  BD75     0A          			.byte	10
10321                     	;
10322  BD76     04          			.byte	4
10323                     	;
10324  BD77     0A          			.byte	10
10325                     	;
10326  BD78     05          			.byte	5
10327                     	;
10328  BD79     09          			.byte	9
10329                     	;
10330  BD7A     05          			.byte	5
10331                     	;
10332  BD7B     00          			.byte	0
10333                     	;
10334  BD7C     03          			.byte	3
10335                     	;
10336  BD7D     00          			.byte	0
10337                     	;
10338  BD7E     07          			.byte	7
  Sun Jan 12 14:21:22 2003                                                                                               Page  201




10339                     	;
10340  BD7F     00          			.byte	0
10341                     	;
10342  BD80     05          			.byte	5
10343                     	;
10344  BD81     00          			.byte	0
10345                     	;
10346  BD82     05          			.byte	5
10347                     	;
10348  BD83     06          			.byte	6
10349                     	;
10350  BD84     05          			.byte	5
10351                     	;
10352  BD85     08          			.byte	8
10353                     	;
10354  BD86     01          			.byte	1
10355                     	;
10356  BD87     0A          			.byte	10
10357                     	;
10358  BD88     01          			.byte	1
10359                     	;
10360  BD89     0A          			.byte	10
10361                     	;
10362  BD8A     09          			.byte	9
10363                     	;
10364  BD8B     0A          			.byte	10
10365                     	;
10366  BD8C     09          			.byte	9
10367                     	;
10368  BD8D     0A          			.byte	10
10369                     	;
10370  BD8E     05          			.byte	5
10371                     	;
10372  BD8F     04          			.byte	4
10373                     	;
10374  BD90     05          			.byte	5
10375                     	;
10376  BD91     04          			.byte	4
10377                     	;
10378  BD92     05          			.byte	5
10379                     	;
10380  BD93     06          			.byte	6
10381                     	;
10382  BD94     05          			.byte	5
10383                     	;
10384  BD95     05          			.byte	5
10385                     	;
10386  BD96     05          			.byte	5
10387                     	;
10388  BD97     05          			.byte	5
10389                     	;
10390                     			.attrib	_GameMTStartPoint,1256,v,c,u,g,d,c,d,c,01h,04h,00h
10391                     	;
10392  BD98     A2          	_GameMTWorkPad:	.byte	0a2h
10393                     	;
10394  BD99     00          			.byte	000h
10395                     	;
  Sun Jan 12 14:21:22 2003                                                                                               Page  202




10396  BD9A     00          			.byte	000h
10397                     	;
10398  BD9B     7C          			.byte	07ch
10399                     	;
10400  BD9C     D5          			.byte	0d5h
10401                     	;
10402  BD9D     01          			.byte	001h
10403                     	;
10404  BD9E     C0          			.byte	0c0h
10405                     	;
10406  BD9F     44          			.byte	044h
10407                     	;
10408  BDA0     BE          			.byte	0beh
10409                     	;
10410  BDA1     03          			.byte	003h
10411                     	;
10412  BDA2     C0          			.byte	0c0h
10413                     	;
10414  BDA3     7C          			.byte	07ch
10415                     	;
10416  BDA4     8A          			.byte	08ah
10417                     	;
10418  BDA5     01          			.byte	001h
10419                     	;
10420  BDA6     80          			.byte	080h
10421                     	;
10422  BDA7     5C          			.byte	05ch
10423                     	;
10424  BDA8     BC          			.byte	0bch
10425                     	;
10426  BDA9     03          			.byte	003h
10427                     	;
10428  BDAA     80          			.byte	080h
10429                     	;
10430  BDAB     40          			.byte	040h
10431                     	;
10432  BDAC     A8          			.byte	0a8h
10433                     	;
10434  BDAD     03          			.byte	003h
10435                     	;
10436  BDAE     00          			.byte	000h
10437                     	;
10438  BDAF     7E          			.byte	07eh
10439                     	;
10440  BDB0     BF          			.byte	0bfh
10441                     	;
10442  BDB1     03          			.byte	003h
10443                     	;
10444  BDB2     00          			.byte	000h
10445                     	;
10446  BDB3     90          			.byte	090h
10447                     	;
10448  BDB4     99          			.byte	099h
10449                     	;
10450  BDB5     07          			.byte	007h
10451                     	;
10452  BDB6     00          			.byte	000h
  Sun Jan 12 14:21:22 2003                                                                                               Page  203




10453                     	;
10454  BDB7     A4          			.byte	0a4h
10455                     	;
10456  BDB8     EA          			.byte	0eah
10457                     	;
10458  BDB9     03          			.byte	003h
10459                     	;
10460  BDBA     01          			.byte	001h
10461                     	;
10462  BDBB     3C          			.byte	03ch
10463                     	;
10464  BDBC     FF          			.byte	0ffh
10465                     	;
10466  BDBD     FF          			.byte	0ffh
10467                     	;
10468  BDBE     FF          			.byte	0ffh
10469                     	;
10470  BDBF     FE          			.byte	0feh
10471                     	;
10472  BDC0     80          			.byte	080h
10473                     	;
10474  BDC1     00          			.byte	000h
10475                     	;
10476  BDC2     00          			.byte	000h
10477                     	;
10478  BDC3     00          			.byte	000h
10479                     	;
10480  BDC4     80          			.byte	080h
10481                     	;
10482  BDC5     38          			.byte	038h
10483                     	;
10484  BDC6     06          			.byte	006h
10485                     	;
10486  BDC7     E0          			.byte	0e0h
10487                     	;
10488  BDC8     80          			.byte	080h
10489                     	;
10490  BDC9     78          			.byte	078h
10491                     	;
10492  BDCA     08          			.byte	008h
10493                     	;
10494  BDCB     A0          			.byte	0a0h
10495                     	;
10496  BDCC     80          			.byte	080h
10497                     	;
10498  BDCD     30          			.byte	030h
10499                     	;
10500  BDCE     0E          			.byte	00eh
10501                     	;
10502  BDCF     C0          			.byte	0c0h
10503                     	;
10504  BDD0     80          			.byte	080h
10505                     	;
10506  BDD1     70          			.byte	070h
10507                     	;
10508  BDD2     04          			.byte	004h
10509                     	;
  Sun Jan 12 14:21:22 2003                                                                                               Page  204




10510  BDD3     E0          			.byte	0e0h
10511                     	;
10512  BDD4     80          			.byte	080h
10513                     	;
10514  BDD5     60          			.byte	060h
10515                     	;
10516  BDD6     08          			.byte	008h
10517                     	;
10518  BDD7     90          			.byte	090h
10519                     	;
10520  BDD8     80          			.byte	080h
10521                     	;
10522  BDD9     60          			.byte	060h
10523                     	;
10524  BDDA     0F          			.byte	00fh
10525                     	;
10526  BDDB     50          			.byte	050h
10527                     	;
10528  BDDC     80          			.byte	080h
10529                     	;
10530  BDDD     E0          			.byte	0e0h
10531                     	;
10532  BDDE     03          			.byte	003h
10533                     	;
10534  BDDF     30          			.byte	030h
10535                     	;
10536  BDE0     80          			.byte	080h
10537                     	;
10538  BDE1     60          			.byte	060h
10539                     	;
10540  BDE2     0D          			.byte	00dh
10541                     	;
10542  BDE3     38          			.byte	038h
10543                     	;
10544  BDE4     80          			.byte	080h
10545                     	;
10546  BDE5     00          			.byte	000h
10547                     	;
10548  BDE6     00          			.byte	000h
10549                     	;
10550  BDE7     00          			.byte	000h
10551                     	;
10552  BDE8     FF          			.byte	0ffh
10553                     	;
10554  BDE9     FF          			.byte	0ffh
10555                     	;
10556  BDEA     FF          			.byte	0ffh
10557                     	;
10558  BDEB     FE          			.byte	0feh
10559                     	;
10560  BDEC     84          			.byte	084h
10561                     	;
10562  BDED     00          			.byte	000h
10563                     	;
10564  BDEE     00          			.byte	000h
10565                     	;
10566  BDEF     00          			.byte	000h
  Sun Jan 12 14:21:22 2003                                                                                               Page  205




10567                     	;
10568  BDF0     8E          			.byte	08eh
10569                     	;
10570  BDF1     04          			.byte	004h
10571                     	;
10572  BDF2     E7          			.byte	0e7h
10573                     	;
10574  BDF3     38          			.byte	038h
10575                     	;
10576  BDF4     9B          			.byte	09bh
10577                     	;
10578  BDF5     04          			.byte	004h
10579                     	;
10580  BDF6     A5          			.byte	0a5h
10581                     	;
10582  BDF7     28          			.byte	028h
10583                     	;
10584  BDF8     BF          			.byte	0bfh
10585                     	;
10586  BDF9     84          			.byte	084h
10587                     	;
10588  BDFA     A5          			.byte	0a5h
10589                     	;
10590  BDFB     28          			.byte	028h
10591                     	;
10592  BDFC     E0          			.byte	0e0h
10593                     	;
10594  BDFD     C4          			.byte	0c4h
10595                     	;
10596  BDFE     A5          			.byte	0a5h
10597                     	;
10598  BDFF     28          			.byte	028h
10599                     	;
10600  BE00     BB          			.byte	0bbh
10601                     	;
10602  BE01     84          			.byte	084h
10603                     	;
10604  BE02     A5          			.byte	0a5h
10605                     	;
10606  BE03     28          			.byte	028h
10607                     	;
10608  BE04     AA          			.byte	0aah
10609                     	;
10610  BE05     84          			.byte	084h
10611                     	;
10612  BE06     A5          			.byte	0a5h
10613                     	;
10614  BE07     28          			.byte	028h
10615                     	;
10616  BE08     AA          			.byte	0aah
10617                     	;
10618  BE09     84          			.byte	084h
10619                     	;
10620  BE0A     A5          			.byte	0a5h
10621                     	;
10622  BE0B     28          			.byte	028h
10623                     	;
  Sun Jan 12 14:21:22 2003                                                                                               Page  206




10624  BE0C     BB          			.byte	0bbh
10625                     	;
10626  BE0D     84          			.byte	084h
10627                     	;
10628  BE0E     A5          			.byte	0a5h
10629                     	;
10630  BE0F     28          			.byte	028h
10631                     	;
10632  BE10     82          			.byte	082h
10633                     	;
10634  BE11     04          			.byte	004h
10635                     	;
10636  BE12     E7          			.byte	0e7h
10637                     	;
10638  BE13     38          			.byte	038h
10639                     	;
10640  BE14     80          			.byte	080h
10641                     	;
10642  BE15     00          			.byte	000h
10643                     	;
10644  BE16     00          			.byte	000h
10645                     	;
10646  BE17     00          			.byte	000h
10647                     	;
10648  BE18     FF          			.byte	0ffh
10649                     	;
10650  BE19     FF          			.byte	0ffh
10651                     	;
10652  BE1A     FF          			.byte	0ffh
10653                     	;
10654  BE1B     FE          			.byte	0feh
10655                     	;
10656  BE1C     82          			.byte	082h
10657                     	;
10658  BE1D     00          			.byte	000h
10659                     	;
10660  BE1E     00          			.byte	000h
10661                     	;
10662  BE1F     00          			.byte	000h
10663                     	;
10664  BE20     84          			.byte	084h
10665                     	;
10666  BE21     00          			.byte	000h
10667                     	;
10668  BE22     27          			.byte	027h
10669                     	;
10670  BE23     00          			.byte	000h
10671                     	;
10672  BE24     FF          			.byte	0ffh
10673                     	;
10674  BE25     C0          			.byte	0c0h
10675                     	;
10676  BE26     25          			.byte	025h
10677                     	;
10678  BE27     00          			.byte	000h
10679                     	;
10680  BE28     AD          			.byte	0adh
  Sun Jan 12 14:21:22 2003                                                                                               Page  207




10681                     	;
10682  BE29     00          			.byte	000h
10683                     	;
10684  BE2A     25          			.byte	025h
10685                     	;
10686  BE2B     00          			.byte	000h
10687                     	;
10688  BE2C     B5          			.byte	0b5h
10689                     	;
10690  BE2D     00          			.byte	000h
10691                     	;
10692  BE2E     25          			.byte	025h
10693                     	;
10694  BE2F     00          			.byte	000h
10695                     	;
10696  BE30     A7          			.byte	0a7h
10697                     	;
10698  BE31     00          			.byte	000h
10699                     	;
10700  BE32     25          			.byte	025h
10701                     	;
10702  BE33     00          			.byte	000h
10703                     	;
10704  BE34     B2          			.byte	0b2h
10705                     	;
10706  BE35     00          			.byte	000h
10707                     	;
10708  BE36     25          			.byte	025h
10709                     	;
10710  BE37     00          			.byte	000h
10711                     	;
10712  BE38     E3          			.byte	0e3h
10713                     	;
10714  BE39     00          			.byte	000h
10715                     	;
10716  BE3A     25          			.byte	025h
10717                     	;
10718  BE3B     00          			.byte	000h
10719                     	;
10720  BE3C     84          			.byte	084h
10721                     	;
10722  BE3D     80          			.byte	080h
10723                     	;
10724  BE3E     25          			.byte	025h
10725                     	;
10726  BE3F     00          			.byte	000h
10727                     	;
10728  BE40     88          			.byte	088h
10729                     	;
10730  BE41     C0          			.byte	0c0h
10731                     	;
10732  BE42     27          			.byte	027h
10733                     	;
10734  BE43     00          			.byte	000h
10735                     	;
10736  BE44     80          			.byte	080h
10737                     	;
  Sun Jan 12 14:21:22 2003                                                                                               Page  208




10738  BE45     00          			.byte	000h
10739                     	;
10740  BE46     00          			.byte	000h
10741                     	;
10742  BE47     00          			.byte	000h
10743                     	;
10744  BE48     FF          			.byte	0ffh
10745                     	;
10746  BE49     FF          			.byte	0ffh
10747                     	;
10748  BE4A     FF          			.byte	0ffh
10749                     	;
10750  BE4B     FE          			.byte	0feh
10751                     	;
10752  BE4C     80          			.byte	080h
10753                     	;
10754  BE4D     00          			.byte	000h
10755                     	;
10756  BE4E     00          			.byte	000h
10757                     	;
10758  BE4F     00          			.byte	000h
10759                     	;
10760  BE50     B9          			.byte	0b9h
10761                     	;
10762  BE51     00          			.byte	000h
10763                     	;
10764  BE52     27          			.byte	027h
10765                     	;
10766  BE53     00          			.byte	000h
10767                     	;
10768  BE54     AF          			.byte	0afh
10769                     	;
10770  BE55     C0          			.byte	0c0h
10771                     	;
10772  BE56     25          			.byte	025h
10773                     	;
10774  BE57     00          			.byte	000h
10775                     	;
10776  BE58     B2          			.byte	0b2h
10777                     	;
10778  BE59     00          			.byte	000h
10779                     	;
10780  BE5A     25          			.byte	025h
10781                     	;
10782  BE5B     00          			.byte	000h
10783                     	;
10784  BE5C     BB          			.byte	0bbh
10785                     	;
10786  BE5D     80          			.byte	080h
10787                     	;
10788  BE5E     25          			.byte	025h
10789                     	;
10790  BE5F     00          			.byte	000h
10791                     	;
10792  BE60     AA          			.byte	0aah
10793                     	;
10794  BE61     80          			.byte	080h
  Sun Jan 12 14:21:22 2003                                                                                               Page  209




10795                     	;
10796  BE62     25          			.byte	025h
10797                     	;
10798  BE63     00          			.byte	000h
10799                     	;
10800  BE64     AA          			.byte	0aah
10801                     	;
10802  BE65     80          			.byte	080h
10803                     	;
10804  BE66     25          			.byte	025h
10805                     	;
10806  BE67     00          			.byte	000h
10807                     	;
10808  BE68     B2          			.byte	0b2h
10809                     	;
10810  BE69     80          			.byte	080h
10811                     	;
10812  BE6A     25          			.byte	025h
10813                     	;
10814  BE6B     00          			.byte	000h
10815                     	;
10816  BE6C     A4          			.byte	0a4h
10817                     	;
10818  BE6D     80          			.byte	080h
10819                     	;
10820  BE6E     25          			.byte	025h
10821                     	;
10822  BE6F     00          			.byte	000h
10823                     	;
10824  BE70     A9          			.byte	0a9h
10825                     	;
10826  BE71     80          			.byte	080h
10827                     	;
10828  BE72     27          			.byte	027h
10829                     	;
10830  BE73     00          			.byte	000h
10831                     	;
10832  BE74     80          			.byte	080h
10833                     	;
10834  BE75     00          			.byte	000h
10835                     	;
10836  BE76     00          			.byte	000h
10837                     	;
10838  BE77     00          			.byte	000h
10839                     	;
10840  BE78     FF          			.byte	0ffh
10841                     	;
10842  BE79     FF          			.byte	0ffh
10843                     	;
10844  BE7A     FF          			.byte	0ffh
10845                     	;
10846  BE7B     FE          			.byte	0feh
10847                     	;
10848  BE7C     80          			.byte	080h
10849                     	;
10850  BE7D     00          			.byte	000h
10851                     	;
  Sun Jan 12 14:21:22 2003                                                                                               Page  210




10852  BE7E     00          			.byte	000h
10853                     	;
10854  BE7F     00          			.byte	000h
10855                     	;
10856  BE80     84          			.byte	084h
10857                     	;
10858  BE81     00          			.byte	000h
10859                     	;
10860  BE82     0E          			.byte	00eh
10861                     	;
10862  BE83     00          			.byte	000h
10863                     	;
10864  BE84     8E          			.byte	08eh
10865                     	;
10866  BE85     00          			.byte	000h
10867                     	;
10868  BE86     0A          			.byte	00ah
10869                     	;
10870  BE87     00          			.byte	000h
10871                     	;
10872  BE88     9B          			.byte	09bh
10873                     	;
10874  BE89     00          			.byte	000h
10875                     	;
10876  BE8A     0A          			.byte	00ah
10877                     	;
10878  BE8B     00          			.byte	000h
10879                     	;
10880  BE8C     BF          			.byte	0bfh
10881                     	;
10882  BE8D     80          			.byte	080h
10883                     	;
10884  BE8E     0A          			.byte	00ah
10885                     	;
10886  BE8F     00          			.byte	000h
10887                     	;
10888  BE90     E4          			.byte	0e4h
10889                     	;
10890  BE91     C0          			.byte	0c0h
10891                     	;
10892  BE92     0A          			.byte	00ah
10893                     	;
10894  BE93     00          			.byte	000h
10895                     	;
10896  BE94     8E          			.byte	08eh
10897                     	;
10898  BE95     00          			.byte	000h
10899                     	;
10900  BE96     0A          			.byte	00ah
10901                     	;
10902  BE97     00          			.byte	000h
10903                     	;
10904  BE98     95          			.byte	095h
10905                     	;
10906  BE99     00          			.byte	000h
10907                     	;
10908  BE9A     0A          			.byte	00ah
  Sun Jan 12 14:21:22 2003                                                                                               Page  211




10909                     	;
10910  BE9B     00          			.byte	000h
10911                     	;
10912  BE9C     8E          			.byte	08eh
10913                     	;
10914  BE9D     00          			.byte	000h
10915                     	;
10916  BE9E     0A          			.byte	00ah
10917                     	;
10918  BE9F     00          			.byte	000h
10919                     	;
10920  BEA0     BF          			.byte	0bfh
10921                     	;
10922  BEA1     80          			.byte	080h
10923                     	;
10924  BEA2     0E          			.byte	00eh
10925                     	;
10926  BEA3     00          			.byte	000h
10927                     	;
10928  BEA4     80          			.byte	080h
10929                     	;
10930  BEA5     00          			.byte	000h
10931                     	;
10932  BEA6     00          			.byte	000h
10933                     	;
10934  BEA7     00          			.byte	000h
10935                     	;
10936  BEA8     FF          			.byte	0ffh
10937                     	;
10938  BEA9     FF          			.byte	0ffh
10939                     	;
10940  BEAA     FF          			.byte	0ffh
10941                     	;
10942  BEAB     FE          			.byte	0feh
10943                     	;
10944  BEAC     80          			.byte	080h
10945                     	;
10946  BEAD     00          			.byte	000h
10947                     	;
10948  BEAE     00          			.byte	000h
10949                     	;
10950  BEAF     00          			.byte	000h
10951                     	;
10952  BEB0     9B          			.byte	09bh
10953                     	;
10954  BEB1     80          			.byte	080h
10955                     	;
10956  BEB2     0E          			.byte	00eh
10957                     	;
10958  BEB3     00          			.byte	000h
10959                     	;
10960  BEB4     A0          			.byte	0a0h
10961                     	;
10962  BEB5     80          			.byte	080h
10963                     	;
10964  BEB6     0A          			.byte	00ah
10965                     	;
  Sun Jan 12 14:21:22 2003                                                                                               Page  212




10966  BEB7     00          			.byte	000h
10967                     	;
10968  BEB8     B9          			.byte	0b9h
10969                     	;
10970  BEB9     00          			.byte	000h
10971                     	;
10972  BEBA     0A          			.byte	00ah
10973                     	;
10974  BEBB     00          			.byte	000h
10975                     	;
10976  BEBC     96          			.byte	096h
10977                     	;
10978  BEBD     C0          			.byte	0c0h
10979                     	;
10980  BEBE     0A          			.byte	00ah
10981                     	;
10982  BEBF     00          			.byte	000h
10983                     	;
10984  BEC0     A3          			.byte	0a3h
10985                     	;
10986  BEC1     80          			.byte	080h
10987                     	;
10988  BEC2     0A          			.byte	00ah
10989                     	;
10990  BEC3     00          			.byte	000h
10991                     	;
10992  BEC4     B9          			.byte	0b9h
10993                     	;
10994  BEC5     00          			.byte	000h
10995                     	;
10996  BEC6     0A          			.byte	00ah
10997                     	;
10998  BEC7     00          			.byte	000h
10999                     	;
11000  BEC8     89          			.byte	089h
11001                     	;
11002  BEC9     00          			.byte	000h
11003                     	;
11004  BECA     0A          			.byte	00ah
11005                     	;
11006  BECB     00          			.byte	000h
11007                     	;
11008  BECC     B7          			.byte	0b7h
11009                     	;
11010  BECD     C0          			.byte	0c0h
11011                     	;
11012  BECE     0A          			.byte	00ah
11013                     	;
11014  BECF     00          			.byte	000h
11015                     	;
11016  BED0     80          			.byte	080h
11017                     	;
11018  BED1     00          			.byte	000h
11019                     	;
11020  BED2     0E          			.byte	00eh
11021                     	;
11022  BED3     00          			.byte	000h
  Sun Jan 12 14:21:22 2003                                                                                               Page  213




11023                     	;
11024  BED4     80          			.byte	080h
11025                     	;
11026  BED5     00          			.byte	000h
11027                     	;
11028  BED6     00          			.byte	000h
11029                     	;
11030  BED7     00          			.byte	000h
11031                     	;
11032  BED8     FF          			.byte	0ffh
11033                     	;
11034  BED9     FF          			.byte	0ffh
11035                     	;
11036  BEDA     FF          			.byte	0ffh
11037                     	;
11038  BEDB     FE          			.byte	0feh
11039                     	;
11040  BEDC     80          			.byte	080h
11041                     	;
11042  BEDD     20          			.byte	020h
11043                     	;
11044  BEDE     08          			.byte	008h
11045                     	;
11046  BEDF     00          			.byte	000h
11047                     	;
11048  BEE0     81          			.byte	081h
11049                     	;
11050  BEE1     23          			.byte	023h
11051                     	;
11052  BEE2     09          			.byte	009h
11053                     	;
11054  BEE3     00          			.byte	000h
11055                     	;
11056  BEE4     82          			.byte	082h
11057                     	;
11058  BEE5     25          			.byte	025h
11059                     	;
11060  BEE6     08          			.byte	008h
11061                     	;
11062  BEE7     80          			.byte	080h
11063                     	;
11064  BEE8     9C          			.byte	09ch
11065                     	;
11066  BEE9     27          			.byte	027h
11067                     	;
11068  BEEA     08          			.byte	008h
11069                     	;
11070  BEEB     70          			.byte	070h
11071                     	;
11072  BEEC     94          			.byte	094h
11073                     	;
11074  BEED     20          			.byte	020h
11075                     	;
11076  BEEE     88          			.byte	088h
11077                     	;
11078  BEEF     50          			.byte	050h
11079                     	;
  Sun Jan 12 14:21:22 2003                                                                                               Page  214




11080  BEF0     8C          			.byte	08ch
11081                     	;
11082  BEF1     20          			.byte	020h
11083                     	;
11084  BEF2     48          			.byte	048h
11085                     	;
11086  BEF3     60          			.byte	060h
11087                     	;
11088  BEF4     80          			.byte	080h
11089                     	;
11090  BEF5     20          			.byte	020h
11091                     	;
11092  BEF6     08          			.byte	008h
11093                     	;
11094  BEF7     00          			.byte	000h
11095                     	;
11096  BEF8     FF          			.byte	0ffh
11097                     	;
11098  BEF9     FF          			.byte	0ffh
11099                     	;
11100  BEFA     FF          			.byte	0ffh
11101                     	;
11102  BEFB     FE          			.byte	0feh
11103                     	;
11104  BEFC     80          			.byte	080h
11105                     	;
11106  BEFD     20          			.byte	020h
11107                     	;
11108  BEFE     08          			.byte	008h
11109                     	;
11110  BEFF     00          			.byte	000h
11111                     	;
11112  BF00     8E          			.byte	08eh
11113                     	;
11114  BF01     23          			.byte	023h
11115                     	;
11116  BF02     88          			.byte	088h
11117                     	;
11118  BF03     E0          			.byte	0e0h
11119                     	;
11120  BF04     8A          			.byte	08ah
11121                     	;
11122  BF05     22          			.byte	022h
11123                     	;
11124  BF06     88          			.byte	088h
11125                     	;
11126  BF07     A0          			.byte	0a0h
11127                     	;
11128  BF08     8A          			.byte	08ah
11129                     	;
11130  BF09     22          			.byte	022h
11131                     	;
11132  BF0A     88          			.byte	088h
11133                     	;
11134  BF0B     A0          			.byte	0a0h
11135                     	;
11136  BF0C     8A          			.byte	08ah
  Sun Jan 12 14:21:22 2003                                                                                               Page  215




11137                     	;
11138  BF0D     22          			.byte	022h
11139                     	;
11140  BF0E     88          			.byte	088h
11141                     	;
11142  BF0F     A0          			.byte	0a0h
11143                     	;
11144  BF10     8E          			.byte	08eh
11145                     	;
11146  BF11     23          			.byte	023h
11147                     	;
11148  BF12     88          			.byte	088h
11149                     	;
11150  BF13     E0          			.byte	0e0h
11151                     	;
11152  BF14     80          			.byte	080h
11153                     	;
11154  BF15     20          			.byte	020h
11155                     	;
11156  BF16     08          			.byte	008h
11157                     	;
11158  BF17     00          			.byte	000h
11159                     	;
11160                     			.attrib	_GameMTWorkPad,1355,v,c,u,g,d,c,d,c,0180h,00h
11161                     	;
11162  BF18     20          	_GameMTUnknown:	.byte	020h
11163                     	;
11164  BF19     82          			.byte	082h
11165                     	;
11166  BF1A     08          			.byte	008h
11167                     	;
11168  BF1B     51          			.byte	051h
11169                     	;
11170  BF1C     45          			.byte	045h
11171                     	;
11172  BF1D     14          			.byte	014h
11173                     	;
11174  BF1E     8A          			.byte	08ah
11175                     	;
11176  BF1F     28          			.byte	028h
11177                     	;
11178  BF20     A2          			.byte	0a2h
11179                     	;
11180  BF21     10          			.byte	010h
11181                     	;
11182  BF22     41          			.byte	041h
11183                     	;
11184  BF23     04          			.byte	004h
11185                     	;
11186  BF24     20          			.byte	020h
11187                     	;
11188  BF25     82          			.byte	082h
11189                     	;
11190  BF26     08          			.byte	008h
11191                     	;
11192  BF27     20          			.byte	020h
11193                     	;
  Sun Jan 12 14:21:22 2003                                                                                               Page  216




11194  BF28     82          			.byte	082h
11195                     	;
11196  BF29     08          			.byte	008h
11197                     	;
11198  BF2A     20          			.byte	020h
11199                     	;
11200  BF2B     82          			.byte	082h
11201                     	;
11202  BF2C     08          			.byte	008h
11203                     	;
11204  BF2D     00          			.byte	000h
11205                     	;
11206  BF2E     00          			.byte	000h
11207                     	;
11208  BF2F     00          			.byte	000h
11209                     	;
11210  BF30     20          			.byte	020h
11211                     	;
11212  BF31     82          			.byte	082h
11213                     	;
11214  BF32     08          			.byte	008h
11215                     	;
11216                     			.attrib	_GameMTUnknown,1366,v,c,u,g,d,c,d,c,01bh,00h
11217                     	;
11218  BF33     08          	_GameMTMonName:	.byte	008h
11219                     	;
11220  BF34     00          			.byte	000h
11221                     	;
11222  BF35     40          			.byte	040h
11223                     	;
11224  BF36     20          			.byte	020h
11225                     	;
11226  BF37     10          			.byte	010h
11227                     	;
11228  BF38     0E          			.byte	00eh
11229                     	;
11230  BF39     B0          			.byte	0b0h
11231                     	;
11232  BF3A     20          			.byte	020h
11233                     	;
11234  BF3B     7F          			.byte	07fh
11235                     	;
11236  BF3C     00          			.byte	000h
11237                     	;
11238  BF3D     90          			.byte	090h
11239                     	;
11240  BF3E     20          			.byte	020h
11241                     	;
11242  BF3F     41          			.byte	041h
11243                     	;
11244  BF40     3F          			.byte	03fh
11245                     	;
11246  BF41     E0          			.byte	0e0h
11247                     	;
11248  BF42     20          			.byte	020h
11249                     	;
11250  BF43     41          			.byte	041h
  Sun Jan 12 14:21:22 2003                                                                                               Page  217




11251                     	;
11252  BF44     04          			.byte	004h
11253                     	;
11254  BF45     83          			.byte	083h
11255                     	;
11256  BF46     FE          			.byte	0feh
11257                     	;
11258  BF47     7F          			.byte	07fh
11259                     	;
11260  BF48     14          			.byte	014h
11261                     	;
11262  BF49     80          			.byte	080h
11263                     	;
11264  BF4A     20          			.byte	020h
11265                     	;
11266  BF4B     41          			.byte	041h
11267                     	;
11268  BF4C     17          			.byte	017h
11269                     	;
11270  BF4D     40          			.byte	040h
11271                     	;
11272  BF4E     20          			.byte	020h
11273                     	;
11274  BF4F     41          			.byte	041h
11275                     	;
11276  BF50     14          			.byte	014h
11277                     	;
11278  BF51     48          			.byte	048h
11279                     	;
11280  BF52     20          			.byte	020h
11281                     	;
11282  BF53     41          			.byte	041h
11283                     	;
11284  BF54     13          			.byte	013h
11285                     	;
11286  BF55     B1          			.byte	0b1h
11287                     	;
11288  BF56     FC          			.byte	0fch
11289                     	;
11290  BF57     7E          			.byte	07eh
11291                     	;
11292  BF58     1C          			.byte	01ch
11293                     	;
11294  BF59     10          			.byte	010h
11295                     	;
11296  BF5A     00          			.byte	000h
11297                     	;
11298  BF5B     00          			.byte	000h
11299                     	;
11300  BF5C     00          			.byte	000h
11301                     	;
11302  BF5D     00          			.byte	000h
11303                     	;
11304  BF5E     00          			.byte	000h
11305                     	;
11306  BF5F     7F          			.byte	07fh
11307                     	;
  Sun Jan 12 14:21:22 2003                                                                                               Page  218




11308  BF60     00          			.byte	000h
11309                     	;
11310  BF61     00          			.byte	000h
11311                     	;
11312  BF62     F8          			.byte	0f8h
11313                     	;
11314  BF63     11          			.byte	011h
11315                     	;
11316  BF64     00          			.byte	000h
11317                     	;
11318  BF65     01          			.byte	001h
11319                     	;
11320  BF66     00          			.byte	000h
11321                     	;
11322  BF67     11          			.byte	011h
11323                     	;
11324  BF68     00          			.byte	000h
11325                     	;
11326  BF69     01          			.byte	001h
11327                     	;
11328  BF6A     06          			.byte	006h
11329                     	;
11330  BF6B     11          			.byte	011h
11331                     	;
11332  BF6C     00          			.byte	000h
11333                     	;
11334  BF6D     01          			.byte	001h
11335                     	;
11336  BF6E     F8          			.byte	0f8h
11337                     	;
11338  BF6F     11          			.byte	011h
11339                     	;
11340  BF70     00          			.byte	000h
11341                     	;
11342  BF71     01          			.byte	001h
11343                     	;
11344  BF72     10          			.byte	010h
11345                     	;
11346  BF73     12          			.byte	012h
11347                     	;
11348  BF74     00          			.byte	000h
11349                     	;
11350  BF75     07          			.byte	007h
11351                     	;
11352  BF76     FE          			.byte	0feh
11353                     	;
11354  BF77     10          			.byte	010h
11355                     	;
11356  BF78     00          			.byte	000h
11357                     	;
11358  BF79     00          			.byte	000h
11359                     	;
11360  BF7A     90          			.byte	090h
11361                     	;
11362  BF7B     FF          			.byte	0ffh
11363                     	;
11364  BF7C     80          			.byte	080h
  Sun Jan 12 14:21:22 2003                                                                                               Page  219




11365                     	;
11366  BF7D     01          			.byte	001h
11367                     	;
11368  BF7E     0C          			.byte	00ch
11369                     	;
11370  BF7F     00          			.byte	000h
11371                     	;
11372  BF80     00          			.byte	000h
11373                     	;
11374  BF81     02          			.byte	002h
11375                     	;
11376  BF82     02          			.byte	002h
11377                     	;
11378  BF83     08          			.byte	008h
11379                     	;
11380  BF84     08          			.byte	008h
11381                     	;
11382  BF85     81          			.byte	081h
11383                     	;
11384  BF86     3E          			.byte	03eh
11385                     	;
11386  BF87     08          			.byte	008h
11387                     	;
11388  BF88     09          			.byte	009h
11389                     	;
11390  BF89     F1          			.byte	0f1h
11391                     	;
11392  BF8A     00          			.byte	000h
11393                     	;
11394  BF8B     08          			.byte	008h
11395                     	;
11396  BF8C     09          			.byte	009h
11397                     	;
11398  BF8D     11          			.byte	011h
11399                     	;
11400  BF8E     1C          			.byte	01ch
11401                     	;
11402  BF8F     7F          			.byte	07fh
11403                     	;
11404  BF90     BD          			.byte	0bdh
11405                     	;
11406  BF91     F7          			.byte	0f7h
11407                     	;
11408  BF92     94          			.byte	094h
11409                     	;
11410  BF93     08          			.byte	008h
11411                     	;
11412  BF94     2D          			.byte	02dh
11413                     	;
11414  BF95     05          			.byte	005h
11415                     	;
11416  BF96     9C          			.byte	09ch
11417                     	;
11418  BF97     18          			.byte	018h
11419                     	;
11420  BF98     3D          			.byte	03dh
11421                     	;
  Sun Jan 12 14:21:22 2003                                                                                               Page  220




11422  BF99     F7          			.byte	0f7h
11423                     	;
11424  BF9A     BE          			.byte	0beh
11425                     	;
11426  BF9B     14          			.byte	014h
11427                     	;
11428  BF9C     09          			.byte	009h
11429                     	;
11430  BF9D     D1          			.byte	0d1h
11431                     	;
11432  BF9E     2A          			.byte	02ah
11433                     	;
11434  BF9F     22          			.byte	022h
11435                     	;
11436  BFA0     0B          			.byte	00bh
11437                     	;
11438  BFA1     F1          			.byte	0f1h
11439                     	;
11440  BFA2     7E          			.byte	07eh
11441                     	;
11442  BFA3     21          			.byte	021h
11443                     	;
11444  BFA4     0F          			.byte	00fh
11445                     	;
11446  BFA5     F1          			.byte	0f1h
11447                     	;
11448  BFA6     EA          			.byte	0eah
11449                     	;
11450  BFA7     C0          			.byte	0c0h
11451                     	;
11452  BFA8     B2          			.byte	0b2h
11453                     	;
11454  BFA9     D6          			.byte	0d6h
11455                     	;
11456  BFAA     7E          			.byte	07eh
11457                     	;
11458  BFAB     08          			.byte	008h
11459                     	;
11460  BFAC     08          			.byte	008h
11461                     	;
11462  BFAD     01          			.byte	001h
11463                     	;
11464  BFAE     00          			.byte	000h
11465                     	;
11466  BFAF     08          			.byte	008h
11467                     	;
11468  BFB0     09          			.byte	009h
11469                     	;
11470  BFB1     E1          			.byte	0e1h
11471                     	;
11472  BFB2     7C          			.byte	07ch
11473                     	;
11474  BFB3     08          			.byte	008h
11475                     	;
11476  BFB4     3C          			.byte	03ch
11477                     	;
11478  BFB5     81          			.byte	081h
  Sun Jan 12 14:21:22 2003                                                                                               Page  221




11479                     	;
11480  BFB6     28          			.byte	028h
11481                     	;
11482  BFB7     7F          			.byte	07fh
11483                     	;
11484  BFB8     94          			.byte	094h
11485                     	;
11486  BFB9     85          			.byte	085h
11487                     	;
11488  BFBA     90          			.byte	090h
11489                     	;
11490  BFBB     08          			.byte	008h
11491                     	;
11492  BFBC     17          			.byte	017h
11493                     	;
11494  BFBD     F5          			.byte	0f5h
11495                     	;
11496  BFBE     2C          			.byte	02ch
11497                     	;
11498  BFBF     18          			.byte	018h
11499                     	;
11500  BFC0     14          			.byte	014h
11501                     	;
11502  BFC1     C1          			.byte	0c1h
11503                     	;
11504  BFC2     52          			.byte	052h
11505                     	;
11506  BFC3     14          			.byte	014h
11507                     	;
11508  BFC4     14          			.byte	014h
11509                     	;
11510  BFC5     C1          			.byte	0c1h
11511                     	;
11512  BFC6     10          			.byte	010h
11513                     	;
11514  BFC7     22          			.byte	022h
11515                     	;
11516  BFC8     0D          			.byte	00dh
11517                     	;
11518  BFC9     21          			.byte	021h
11519                     	;
11520  BFCA     38          			.byte	038h
11521                     	;
11522  BFCB     21          			.byte	021h
11523                     	;
11524  BFCC     17          			.byte	017h
11525                     	;
11526  BFCD     11          			.byte	011h
11527                     	;
11528  BFCE     10          			.byte	010h
11529                     	;
11530  BFCF     C0          			.byte	0c0h
11531                     	;
11532  BFD0     A2          			.byte	0a2h
11533                     	;
11534  BFD1     09          			.byte	009h
11535                     	;
  Sun Jan 12 14:21:22 2003                                                                                               Page  222




11536  BFD2     FE          			.byte	0feh
11537                     	;
11538  BFD3     08          			.byte	008h
11539                     	;
11540  BFD4     00          			.byte	000h
11541                     	;
11542  BFD5     80          			.byte	080h
11543                     	;
11544  BFD6     80          			.byte	080h
11545                     	;
11546  BFD7     08          			.byte	008h
11547                     	;
11548  BFD8     10          			.byte	010h
11549                     	;
11550  BFD9     80          			.byte	080h
11551                     	;
11552  BFDA     FE          			.byte	0feh
11553                     	;
11554  BFDB     08          			.byte	008h
11555                     	;
11556  BFDC     0B          			.byte	00bh
11557                     	;
11558  BFDD     F2          			.byte	0f2h
11559                     	;
11560  BFDE     90          			.byte	090h
11561                     	;
11562  BFDF     7F          			.byte	07fh
11563                     	;
11564  BFE0     84          			.byte	084h
11565                     	;
11566  BFE1     82          			.byte	082h
11567                     	;
11568  BFE2     FE          			.byte	0feh
11569                     	;
11570  BFE3     08          			.byte	008h
11571                     	;
11572  BFE4     18          			.byte	018h
11573                     	;
11574  BFE5     83          			.byte	083h
11575                     	;
11576  BFE6     52          			.byte	052h
11577                     	;
11578  BFE7     18          			.byte	018h
11579                     	;
11580  BFE8     0F          			.byte	00fh
11581                     	;
11582  BFE9     F3          			.byte	0f3h
11583                     	;
11584  BFEA     52          			.byte	052h
11585                     	;
11586  BFEB     14          			.byte	014h
11587                     	;
11588  BFEC     09          			.byte	009h
11589                     	;
11590  BFED     03          			.byte	003h
11591                     	;
11592  BFEE     52          			.byte	052h
  Sun Jan 12 14:21:22 2003                                                                                               Page  223




11593                     	;
11594  BFEF     22          			.byte	022h
11595                     	;
11596  BFF0     11          			.byte	011h
11597                     	;
11598  BFF1     21          			.byte	021h
11599                     	;
11600  BFF2     56          			.byte	056h
11601                     	;
11602  BFF3     21          			.byte	021h
11603                     	;
11604  BFF4     12          			.byte	012h
11605                     	;
11606  BFF5     12          			.byte	012h
11607                     	;
11608  BFF6     10          			.byte	010h
11609                     	;
11610  BFF7     C0          			.byte	0c0h
11611                     	;
11612  BFF8     93          			.byte	093h
11613                     	;
11614  BFF9     F4          			.byte	0f4h
11615                     	;
11616  BFFA     10          			.byte	010h
11617                     	;
11618  BFFB     00          			.byte	000h
11619                     	;
11620  BFFC     00          			.byte	000h
11621                     	;
11622  BFFD     00          			.byte	000h
11623                     	;
11624  BFFE     20          			.byte	020h
11625                     	;
11626  BFFF     7F          			.byte	07fh
11627                     	;
11628  C000     00          			.byte	000h
11629                     	;
11630  C001     00          			.byte	000h
11631                     	;
11632  C002     20          			.byte	020h
11633                     	;
11634  C003     11          			.byte	011h
11635                     	;
11636  C004     00          			.byte	000h
11637                     	;
11638  C005     00          			.byte	000h
11639                     	;
11640  C006     20          			.byte	020h
11641                     	;
11642  C007     11          			.byte	011h
11643                     	;
11644  C008     00          			.byte	000h
11645                     	;
11646  C009     00          			.byte	000h
11647                     	;
11648  C00A     20          			.byte	020h
11649                     	;
  Sun Jan 12 14:21:22 2003                                                                                               Page  224




11650  C00B     11          			.byte	011h
11651                     	;
11652  C00C     00          			.byte	000h
11653                     	;
11654  C00D     03          			.byte	003h
11655                     	;
11656  C00E     FE          			.byte	0feh
11657                     	;
11658  C00F     11          			.byte	011h
11659                     	;
11660  C010     00          			.byte	000h
11661                     	;
11662  C011     00          			.byte	000h
11663                     	;
11664  C012     20          			.byte	020h
11665                     	;
11666  C013     12          			.byte	012h
11667                     	;
11668  C014     00          			.byte	000h
11669                     	;
11670  C015     00          			.byte	000h
11671                     	;
11672  C016     20          			.byte	020h
11673                     	;
11674  C017     10          			.byte	010h
11675                     	;
11676  C018     00          			.byte	000h
11677                     	;
11678  C019     00          			.byte	000h
11679                     	;
11680  C01A     20          			.byte	020h
11681                     	;
11682  C01B     FF          			.byte	0ffh
11683                     	;
11684  C01C     80          			.byte	080h
11685                     	;
11686  C01D     01          			.byte	001h
11687                     	;
11688  C01E     FC          			.byte	0fch
11689                     	;
11690  C01F     00          			.byte	000h
11691                     	;
11692  C020     00          			.byte	000h
11693                     	;
11694  C021     00          			.byte	000h
11695                     	;
11696  C022     00          			.byte	000h
11697                     	;
11698  C023     20          			.byte	020h
11699                     	;
11700  C024     00          			.byte	000h
11701                     	;
11702  C025     00          			.byte	000h
11703                     	;
11704  C026     00          			.byte	000h
11705                     	;
11706  C027     2F          			.byte	02fh
  Sun Jan 12 14:21:22 2003                                                                                               Page  225




11707                     	;
11708  C028     80          			.byte	080h
11709                     	;
11710  C029     01          			.byte	001h
11711                     	;
11712  C02A     FC          			.byte	0fch
11713                     	;
11714  C02B     25          			.byte	025h
11715                     	;
11716  C02C     00          			.byte	000h
11717                     	;
11718  C02D     00          			.byte	000h
11719                     	;
11720  C02E     20          			.byte	020h
11721                     	;
11722  C02F     B2          			.byte	0b2h
11723                     	;
11724  C030     00          			.byte	000h
11725                     	;
11726  C031     00          			.byte	000h
11727                     	;
11728  C032     20          			.byte	020h
11729                     	;
11730  C033     A5          			.byte	0a5h
11731                     	;
11732  C034     80          			.byte	080h
11733                     	;
11734  C035     00          			.byte	000h
11735                     	;
11736  C036     20          			.byte	020h
11737                     	;
11738  C037     2A          			.byte	02ah
11739                     	;
11740  C038     40          			.byte	040h
11741                     	;
11742  C039     00          			.byte	000h
11743                     	;
11744  C03A     F8          			.byte	0f8h
11745                     	;
11746  C03B     22          			.byte	022h
11747                     	;
11748  C03C     00          			.byte	000h
11749                     	;
11750  C03D     00          			.byte	000h
11751                     	;
11752  C03E     20          			.byte	020h
11753                     	;
11754  C03F     27          			.byte	027h
11755                     	;
11756  C040     00          			.byte	000h
11757                     	;
11758  C041     00          			.byte	000h
11759                     	;
11760  C042     20          			.byte	020h
11761                     	;
11762  C043     22          			.byte	022h
11763                     	;
  Sun Jan 12 14:21:22 2003                                                                                               Page  226




11764  C044     00          			.byte	000h
11765                     	;
11766  C045     03          			.byte	003h
11767                     	;
11768  C046     FE          			.byte	0feh
11769                     	;
11770  C047     3F          			.byte	03fh
11771                     	;
11772  C048     C0          			.byte	0c0h
11773                     	;
11774  C049     00          			.byte	000h
11775                     	;
11776  C04A     00          			.byte	000h
11777                     	;
11778  C04B     7F          			.byte	07fh
11779                     	;
11780  C04C     08          			.byte	008h
11781                     	;
11782  C04D     40          			.byte	040h
11783                     	;
11784  C04E     FC          			.byte	0fch
11785                     	;
11786  C04F     5D          			.byte	05dh
11787                     	;
11788  C050     1D          			.byte	01dh
11789                     	;
11790  C051     F0          			.byte	0f0h
11791                     	;
11792  C052     04          			.byte	004h
11793                     	;
11794  C053     49          			.byte	049h
11795                     	;
11796  C054     1C          			.byte	01ch
11797                     	;
11798  C055     E0          			.byte	0e0h
11799                     	;
11800  C056     FC          			.byte	0fch
11801                     	;
11802  C057     7F          			.byte	07fh
11803                     	;
11804  C058     08          			.byte	008h
11805                     	;
11806  C059     40          			.byte	040h
11807                     	;
11808  C05A     04          			.byte	004h
11809                     	;
11810  C05B     08          			.byte	008h
11811                     	;
11812  C05C     3F          			.byte	03fh
11813                     	;
11814  C05D     F0          			.byte	0f0h
11815                     	;
11816  C05E     FC          			.byte	0fch
11817                     	;
11818  C05F     7F          			.byte	07fh
11819                     	;
11820  C060     09          			.byte	009h
  Sun Jan 12 14:21:22 2003                                                                                               Page  227




11821                     	;
11822  C061     E1          			.byte	0e1h
11823                     	;
11824  C062     28          			.byte	028h
11825                     	;
11826  C063     08          			.byte	008h
11827                     	;
11828  C064     1D          			.byte	01dh
11829                     	;
11830  C065     21          			.byte	021h
11831                     	;
11832  C066     50          			.byte	050h
11833                     	;
11834  C067     7F          			.byte	07fh
11835                     	;
11836  C068     2D          			.byte	02dh
11837                     	;
11838  C069     E0          			.byte	0e0h
11839                     	;
11840  C06A     50          			.byte	050h
11841                     	;
11842  C06B     55          			.byte	055h
11843                     	;
11844  C06C     09          			.byte	009h
11845                     	;
11846  C06D     E0          			.byte	0e0h
11847                     	;
11848  C06E     88          			.byte	088h
11849                     	;
11850  C06F     94          			.byte	094h
11851                     	;
11852  C070     89          			.byte	089h
11853                     	;
11854  C071     63          			.byte	063h
11855                     	;
11856  C072     06          			.byte	006h
11857                     	;
11858  C073     00          			.byte	000h
11859                     	;
11860  C074     00          			.byte	000h
11861                     	;
11862  C075     80          			.byte	080h
11863                     	;
11864  C076     80          			.byte	080h
11865                     	;
11866  C077     40          			.byte	040h
11867                     	;
11868  C078     10          			.byte	010h
11869                     	;
11870  C079     80          			.byte	080h
11871                     	;
11872  C07A     FE          			.byte	0feh
11873                     	;
11874  C07B     9F          			.byte	09fh
11875                     	;
11876  C07C     0B          			.byte	00bh
11877                     	;
  Sun Jan 12 14:21:22 2003                                                                                               Page  228




11878  C07D     F2          			.byte	0f2h
11879                     	;
11880  C07E     90          			.byte	090h
11881                     	;
11882  C07F     A4          			.byte	0a4h
11883                     	;
11884  C080     04          			.byte	004h
11885                     	;
11886  C081     82          			.byte	082h
11887                     	;
11888  C082     FE          			.byte	0feh
11889                     	;
11890  C083     E4          			.byte	0e4h
11891                     	;
11892  C084     18          			.byte	018h
11893                     	;
11894  C085     83          			.byte	083h
11895                     	;
11896  C086     52          			.byte	052h
11897                     	;
11898  C087     44          			.byte	044h
11899                     	;
11900  C088     0F          			.byte	00fh
11901                     	;
11902  C089     F3          			.byte	0f3h
11903                     	;
11904  C08A     52          			.byte	052h
11905                     	;
11906  C08B     E4          			.byte	0e4h
11907                     	;
11908  C08C     09          			.byte	009h
11909                     	;
11910  C08D     03          			.byte	003h
11911                     	;
11912  C08E     52          			.byte	052h
11913                     	;
11914  C08F     04          			.byte	004h
11915                     	;
11916  C090     11          			.byte	011h
11917                     	;
11918  C091     21          			.byte	021h
11919                     	;
11920  C092     56          			.byte	056h
11921                     	;
11922  C093     FF          			.byte	0ffh
11923                     	;
11924  C094     92          			.byte	092h
11925                     	;
11926  C095     12          			.byte	012h
11927                     	;
11928  C096     10          			.byte	010h
11929                     	;
11930  C097     00          			.byte	000h
11931                     	;
11932  C098     13          			.byte	013h
11933                     	;
11934  C099     F4          			.byte	0f4h
  Sun Jan 12 14:21:22 2003                                                                                               Page  229




11935                     	;
11936  C09A     00          			.byte	000h
11937                     	;
11938  C09B     00          			.byte	000h
11939                     	;
11940  C09C     01          			.byte	001h
11941                     	;
11942  C09D     00          			.byte	000h
11943                     	;
11944  C09E     00          			.byte	000h
11945                     	;
11946  C09F     40          			.byte	040h
11947                     	;
11948  C0A0     1E          			.byte	01eh
11949                     	;
11950  C0A1     E1          			.byte	0e1h
11951                     	;
11952  C0A2     FC          			.byte	0fch
11953                     	;
11954  C0A3     9F          			.byte	09fh
11955                     	;
11956  C0A4     13          			.byte	013h
11957                     	;
11958  C0A5     50          			.byte	050h
11959                     	;
11960  C0A6     20          			.byte	020h
11961                     	;
11962  C0A7     A4          			.byte	0a4h
11963                     	;
11964  C0A8     1F          			.byte	01fh
11965                     	;
11966  C0A9     E0          			.byte	0e0h
11967                     	;
11968  C0AA     20          			.byte	020h
11969                     	;
11970  C0AB     E4          			.byte	0e4h
11971                     	;
11972  C0AC     1B          			.byte	01bh
11973                     	;
11974  C0AD     50          			.byte	050h
11975                     	;
11976  C0AE     20          			.byte	020h
11977                     	;
11978  C0AF     44          			.byte	044h
11979                     	;
11980  C0B0     14          			.byte	014h
11981                     	;
11982  C0B1     A0          			.byte	0a0h
11983                     	;
11984  C0B2     F8          			.byte	0f8h
11985                     	;
11986  C0B3     E4          			.byte	0e4h
11987                     	;
11988  C0B4     17          			.byte	017h
11989                     	;
11990  C0B5     60          			.byte	060h
11991                     	;
  Sun Jan 12 14:21:22 2003                                                                                               Page  230




11992  C0B6     20          			.byte	020h
11993                     	;
11994  C0B7     04          			.byte	004h
11995                     	;
11996  C0B8     15          			.byte	015h
11997                     	;
11998  C0B9     C0          			.byte	0c0h
11999                     	;
12000  C0BA     20          			.byte	020h
12001                     	;
12002  C0BB     FF          			.byte	0ffh
12003                     	;
12004  C0BC     A2          			.byte	0a2h
12005                     	;
12006  C0BD     A3          			.byte	0a3h
12007                     	;
12008  C0BE     FE          			.byte	0feh
12009                     	;
12010  C0BF     00          			.byte	000h
12011                     	;
12012  C0C0     24          			.byte	024h
12013                     	;
12014  C0C1     F0          			.byte	0f0h
12015                     	;
12016  C0C2     00          			.byte	000h
12017                     	;
12018  C0C3     08          			.byte	008h
12019                     	;
12020  C0C4     00          			.byte	000h
12021                     	;
12022  C0C5     81          			.byte	081h
12023                     	;
12024  C0C6     00          			.byte	000h
12025                     	;
12026  C0C7     18          			.byte	018h
12027                     	;
12028  C0C8     1C          			.byte	01ch
12029                     	;
12030  C0C9     81          			.byte	081h
12031                     	;
12032  C0CA     08          			.byte	008h
12033                     	;
12034  C0CB     24          			.byte	024h
12035                     	;
12036  C0CC     14          			.byte	014h
12037                     	;
12038  C0CD     81          			.byte	081h
12039                     	;
12040  C0CE     30          			.byte	030h
12041                     	;
12042  C0CF     42          			.byte	042h
12043                     	;
12044  C0D0     18          			.byte	018h
12045                     	;
12046  C0D1     81          			.byte	081h
12047                     	;
12048  C0D2     40          			.byte	040h
  Sun Jan 12 14:21:22 2003                                                                                               Page  231




12049                     	;
12050  C0D3     BF          			.byte	0bfh
12051                     	;
12052  C0D4     94          			.byte	094h
12053                     	;
12054  C0D5     C1          			.byte	0c1h
12055                     	;
12056  C0D6     00          			.byte	000h
12057                     	;
12058  C0D7     08          			.byte	008h
12059                     	;
12060  C0D8     14          			.byte	014h
12061                     	;
12062  C0D9     C3          			.byte	0c3h
12063                     	;
12064  C0DA     FE          			.byte	0feh
12065                     	;
12066  C0DB     7E          			.byte	07eh
12067                     	;
12068  C0DC     13          			.byte	013h
12069                     	;
12070  C0DD     41          			.byte	041h
12071                     	;
12072  C0DE     20          			.byte	020h
12073                     	;
12074  C0DF     4A          			.byte	04ah
12075                     	;
12076  C0E0     1D          			.byte	01dh
12077                     	;
12078  C0E1     21          			.byte	021h
12079                     	;
12080  C0E2     18          			.byte	018h
12081                     	;
12082  C0E3     2C          			.byte	02ch
12083                     	;
12084  C0E4     12          			.byte	012h
12085                     	;
12086  C0E5     21          			.byte	021h
12087                     	;
12088  C0E6     46          			.byte	046h
12089                     	;
12090  C0E7     FF          			.byte	0ffh
12091                     	;
12092  C0E8     94          			.byte	094h
12093                     	;
12094  C0E9     11          			.byte	011h
12095                     	;
12096  C0EA     80          			.byte	080h
12097                     	;
12098  C0EB     08          			.byte	008h
12099                     	;
12100  C0EC     00          			.byte	000h
12101                     	;
12102  C0ED     00          			.byte	000h
12103                     	;
12104  C0EE     20          			.byte	020h
12105                     	;
  Sun Jan 12 14:21:22 2003                                                                                               Page  232




12106  C0EF     18          			.byte	018h
12107                     	;
12108  C0F0     0F          			.byte	00fh
12109                     	;
12110  C0F1     E0          			.byte	0e0h
12111                     	;
12112  C0F2     20          			.byte	020h
12113                     	;
12114  C0F3     24          			.byte	024h
12115                     	;
12116  C0F4     02          			.byte	002h
12117                     	;
12118  C0F5     20          			.byte	020h
12119                     	;
12120  C0F6     20          			.byte	020h
12121                     	;
12122  C0F7     42          			.byte	042h
12123                     	;
12124  C0F8     02          			.byte	002h
12125                     	;
12126  C0F9     20          			.byte	020h
12127                     	;
12128  C0FA     20          			.byte	020h
12129                     	;
12130  C0FB     BF          			.byte	0bfh
12131                     	;
12132  C0FC     82          			.byte	082h
12133                     	;
12134  C0FD     23          			.byte	023h
12135                     	;
12136  C0FE     FE          			.byte	0feh
12137                     	;
12138  C0FF     08          			.byte	008h
12139                     	;
12140  C100     02          			.byte	002h
12141                     	;
12142  C101     20          			.byte	020h
12143                     	;
12144  C102     20          			.byte	020h
12145                     	;
12146  C103     7E          			.byte	07eh
12147                     	;
12148  C104     02          			.byte	002h
12149                     	;
12150  C105     40          			.byte	040h
12151                     	;
12152  C106     20          			.byte	020h
12153                     	;
12154  C107     4A          			.byte	04ah
12155                     	;
12156  C108     02          			.byte	002h
12157                     	;
12158  C109     00          			.byte	000h
12159                     	;
12160  C10A     20          			.byte	020h
12161                     	;
12162  C10B     2C          			.byte	02ch
  Sun Jan 12 14:21:22 2003                                                                                               Page  233




12163                     	;
12164  C10C     1F          			.byte	01fh
12165                     	;
12166  C10D     F1          			.byte	0f1h
12167                     	;
12168  C10E     FC          			.byte	0fch
12169                     	;
12170  C10F     FF          			.byte	0ffh
12171                     	;
12172  C110     80          			.byte	080h
12173                     	;
12174  C111     00          			.byte	000h
12175                     	;
12176  C112     00          			.byte	000h
12177                     	;
12178  C113     72          			.byte	072h
12179                     	;
12180  C114     1D          			.byte	01dh
12181                     	;
12182  C115     50          			.byte	050h
12183                     	;
12184  C116     00          			.byte	000h
12185                     	;
12186  C117     72          			.byte	072h
12187                     	;
12188  C118     1C          			.byte	01ch
12189                     	;
12190  C119     41          			.byte	041h
12191                     	;
12192  C11A     FC          			.byte	0fch
12193                     	;
12194  C11B     72          			.byte	072h
12195                     	;
12196  C11C     1F          			.byte	01fh
12197                     	;
12198  C11D     F0          			.byte	0f0h
12199                     	;
12200  C11E     20          			.byte	020h
12201                     	;
12202  C11F     FF          			.byte	0ffh
12203                     	;
12204  C120     9C          			.byte	09ch
12205                     	;
12206  C121     E0          			.byte	0e0h
12207                     	;
12208  C122     20          			.byte	020h
12209                     	;
12210  C123     52          			.byte	052h
12211                     	;
12212  C124     37          			.byte	037h
12213                     	;
12214  C125     50          			.byte	050h
12215                     	;
12216  C126     20          			.byte	020h
12217                     	;
12218  C127     77          			.byte	077h
12219                     	;
  Sun Jan 12 14:21:22 2003                                                                                               Page  234




12220  C128     9C          			.byte	09ch
12221                     	;
12222  C129     80          			.byte	080h
12223                     	;
12224  C12A     F8          			.byte	0f8h
12225                     	;
12226  C12B     54          			.byte	054h
12227                     	;
12228  C12C     97          			.byte	097h
12229                     	;
12230  C12D     F0          			.byte	0f0h
12231                     	;
12232  C12E     20          			.byte	020h
12233                     	;
12234  C12F     74          			.byte	074h
12235                     	;
12236  C130     9D          			.byte	09dh
12237                     	;
12238  C131     20          			.byte	020h
12239                     	;
12240  C132     20          			.byte	020h
12241                     	;
12242  C133     54          			.byte	054h
12243                     	;
12244  C134     94          			.byte	094h
12245                     	;
12246  C135     C3          			.byte	0c3h
12247                     	;
12248  C136     FE          			.byte	0feh
12249                     	;
12250  C137     57          			.byte	057h
12251                     	;
12252  C138     95          			.byte	095h
12253                     	;
12254  C139     20          			.byte	020h
12255                     	;
12256  C13A     00          			.byte	000h
12257                     	;
12258  C13B     72          			.byte	072h
12259                     	;
12260  C13C     1D          			.byte	01dh
12261                     	;
12262  C13D     50          			.byte	050h
12263                     	;
12264  C13E     20          			.byte	020h
12265                     	;
12266  C13F     72          			.byte	072h
12267                     	;
12268  C140     1C          			.byte	01ch
12269                     	;
12270  C141     40          			.byte	040h
12271                     	;
12272  C142     20          			.byte	020h
12273                     	;
12274  C143     72          			.byte	072h
12275                     	;
12276  C144     1F          			.byte	01fh
  Sun Jan 12 14:21:22 2003                                                                                               Page  235




12277                     	;
12278  C145     F0          			.byte	0f0h
12279                     	;
12280  C146     60          			.byte	060h
12281                     	;
12282  C147     FF          			.byte	0ffh
12283                     	;
12284  C148     9C          			.byte	09ch
12285                     	;
12286  C149     E0          			.byte	0e0h
12287                     	;
12288  C14A     60          			.byte	060h
12289                     	;
12290  C14B     52          			.byte	052h
12291                     	;
12292  C14C     37          			.byte	037h
12293                     	;
12294  C14D     50          			.byte	050h
12295                     	;
12296  C14E     60          			.byte	060h
12297                     	;
12298  C14F     77          			.byte	077h
12299                     	;
12300  C150     9C          			.byte	09ch
12301                     	;
12302  C151     80          			.byte	080h
12303                     	;
12304  C152     50          			.byte	050h
12305                     	;
12306  C153     54          			.byte	054h
12307                     	;
12308  C154     97          			.byte	097h
12309                     	;
12310  C155     F0          			.byte	0f0h
12311                     	;
12312  C156     50          			.byte	050h
12313                     	;
12314  C157     74          			.byte	074h
12315                     	;
12316  C158     9D          			.byte	09dh
12317                     	;
12318  C159     20          			.byte	020h
12319                     	;
12320  C15A     88          			.byte	088h
12321                     	;
12322  C15B     54          			.byte	054h
12323                     	;
12324  C15C     94          			.byte	094h
12325                     	;
12326  C15D     C1          			.byte	0c1h
12327                     	;
12328  C15E     04          			.byte	004h
12329                     	;
12330  C15F     57          			.byte	057h
12331                     	;
12332  C160     95          			.byte	095h
12333                     	;
  Sun Jan 12 14:21:22 2003                                                                                               Page  236




12334  C161     22          			.byte	022h
12335                     	;
12336  C162     02          			.byte	002h
12337                     	;
12338  C163     72          			.byte	072h
12339                     	;
12340  C164     1D          			.byte	01dh
12341                     	;
12342  C165     50          			.byte	050h
12343                     	;
12344  C166     00          			.byte	000h
12345                     	;
12346  C167     72          			.byte	072h
12347                     	;
12348  C168     1C          			.byte	01ch
12349                     	;
12350  C169     40          			.byte	040h
12351                     	;
12352  C16A     F8          			.byte	0f8h
12353                     	;
12354  C16B     72          			.byte	072h
12355                     	;
12356  C16C     1F          			.byte	01fh
12357                     	;
12358  C16D     F1          			.byte	0f1h
12359                     	;
12360  C16E     00          			.byte	000h
12361                     	;
12362  C16F     FF          			.byte	0ffh
12363                     	;
12364  C170     9C          			.byte	09ch
12365                     	;
12366  C171     E1          			.byte	0e1h
12367                     	;
12368  C172     06          			.byte	006h
12369                     	;
12370  C173     52          			.byte	052h
12371                     	;
12372  C174     37          			.byte	037h
12373                     	;
12374  C175     51          			.byte	051h
12375                     	;
12376  C176     F8          			.byte	0f8h
12377                     	;
12378  C177     77          			.byte	077h
12379                     	;
12380  C178     9C          			.byte	09ch
12381                     	;
12382  C179     81          			.byte	081h
12383                     	;
12384  C17A     10          			.byte	010h
12385                     	;
12386  C17B     54          			.byte	054h
12387                     	;
12388  C17C     97          			.byte	097h
12389                     	;
12390  C17D     F3          			.byte	0f3h
  Sun Jan 12 14:21:22 2003                                                                                               Page  237




12391                     	;
12392  C17E     FE          			.byte	0feh
12393                     	;
12394  C17F     74          			.byte	074h
12395                     	;
12396  C180     9D          			.byte	09dh
12397                     	;
12398  C181     20          			.byte	020h
12399                     	;
12400  C182     90          			.byte	090h
12401                     	;
12402  C183     54          			.byte	054h
12403                     	;
12404  C184     94          			.byte	094h
12405                     	;
12406  C185     C1          			.byte	0c1h
12407                     	;
12408  C186     0C          			.byte	00ch
12409                     	;
12410  C187     57          			.byte	057h
12411                     	;
12412  C188     95          			.byte	095h
12413                     	;
12414  C189     22          			.byte	022h
12415                     	;
12416  C18A     02          			.byte	002h
12417                     	;
12418  C18B     3F          			.byte	03fh
12419                     	;
12420  C18C     00          			.byte	000h
12421                     	;
12422  C18D     80          			.byte	080h
12423                     	;
12424  C18E     80          			.byte	080h
12425                     	;
12426  C18F     01          			.byte	001h
12427                     	;
12428  C190     10          			.byte	010h
12429                     	;
12430  C191     80          			.byte	080h
12431                     	;
12432  C192     FE          			.byte	0feh
12433                     	;
12434  C193     3F          			.byte	03fh
12435                     	;
12436  C194     0B          			.byte	00bh
12437                     	;
12438  C195     F2          			.byte	0f2h
12439                     	;
12440  C196     90          			.byte	090h
12441                     	;
12442  C197     01          			.byte	001h
12443                     	;
12444  C198     04          			.byte	004h
12445                     	;
12446  C199     82          			.byte	082h
12447                     	;
  Sun Jan 12 14:21:22 2003                                                                                               Page  238




12448  C19A     FE          			.byte	0feh
12449                     	;
12450  C19B     3F          			.byte	03fh
12451                     	;
12452  C19C     18          			.byte	018h
12453                     	;
12454  C19D     83          			.byte	083h
12455                     	;
12456  C19E     52          			.byte	052h
12457                     	;
12458  C19F     4A          			.byte	04ah
12459                     	;
12460  C1A0     0F          			.byte	00fh
12461                     	;
12462  C1A1     F3          			.byte	0f3h
12463                     	;
12464  C1A2     52          			.byte	052h
12465                     	;
12466  C1A3     54          			.byte	054h
12467                     	;
12468  C1A4     09          			.byte	009h
12469                     	;
12470  C1A5     03          			.byte	003h
12471                     	;
12472  C1A6     52          			.byte	052h
12473                     	;
12474  C1A7     14          			.byte	014h
12475                     	;
12476  C1A8     11          			.byte	011h
12477                     	;
12478  C1A9     21          			.byte	021h
12479                     	;
12480  C1AA     56          			.byte	056h
12481                     	;
12482  C1AB     22          			.byte	022h
12483                     	;
12484  C1AC     12          			.byte	012h
12485                     	;
12486  C1AD     12          			.byte	012h
12487                     	;
12488  C1AE     10          			.byte	010h
12489                     	;
12490  C1AF     C1          			.byte	0c1h
12491                     	;
12492  C1B0     93          			.byte	093h
12493                     	;
12494  C1B1     F4          			.byte	0f4h
12495                     	;
12496  C1B2     10          			.byte	010h
12497                     	;
12498  C1B3     3F          			.byte	03fh
12499                     	;
12500  C1B4     00          			.byte	000h
12501                     	;
12502  C1B5     40          			.byte	040h
12503                     	;
12504  C1B6     20          			.byte	020h
  Sun Jan 12 14:21:22 2003                                                                                               Page  239




12505                     	;
12506  C1B7     01          			.byte	001h
12507                     	;
12508  C1B8     0E          			.byte	00eh
12509                     	;
12510  C1B9     B0          			.byte	0b0h
12511                     	;
12512  C1BA     20          			.byte	020h
12513                     	;
12514  C1BB     3F          			.byte	03fh
12515                     	;
12516  C1BC     00          			.byte	000h
12517                     	;
12518  C1BD     90          			.byte	090h
12519                     	;
12520  C1BE     20          			.byte	020h
12521                     	;
12522  C1BF     01          			.byte	001h
12523                     	;
12524  C1C0     3F          			.byte	03fh
12525                     	;
12526  C1C1     E0          			.byte	0e0h
12527                     	;
12528  C1C2     20          			.byte	020h
12529                     	;
12530  C1C3     3F          			.byte	03fh
12531                     	;
12532  C1C4     04          			.byte	004h
12533                     	;
12534  C1C5     83          			.byte	083h
12535                     	;
12536  C1C6     FE          			.byte	0feh
12537                     	;
12538  C1C7     4A          			.byte	04ah
12539                     	;
12540  C1C8     14          			.byte	014h
12541                     	;
12542  C1C9     80          			.byte	080h
12543                     	;
12544  C1CA     20          			.byte	020h
12545                     	;
12546  C1CB     54          			.byte	054h
12547                     	;
12548  C1CC     17          			.byte	017h
12549                     	;
12550  C1CD     40          			.byte	040h
12551                     	;
12552  C1CE     20          			.byte	020h
12553                     	;
12554  C1CF     14          			.byte	014h
12555                     	;
12556  C1D0     14          			.byte	014h
12557                     	;
12558  C1D1     48          			.byte	048h
12559                     	;
12560  C1D2     20          			.byte	020h
12561                     	;
  Sun Jan 12 14:21:22 2003                                                                                               Page  240




12562  C1D3     22          			.byte	022h
12563                     	;
12564  C1D4     13          			.byte	013h
12565                     	;
12566  C1D5     B1          			.byte	0b1h
12567                     	;
12568  C1D6     FC          			.byte	0fch
12569                     	;
12570  C1D7     C1          			.byte	0c1h
12571                     	;
12572  C1D8     9C          			.byte	09ch
12573                     	;
12574  C1D9     10          			.byte	010h
12575                     	;
12576  C1DA     00          			.byte	000h
12577                     	;
12578  C1DB     08          			.byte	008h
12579                     	;
12580  C1DC     00          			.byte	000h
12581                     	;
12582  C1DD     80          			.byte	080h
12583                     	;
12584  C1DE     80          			.byte	080h
12585                     	;
12586  C1DF     7F          			.byte	07fh
12587                     	;
12588  C1E0     D0          			.byte	0d0h
12589                     	;
12590  C1E1     80          			.byte	080h
12591                     	;
12592  C1E2     FE          			.byte	0feh
12593                     	;
12594  C1E3     49          			.byte	049h
12595                     	;
12596  C1E4     0B          			.byte	00bh
12597                     	;
12598  C1E5     F2          			.byte	0f2h
12599                     	;
12600  C1E6     90          			.byte	090h
12601                     	;
12602  C1E7     7F          			.byte	07fh
12603                     	;
12604  C1E8     C4          			.byte	0c4h
12605                     	;
12606  C1E9     82          			.byte	082h
12607                     	;
12608  C1EA     FE          			.byte	0feh
12609                     	;
12610  C1EB     49          			.byte	049h
12611                     	;
12612  C1EC     18          			.byte	018h
12613                     	;
12614  C1ED     83          			.byte	083h
12615                     	;
12616  C1EE     52          			.byte	052h
12617                     	;
12618  C1EF     5F          			.byte	05fh
  Sun Jan 12 14:21:22 2003                                                                                               Page  241




12619                     	;
12620  C1F0     8F          			.byte	08fh
12621                     	;
12622  C1F1     F3          			.byte	0f3h
12623                     	;
12624  C1F2     52          			.byte	052h
12625                     	;
12626  C1F3     9B          			.byte	09bh
12627                     	;
12628  C1F4     49          			.byte	049h
12629                     	;
12630  C1F5     03          			.byte	003h
12631                     	;
12632  C1F6     52          			.byte	052h
12633                     	;
12634  C1F7     AD          			.byte	0adh
12635                     	;
12636  C1F8     31          			.byte	031h
12637                     	;
12638  C1F9     21          			.byte	021h
12639                     	;
12640  C1FA     56          			.byte	056h
12641                     	;
12642  C1FB     89          			.byte	089h
12643                     	;
12644  C1FC     12          			.byte	012h
12645                     	;
12646  C1FD     12          			.byte	012h
12647                     	;
12648  C1FE     10          			.byte	010h
12649                     	;
12650  C1FF     89          			.byte	089h
12651                     	;
12652  C200     13          			.byte	013h
12653                     	;
12654  C201     F4          			.byte	0f4h
12655                     	;
12656  C202     10          			.byte	010h
12657                     	;
12658  C203     7F          			.byte	07fh
12659                     	;
12660  C204     80          			.byte	080h
12661                     	;
12662  C205     81          			.byte	081h
12663                     	;
12664  C206     00          			.byte	000h
12665                     	;
12666  C207     BE          			.byte	0beh
12667                     	;
12668  C208     9C          			.byte	09ch
12669                     	;
12670  C209     81          			.byte	081h
12671                     	;
12672  C20A     08          			.byte	008h
12673                     	;
12674  C20B     22          			.byte	022h
12675                     	;
  Sun Jan 12 14:21:22 2003                                                                                               Page  242




12676  C20C     14          			.byte	014h
12677                     	;
12678  C20D     81          			.byte	081h
12679                     	;
12680  C20E     30          			.byte	030h
12681                     	;
12682  C20F     3E          			.byte	03eh
12683                     	;
12684  C210     18          			.byte	018h
12685                     	;
12686  C211     81          			.byte	081h
12687                     	;
12688  C212     40          			.byte	040h
12689                     	;
12690  C213     22          			.byte	022h
12691                     	;
12692  C214     14          			.byte	014h
12693                     	;
12694  C215     C1          			.byte	0c1h
12695                     	;
12696  C216     00          			.byte	000h
12697                     	;
12698  C217     3E          			.byte	03eh
12699                     	;
12700  C218     14          			.byte	014h
12701                     	;
12702  C219     C3          			.byte	0c3h
12703                     	;
12704  C21A     FE          			.byte	0feh
12705                     	;
12706  C21B     08          			.byte	008h
12707                     	;
12708  C21C     13          			.byte	013h
12709                     	;
12710  C21D     41          			.byte	041h
12711                     	;
12712  C21E     20          			.byte	020h
12713                     	;
12714  C21F     7F          			.byte	07fh
12715                     	;
12716  C220     9D          			.byte	09dh
12717                     	;
12718  C221     21          			.byte	021h
12719                     	;
12720  C222     18          			.byte	018h
12721                     	;
12722  C223     21          			.byte	021h
12723                     	;
12724  C224     12          			.byte	012h
12725                     	;
12726  C225     21          			.byte	021h
12727                     	;
12728  C226     46          			.byte	046h
12729                     	;
12730  C227     40          			.byte	040h
12731                     	;
12732  C228     94          			.byte	094h
  Sun Jan 12 14:21:22 2003                                                                                               Page  243




12733                     	;
12734  C229     11          			.byte	011h
12735                     	;
12736  C22A     80          			.byte	080h
12737                     	;
12738  C22B     7F          			.byte	07fh
12739                     	;
12740  C22C     81          			.byte	081h
12741                     	;
12742  C22D     00          			.byte	000h
12743                     	;
12744  C22E     00          			.byte	000h
12745                     	;
12746  C22F     BE          			.byte	0beh
12747                     	;
12748  C230     9E          			.byte	09eh
12749                     	;
12750  C231     E1          			.byte	0e1h
12751                     	;
12752  C232     FC          			.byte	0fch
12753                     	;
12754  C233     22          			.byte	022h
12755                     	;
12756  C234     13          			.byte	013h
12757                     	;
12758  C235     50          			.byte	050h
12759                     	;
12760  C236     20          			.byte	020h
12761                     	;
12762  C237     3E          			.byte	03eh
12763                     	;
12764  C238     1F          			.byte	01fh
12765                     	;
12766  C239     E0          			.byte	0e0h
12767                     	;
12768  C23A     20          			.byte	020h
12769                     	;
12770  C23B     22          			.byte	022h
12771                     	;
12772  C23C     1B          			.byte	01bh
12773                     	;
12774  C23D     50          			.byte	050h
12775                     	;
12776  C23E     20          			.byte	020h
12777                     	;
12778  C23F     3E          			.byte	03eh
12779                     	;
12780  C240     14          			.byte	014h
12781                     	;
12782  C241     A0          			.byte	0a0h
12783                     	;
12784  C242     F8          			.byte	0f8h
12785                     	;
12786  C243     08          			.byte	008h
12787                     	;
12788  C244     17          			.byte	017h
12789                     	;
  Sun Jan 12 14:21:22 2003                                                                                               Page  244




12790  C245     60          			.byte	060h
12791                     	;
12792  C246     20          			.byte	020h
12793                     	;
12794  C247     7F          			.byte	07fh
12795                     	;
12796  C248     95          			.byte	095h
12797                     	;
12798  C249     C0          			.byte	0c0h
12799                     	;
12800  C24A     20          			.byte	020h
12801                     	;
12802  C24B     21          			.byte	021h
12803                     	;
12804  C24C     22          			.byte	022h
12805                     	;
12806  C24D     A3          			.byte	0a3h
12807                     	;
12808  C24E     FE          			.byte	0feh
12809                     	;
12810  C24F     40          			.byte	040h
12811                     	;
12812  C250     A4          			.byte	0a4h
12813                     	;
12814  C251     F0          			.byte	0f0h
12815                     	;
12816  C252     00          			.byte	000h
12817                     	;
12818  C253     7F          			.byte	07fh
12819                     	;
12820  C254     80          			.byte	080h
12821                     	;
12822  C255     00          			.byte	000h
12823                     	;
12824  C256     00          			.byte	000h
12825                     	;
12826  C257     BE          			.byte	0beh
12827                     	;
12828  C258     8F          			.byte	08fh
12829                     	;
12830  C259     E0          			.byte	0e0h
12831                     	;
12832  C25A     F8          			.byte	0f8h
12833                     	;
12834  C25B     22          			.byte	022h
12835                     	;
12836  C25C     02          			.byte	002h
12837                     	;
12838  C25D     21          			.byte	021h
12839                     	;
12840  C25E     00          			.byte	000h
12841                     	;
12842  C25F     3E          			.byte	03eh
12843                     	;
12844  C260     02          			.byte	002h
12845                     	;
12846  C261     21          			.byte	021h
  Sun Jan 12 14:21:22 2003                                                                                               Page  245




12847                     	;
12848  C262     06          			.byte	006h
12849                     	;
12850  C263     22          			.byte	022h
12851                     	;
12852  C264     02          			.byte	002h
12853                     	;
12854  C265     21          			.byte	021h
12855                     	;
12856  C266     F8          			.byte	0f8h
12857                     	;
12858  C267     3E          			.byte	03eh
12859                     	;
12860  C268     02          			.byte	002h
12861                     	;
12862  C269     21          			.byte	021h
12863                     	;
12864  C26A     10          			.byte	010h
12865                     	;
12866  C26B     08          			.byte	008h
12867                     	;
12868  C26C     02          			.byte	002h
12869                     	;
12870  C26D     43          			.byte	043h
12871                     	;
12872  C26E     FE          			.byte	0feh
12873                     	;
12874  C26F     7F          			.byte	07fh
12875                     	;
12876  C270     82          			.byte	082h
12877                     	;
12878  C271     00          			.byte	000h
12879                     	;
12880  C272     90          			.byte	090h
12881                     	;
12882  C273     21          			.byte	021h
12883                     	;
12884  C274     0F          			.byte	00fh
12885                     	;
12886  C275     F1          			.byte	0f1h
12887                     	;
12888  C276     0C          			.byte	00ch
12889                     	;
12890  C277     40          			.byte	040h
12891                     	;
12892  C278     80          			.byte	080h
12893                     	;
12894  C279     02          			.byte	002h
12895                     	;
12896  C27A     02          			.byte	002h
12897                     	;
12898  C27B     7F          			.byte	07fh
12899                     	;
12900  C27C     80          			.byte	080h
12901                     	;
12902  C27D     80          			.byte	080h
12903                     	;
  Sun Jan 12 14:21:22 2003                                                                                               Page  246




12904  C27E     20          			.byte	020h
12905                     	;
12906  C27F     BE          			.byte	0beh
12907                     	;
12908  C280     88          			.byte	088h
12909                     	;
12910  C281     A0          			.byte	0a0h
12911                     	;
12912  C282     20          			.byte	020h
12913                     	;
12914  C283     22          			.byte	022h
12915                     	;
12916  C284     0A          			.byte	00ah
12917                     	;
12918  C285     A0          			.byte	0a0h
12919                     	;
12920  C286     20          			.byte	020h
12921                     	;
12922  C287     3E          			.byte	03eh
12923                     	;
12924  C288     0D          			.byte	00dh
12925                     	;
12926  C289     B0          			.byte	0b0h
12927                     	;
12928  C28A     20          			.byte	020h
12929                     	;
12930  C28B     22          			.byte	022h
12931                     	;
12932  C28C     08          			.byte	008h
12933                     	;
12934  C28D     E3          			.byte	0e3h
12935                     	;
12936  C28E     FE          			.byte	0feh
12937                     	;
12938  C28F     3E          			.byte	03eh
12939                     	;
12940  C290     16          			.byte	016h
12941                     	;
12942  C291     A0          			.byte	0a0h
12943                     	;
12944  C292     20          			.byte	020h
12945                     	;
12946  C293     08          			.byte	008h
12947                     	;
12948  C294     12          			.byte	012h
12949                     	;
12950  C295     60          			.byte	060h
12951                     	;
12952  C296     20          			.byte	020h
12953                     	;
12954  C297     7F          			.byte	07fh
12955                     	;
12956  C298     92          			.byte	092h
12957                     	;
12958  C299     40          			.byte	040h
12959                     	;
12960  C29A     20          			.byte	020h
  Sun Jan 12 14:21:22 2003                                                                                               Page  247




12961                     	;
12962  C29B     21          			.byte	021h
12963                     	;
12964  C29C     1E          			.byte	01eh
12965                     	;
12966  C29D     B1          			.byte	0b1h
12967                     	;
12968  C29E     FC          			.byte	0fch
12969                     	;
12970  C29F     40          			.byte	040h
12971                     	;
12972  C2A0     83          			.byte	083h
12973                     	;
12974  C2A1     10          			.byte	010h
12975                     	;
12976  C2A2     00          			.byte	000h
12977                     	;
12978  C2A3     00          			.byte	000h
12979                     	;
12980  C2A4     01          			.byte	001h
12981                     	;
12982  C2A5     01          			.byte	001h
12983                     	;
12984  C2A6     00          			.byte	000h
12985                     	;
12986  C2A7     FF          			.byte	0ffh
12987                     	;
12988  C2A8     05          			.byte	005h
12989                     	;
12990  C2A9     01          			.byte	001h
12991                     	;
12992  C2AA     7C          			.byte	07ch
12993                     	;
12994  C2AB     10          			.byte	010h
12995                     	;
12996  C2AC     03          			.byte	003h
12997                     	;
12998  C2AD     01          			.byte	001h
12999                     	;
13000  C2AE     28          			.byte	028h
13001                     	;
13002  C2AF     20          			.byte	020h
13003                     	;
13004  C2B0     09          			.byte	009h
13005                     	;
13006  C2B1     05          			.byte	005h
13007                     	;
13008  C2B2     90          			.byte	090h
13009                     	;
13010  C2B3     21          			.byte	021h
13011                     	;
13012  C2B4     05          			.byte	005h
13013                     	;
13014  C2B5     05          			.byte	005h
13015                     	;
13016  C2B6     2C          			.byte	02ch
13017                     	;
  Sun Jan 12 14:21:22 2003                                                                                               Page  248




13018  C2B7     7F          			.byte	07fh
13019                     	;
13020  C2B8     01          			.byte	001h
13021                     	;
13022  C2B9     01          			.byte	001h
13023                     	;
13024  C2BA     52          			.byte	052h
13025                     	;
13026  C2BB     A1          			.byte	0a1h
13027                     	;
13028  C2BC     1F          			.byte	01fh
13029                     	;
13030  C2BD     F1          			.byte	0f1h
13031                     	;
13032  C2BE     10          			.byte	010h
13033                     	;
13034  C2BF     21          			.byte	021h
13035                     	;
13036  C2C0     02          			.byte	002h
13037                     	;
13038  C2C1     41          			.byte	041h
13039                     	;
13040  C2C2     38          			.byte	038h
13041                     	;
13042  C2C3     3F          			.byte	03fh
13043                     	;
13044  C2C4     02          			.byte	002h
13045                     	;
13046  C2C5     21          			.byte	021h
13047                     	;
13048  C2C6     10          			.byte	010h
13049                     	;
13050  C2C7     21          			.byte	021h
13051                     	;
13052  C2C8     0C          			.byte	00ch
13053                     	;
13054  C2C9     31          			.byte	031h
13055                     	;
13056  C2CA     FE          			.byte	0feh
13057                     	;
13058  C2CB     12          			.byte	012h
13059                     	;
13060  C2CC     00          			.byte	000h
13061                     	;
13062  C2CD     00          			.byte	000h
13063                     	;
13064  C2CE     20          			.byte	020h
13065                     	;
13066  C2CF     7F          			.byte	07fh
13067                     	;
13068  C2D0     9F          			.byte	09fh
13069                     	;
13070  C2D1     E0          			.byte	0e0h
13071                     	;
13072  C2D2     20          			.byte	020h
13073                     	;
13074  C2D3     48          			.byte	048h
  Sun Jan 12 14:21:22 2003                                                                                               Page  249




13075                     	;
13076  C2D4     82          			.byte	082h
13077                     	;
13078  C2D5     00          			.byte	000h
13079                     	;
13080  C2D6     60          			.byte	060h
13081                     	;
13082  C2D7     7F          			.byte	07fh
13083                     	;
13084  C2D8     9F          			.byte	09fh
13085                     	;
13086  C2D9     F0          			.byte	0f0h
13087                     	;
13088  C2DA     60          			.byte	060h
13089                     	;
13090  C2DB     48          			.byte	048h
13091                     	;
13092  C2DC     92          			.byte	092h
13093                     	;
13094  C2DD     90          			.byte	090h
13095                     	;
13096  C2DE     60          			.byte	060h
13097                     	;
13098  C2DF     7F          			.byte	07fh
13099                     	;
13100  C2E0     93          			.byte	093h
13101                     	;
13102  C2E1     90          			.byte	090h
13103                     	;
13104  C2E2     50          			.byte	050h
13105                     	;
13106  C2E3     21          			.byte	021h
13107                     	;
13108  C2E4     12          			.byte	012h
13109                     	;
13110  C2E5     90          			.byte	090h
13111                     	;
13112  C2E6     50          			.byte	050h
13113                     	;
13114  C2E7     3F          			.byte	03fh
13115                     	;
13116  C2E8     13          			.byte	013h
13117                     	;
13118  C2E9     90          			.byte	090h
13119                     	;
13120  C2EA     88          			.byte	088h
13121                     	;
13122  C2EB     21          			.byte	021h
13123                     	;
13124  C2EC     12          			.byte	012h
13125                     	;
13126  C2ED     91          			.byte	091h
13127                     	;
13128  C2EE     04          			.byte	004h
13129                     	;
13130  C2EF     3F          			.byte	03fh
13131                     	;
  Sun Jan 12 14:21:22 2003                                                                                               Page  250




13132  C2F0     1F          			.byte	01fh
13133                     	;
13134  C2F1     F2          			.byte	0f2h
13135                     	;
13136  C2F2     02          			.byte	002h
13137                     	;
13138  C2F3     12          			.byte	012h
13139                     	;
13140  C2F4     00          			.byte	000h
13141                     	;
13142  C2F5     40          			.byte	040h
13143                     	;
13144  C2F6     20          			.byte	020h
13145                     	;
13146  C2F7     7F          			.byte	07fh
13147                     	;
13148  C2F8     8E          			.byte	08eh
13149                     	;
13150  C2F9     B0          			.byte	0b0h
13151                     	;
13152  C2FA     20          			.byte	020h
13153                     	;
13154  C2FB     48          			.byte	048h
13155                     	;
13156  C2FC     80          			.byte	080h
13157                     	;
13158  C2FD     90          			.byte	090h
13159                     	;
13160  C2FE     20          			.byte	020h
13161                     	;
13162  C2FF     7F          			.byte	07fh
13163                     	;
13164  C300     BF          			.byte	0bfh
13165                     	;
13166  C301     E0          			.byte	0e0h
13167                     	;
13168  C302     20          			.byte	020h
13169                     	;
13170  C303     48          			.byte	048h
13171                     	;
13172  C304     84          			.byte	084h
13173                     	;
13174  C305     83          			.byte	083h
13175                     	;
13176  C306     FE          			.byte	0feh
13177                     	;
13178  C307     7F          			.byte	07fh
13179                     	;
13180  C308     94          			.byte	094h
13181                     	;
13182  C309     80          			.byte	080h
13183                     	;
13184  C30A     20          			.byte	020h
13185                     	;
13186  C30B     21          			.byte	021h
13187                     	;
13188  C30C     17          			.byte	017h
  Sun Jan 12 14:21:22 2003                                                                                               Page  251




13189                     	;
13190  C30D     40          			.byte	040h
13191                     	;
13192  C30E     20          			.byte	020h
13193                     	;
13194  C30F     3F          			.byte	03fh
13195                     	;
13196  C310     14          			.byte	014h
13197                     	;
13198  C311     48          			.byte	048h
13199                     	;
13200  C312     20          			.byte	020h
13201                     	;
13202  C313     21          			.byte	021h
13203                     	;
13204  C314     13          			.byte	013h
13205                     	;
13206  C315     B1          			.byte	0b1h
13207                     	;
13208  C316     FC          			.byte	0fch
13209                     	;
13210  C317     3F          			.byte	03fh
13211                     	;
13212  C318     1C          			.byte	01ch
13213                     	;
13214  C319     10          			.byte	010h
13215                     	;
13216  C31A     00          			.byte	000h
13217                     	;
13218  C31B     00          			.byte	000h
13219                     	;
13220  C31C     04          			.byte	004h
13221                     	;
13222  C31D     10          			.byte	010h
13223                     	;
13224  C31E     20          			.byte	020h
13225                     	;
13226  C31F     FF          			.byte	0ffh
13227                     	;
13228  C320     86          			.byte	086h
13229                     	;
13230  C321     10          			.byte	010h
13231                     	;
13232  C322     20          			.byte	020h
13233                     	;
13234  C323     15          			.byte	015h
13235                     	;
13236  C324     09          			.byte	009h
13237                     	;
13238  C325     D0          			.byte	0d0h
13239                     	;
13240  C326     20          			.byte	020h
13241                     	;
13242  C327     95          			.byte	095h
13243                     	;
13244  C328     11          			.byte	011h
13245                     	;
  Sun Jan 12 14:21:22 2003                                                                                               Page  252




13246  C329     50          			.byte	050h
13247                     	;
13248  C32A     20          			.byte	020h
13249                     	;
13250  C32B     65          			.byte	065h
13251                     	;
13252  C32C     2E          			.byte	02eh
13253                     	;
13254  C32D     53          			.byte	053h
13255                     	;
13256  C32E     FE          			.byte	0feh
13257                     	;
13258  C32F     25          			.byte	025h
13259                     	;
13260  C330     15          			.byte	015h
13261                     	;
13262  C331     D0          			.byte	0d0h
13263                     	;
13264  C332     20          			.byte	020h
13265                     	;
13266  C333     52          			.byte	052h
13267                     	;
13268  C334     0D          			.byte	00dh
13269                     	;
13270  C335     50          			.byte	050h
13271                     	;
13272  C336     20          			.byte	020h
13273                     	;
13274  C337     82          			.byte	082h
13275                     	;
13276  C338     0A          			.byte	00ah
13277                     	;
13278  C339     10          			.byte	010h
13279                     	;
13280  C33A     20          			.byte	020h
13281                     	;
13282  C33B     0D          			.byte	00dh
13283                     	;
13284  C33C     03          			.byte	003h
13285                     	;
13286  C33D     11          			.byte	011h
13287                     	;
13288  C33E     FC          			.byte	0fch
13289                     	;
13290  C33F     10          			.byte	010h
13291                     	;
13292  C340     9C          			.byte	09ch
13293                     	;
13294  C341     10          			.byte	010h
13295                     	;
13296  C342     00          			.byte	000h
13297                     	;
13298  C343     08          			.byte	008h
13299                     	;
13300  C344     08          			.byte	008h
13301                     	;
13302  C345     81          			.byte	081h
  Sun Jan 12 14:21:22 2003                                                                                               Page  253




13303                     	;
13304  C346     3E          			.byte	03eh
13305                     	;
13306  C347     FF          			.byte	0ffh
13307                     	;
13308  C348     09          			.byte	009h
13309                     	;
13310  C349     F1          			.byte	0f1h
13311                     	;
13312  C34A     00          			.byte	000h
13313                     	;
13314  C34B     7F          			.byte	07fh
13315                     	;
13316  C34C     09          			.byte	009h
13317                     	;
13318  C34D     11          			.byte	011h
13319                     	;
13320  C34E     1C          			.byte	01ch
13321                     	;
13322  C34F     08          			.byte	008h
13323                     	;
13324  C350     BD          			.byte	0bdh
13325                     	;
13326  C351     F7          			.byte	0f7h
13327                     	;
13328  C352     94          			.byte	094h
13329                     	;
13330  C353     77          			.byte	077h
13331                     	;
13332  C354     2D          			.byte	02dh
13333                     	;
13334  C355     05          			.byte	005h
13335                     	;
13336  C356     9C          			.byte	09ch
13337                     	;
13338  C357     4A          			.byte	04ah
13339                     	;
13340  C358     3D          			.byte	03dh
13341                     	;
13342  C359     F7          			.byte	0f7h
13343                     	;
13344  C35A     BE          			.byte	0beh
13345                     	;
13346  C35B     FF          			.byte	0ffh
13347                     	;
13348  C35C     89          			.byte	089h
13349                     	;
13350  C35D     D1          			.byte	0d1h
13351                     	;
13352  C35E     2A          			.byte	02ah
13353                     	;
13354  C35F     4A          			.byte	04ah
13355                     	;
13356  C360     0B          			.byte	00bh
13357                     	;
13358  C361     F1          			.byte	0f1h
13359                     	;
  Sun Jan 12 14:21:22 2003                                                                                               Page  254




13360  C362     7E          			.byte	07eh
13361                     	;
13362  C363     77          			.byte	077h
13363                     	;
13364  C364     0F          			.byte	00fh
13365                     	;
13366  C365     F1          			.byte	0f1h
13367                     	;
13368  C366     EA          			.byte	0eah
13369                     	;
13370  C367     02          			.byte	002h
13371                     	;
13372  C368     32          			.byte	032h
13373                     	;
13374  C369     D6          			.byte	0d6h
13375                     	;
13376  C36A     7E          			.byte	07eh
13377                     	;
13378  C36B     08          			.byte	008h
13379                     	;
13380  C36C     08          			.byte	008h
13381                     	;
13382  C36D     81          			.byte	081h
13383                     	;
13384  C36E     3E          			.byte	03eh
13385                     	;
13386  C36F     08          			.byte	008h
13387                     	;
13388  C370     09          			.byte	009h
13389                     	;
13390  C371     F1          			.byte	0f1h
13391                     	;
13392  C372     00          			.byte	000h
13393                     	;
13394  C373     08          			.byte	008h
13395                     	;
13396  C374     09          			.byte	009h
13397                     	;
13398  C375     11          			.byte	011h
13399                     	;
13400  C376     1C          			.byte	01ch
13401                     	;
13402  C377     2A          			.byte	02ah
13403                     	;
13404  C378     3D          			.byte	03dh
13405                     	;
13406  C379     F7          			.byte	0f7h
13407                     	;
13408  C37A     94          			.byte	094h
13409                     	;
13410  C37B     49          			.byte	049h
13411                     	;
13412  C37C     2D          			.byte	02dh
13413                     	;
13414  C37D     05          			.byte	005h
13415                     	;
13416  C37E     9C          			.byte	09ch
  Sun Jan 12 14:21:22 2003                                                                                               Page  255




13417                     	;
13418  C37F     48          			.byte	048h
13419                     	;
13420  C380     BD          			.byte	0bdh
13421                     	;
13422  C381     F7          			.byte	0f7h
13423                     	;
13424  C382     BE          			.byte	0beh
13425                     	;
13426  C383     88          			.byte	088h
13427                     	;
13428  C384     89          			.byte	089h
13429                     	;
13430  C385     D1          			.byte	0d1h
13431                     	;
13432  C386     2A          			.byte	02ah
13433                     	;
13434  C387     08          			.byte	008h
13435                     	;
13436  C388     0B          			.byte	00bh
13437                     	;
13438  C389     F1          			.byte	0f1h
13439                     	;
13440  C38A     7E          			.byte	07eh
13441                     	;
13442  C38B     08          			.byte	008h
13443                     	;
13444  C38C     0F          			.byte	00fh
13445                     	;
13446  C38D     F1          			.byte	0f1h
13447                     	;
13448  C38E     EA          			.byte	0eah
13449                     	;
13450  C38F     18          			.byte	018h
13451                     	;
13452  C390     32          			.byte	032h
13453                     	;
13454  C391     D6          			.byte	0d6h
13455                     	;
13456  C392     7E          			.byte	07eh
13457                     	;
13458  C393     08          			.byte	008h
13459                     	;
13460  C394     10          			.byte	010h
13461                     	;
13462  C395     40          			.byte	040h
13463                     	;
13464  C396     80          			.byte	080h
13465                     	;
13466  C397     08          			.byte	008h
13467                     	;
13468  C398     08          			.byte	008h
13469                     	;
13470  C399     80          			.byte	080h
13471                     	;
13472  C39A     FE          			.byte	0feh
13473                     	;
  Sun Jan 12 14:21:22 2003                                                                                               Page  256




13474  C39B     08          			.byte	008h
13475                     	;
13476  C39C     03          			.byte	003h
13477                     	;
13478  C39D     F2          			.byte	0f2h
13479                     	;
13480  C39E     90          			.byte	090h
13481                     	;
13482  C39F     2A          			.byte	02ah
13483                     	;
13484  C3A0     1C          			.byte	01ch
13485                     	;
13486  C3A1     82          			.byte	082h
13487                     	;
13488  C3A2     FE          			.byte	0feh
13489                     	;
13490  C3A3     49          			.byte	049h
13491                     	;
13492  C3A4     18          			.byte	018h
13493                     	;
13494  C3A5     83          			.byte	083h
13495                     	;
13496  C3A6     52          			.byte	052h
13497                     	;
13498  C3A7     48          			.byte	048h
13499                     	;
13500  C3A8     8F          			.byte	08fh
13501                     	;
13502  C3A9     F3          			.byte	0f3h
13503                     	;
13504  C3AA     52          			.byte	052h
13505                     	;
13506  C3AB     88          			.byte	088h
13507                     	;
13508  C3AC     91          			.byte	091h
13509                     	;
13510  C3AD     03          			.byte	003h
13511                     	;
13512  C3AE     52          			.byte	052h
13513                     	;
13514  C3AF     08          			.byte	008h
13515                     	;
13516  C3B0     11          			.byte	011h
13517                     	;
13518  C3B1     21          			.byte	021h
13519                     	;
13520  C3B2     56          			.byte	056h
13521                     	;
13522  C3B3     08          			.byte	008h
13523                     	;
13524  C3B4     12          			.byte	012h
13525                     	;
13526  C3B5     12          			.byte	012h
13527                     	;
13528  C3B6     10          			.byte	010h
13529                     	;
13530  C3B7     18          			.byte	018h
  Sun Jan 12 14:21:22 2003                                                                                               Page  257




13531                     	;
13532  C3B8     03          			.byte	003h
13533                     	;
13534  C3B9     F4          			.byte	0f4h
13535                     	;
13536  C3BA     10          			.byte	010h
13537                     	;
13538  C3BB     08          			.byte	008h
13539                     	;
13540  C3BC     08          			.byte	008h
13541                     	;
13542  C3BD     01          			.byte	001h
13543                     	;
13544  C3BE     00          			.byte	000h
13545                     	;
13546  C3BF     08          			.byte	008h
13547                     	;
13548  C3C0     09          			.byte	009h
13549                     	;
13550  C3C1     E1          			.byte	0e1h
13551                     	;
13552  C3C2     7C          			.byte	07ch
13553                     	;
13554  C3C3     08          			.byte	008h
13555                     	;
13556  C3C4     3C          			.byte	03ch
13557                     	;
13558  C3C5     81          			.byte	081h
13559                     	;
13560  C3C6     28          			.byte	028h
13561                     	;
13562  C3C7     2A          			.byte	02ah
13563                     	;
13564  C3C8     14          			.byte	014h
13565                     	;
13566  C3C9     85          			.byte	085h
13567                     	;
13568  C3CA     90          			.byte	090h
13569                     	;
13570  C3CB     49          			.byte	049h
13571                     	;
13572  C3CC     17          			.byte	017h
13573                     	;
13574  C3CD     F5          			.byte	0f5h
13575                     	;
13576  C3CE     2C          			.byte	02ch
13577                     	;
13578  C3CF     48          			.byte	048h
13579                     	;
13580  C3D0     94          			.byte	094h
13581                     	;
13582  C3D1     C1          			.byte	0c1h
13583                     	;
13584  C3D2     52          			.byte	052h
13585                     	;
13586  C3D3     88          			.byte	088h
13587                     	;
  Sun Jan 12 14:21:22 2003                                                                                               Page  258




13588  C3D4     94          			.byte	094h
13589                     	;
13590  C3D5     C1          			.byte	0c1h
13591                     	;
13592  C3D6     10          			.byte	010h
13593                     	;
13594  C3D7     08          			.byte	008h
13595                     	;
13596  C3D8     0D          			.byte	00dh
13597                     	;
13598  C3D9     21          			.byte	021h
13599                     	;
13600  C3DA     38          			.byte	038h
13601                     	;
13602  C3DB     08          			.byte	008h
13603                     	;
13604  C3DC     17          			.byte	017h
13605                     	;
13606  C3DD     11          			.byte	011h
13607                     	;
13608  C3DE     10          			.byte	010h
13609                     	;
13610  C3DF     18          			.byte	018h
13611                     	;
13612  C3E0     22          			.byte	022h
13613                     	;
13614  C3E1     09          			.byte	009h
13615                     	;
13616  C3E2     FE          			.byte	0feh
13617                     	;
13618  C3E3     00          			.byte	000h
13619                     	;
13620  C3E4     00          			.byte	000h
13621                     	;
13622  C3E5     40          			.byte	040h
13623                     	;
13624  C3E6     20          			.byte	020h
13625                     	;
13626  C3E7     F9          			.byte	0f9h
13627                     	;
13628  C3E8     0E          			.byte	00eh
13629                     	;
13630  C3E9     B0          			.byte	0b0h
13631                     	;
13632  C3EA     20          			.byte	020h
13633                     	;
13634  C3EB     AA          			.byte	0aah
13635                     	;
13636  C3EC     00          			.byte	000h
13637                     	;
13638  C3ED     90          			.byte	090h
13639                     	;
13640  C3EE     20          			.byte	020h
13641                     	;
13642  C3EF     FC          			.byte	0fch
13643                     	;
13644  C3F0     BF          			.byte	0bfh
  Sun Jan 12 14:21:22 2003                                                                                               Page  259




13645                     	;
13646  C3F1     E0          			.byte	0e0h
13647                     	;
13648  C3F2     20          			.byte	020h
13649                     	;
13650  C3F3     F9          			.byte	0f9h
13651                     	;
13652  C3F4     04          			.byte	004h
13653                     	;
13654  C3F5     83          			.byte	083h
13655                     	;
13656  C3F6     FE          			.byte	0feh
13657                     	;
13658  C3F7     FA          			.byte	0fah
13659                     	;
13660  C3F8     14          			.byte	014h
13661                     	;
13662  C3F9     80          			.byte	080h
13663                     	;
13664  C3FA     20          			.byte	020h
13665                     	;
13666  C3FB     8C          			.byte	08ch
13667                     	;
13668  C3FC     97          			.byte	097h
13669                     	;
13670  C3FD     40          			.byte	040h
13671                     	;
13672  C3FE     20          			.byte	020h
13673                     	;
13674  C3FF     F9          			.byte	0f9h
13675                     	;
13676  C400     14          			.byte	014h
13677                     	;
13678  C401     48          			.byte	048h
13679                     	;
13680  C402     20          			.byte	020h
13681                     	;
13682  C403     AA          			.byte	0aah
13683                     	;
13684  C404     13          			.byte	013h
13685                     	;
13686  C405     B1          			.byte	0b1h
13687                     	;
13688  C406     FC          			.byte	0fch
13689                     	;
13690  C407     64          			.byte	064h
13691                     	;
13692  C408     1C          			.byte	01ch
13693                     	;
13694  C409     10          			.byte	010h
13695                     	;
13696  C40A     00          			.byte	000h
13697                     	;
13698                     			.attrib	_GameMTMonName,1678,v,c,u,g,d,c,d,c,04d8h,00h
13699                     	;
13700  C40B     00          	_GameMTMainFace:	.byte	000h
13701                     	;
  Sun Jan 12 14:21:22 2003                                                                                               Page  260




13702  C40C     00          			.byte	000h
13703                     	;
13704  C40D     00          			.byte	000h
13705                     	;
13706  C40E     00          			.byte	000h
13707                     	;
13708  C40F     00          			.byte	000h
13709                     	;
13710  C410     00          			.byte	000h
13711                     	;
13712  C411     00          			.byte	000h
13713                     	;
13714  C412     00          			.byte	000h
13715                     	;
13716  C413     00          			.byte	000h
13717                     	;
13718  C414     00          			.byte	000h
13719                     	;
13720  C415     00          			.byte	000h
13721                     	;
13722  C416     00          			.byte	000h
13723                     	;
13724  C417     00          			.byte	000h
13725                     	;
13726  C418     00          			.byte	000h
13727                     	;
13728  C419     00          			.byte	000h
13729                     	;
13730  C41A     00          			.byte	000h
13731                     	;
13732  C41B     00          			.byte	000h
13733                     	;
13734  C41C     00          			.byte	000h
13735                     	;
13736  C41D     00          			.byte	000h
13737                     	;
13738  C41E     00          			.byte	000h
13739                     	;
13740  C41F     00          			.byte	000h
13741                     	;
13742  C420     00          			.byte	000h
13743                     	;
13744  C421     00          			.byte	000h
13745                     	;
13746  C422     00          			.byte	000h
13747                     	;
13748  C423     00          			.byte	000h
13749                     	;
13750  C424     00          			.byte	000h
13751                     	;
13752  C425     00          			.byte	000h
13753                     	;
13754  C426     00          			.byte	000h
13755                     	;
13756  C427     00          			.byte	000h
13757                     	;
13758  C428     00          			.byte	000h
  Sun Jan 12 14:21:22 2003                                                                                               Page  261




13759                     	;
13760  C429     00          			.byte	000h
13761                     	;
13762  C42A     00          			.byte	000h
13763                     	;
13764  C42B     01          			.byte	001h
13765                     	;
13766  C42C     80          			.byte	080h
13767                     	;
13768  C42D     00          			.byte	000h
13769                     	;
13770  C42E     00          			.byte	000h
13771                     	;
13772  C42F     00          			.byte	000h
13773                     	;
13774  C430     00          			.byte	000h
13775                     	;
13776  C431     00          			.byte	000h
13777                     	;
13778  C432     00          			.byte	000h
13779                     	;
13780  C433     00          			.byte	000h
13781                     	;
13782  C434     00          			.byte	000h
13783                     	;
13784  C435     00          			.byte	000h
13785                     	;
13786  C436     00          			.byte	000h
13787                     	;
13788  C437     00          			.byte	000h
13789                     	;
13790  C438     00          			.byte	000h
13791                     	;
13792  C439     00          			.byte	000h
13793                     	;
13794  C43A     00          			.byte	000h
13795                     	;
13796  C43B     00          			.byte	000h
13797                     	;
13798  C43C     00          			.byte	000h
13799                     	;
13800  C43D     00          			.byte	000h
13801                     	;
13802  C43E     00          			.byte	000h
13803                     	;
13804  C43F     01          			.byte	001h
13805                     	;
13806  C440     80          			.byte	080h
13807                     	;
13808  C441     00          			.byte	000h
13809                     	;
13810  C442     00          			.byte	000h
13811                     	;
13812  C443     00          			.byte	000h
13813                     	;
13814  C444     00          			.byte	000h
13815                     	;
  Sun Jan 12 14:21:22 2003                                                                                               Page  262




13816  C445     00          			.byte	000h
13817                     	;
13818  C446     00          			.byte	000h
13819                     	;
13820  C447     00          			.byte	000h
13821                     	;
13822  C448     00          			.byte	000h
13823                     	;
13824  C449     00          			.byte	000h
13825                     	;
13826  C44A     00          			.byte	000h
13827                     	;
13828  C44B     00          			.byte	000h
13829                     	;
13830  C44C     00          			.byte	000h
13831                     	;
13832  C44D     00          			.byte	000h
13833                     	;
13834  C44E     00          			.byte	000h
13835                     	;
13836  C44F     00          			.byte	000h
13837                     	;
13838  C450     00          			.byte	000h
13839                     	;
13840  C451     00          			.byte	000h
13841                     	;
13842  C452     00          			.byte	000h
13843                     	;
13844  C453     03          			.byte	003h
13845                     	;
13846  C454     80          			.byte	080h
13847                     	;
13848  C455     00          			.byte	000h
13849                     	;
13850  C456     31          			.byte	031h
13851                     	;
13852  C457     8D          			.byte	08dh
13853                     	;
13854  C458     8D          			.byte	08dh
13855                     	;
13856  C459     8E          			.byte	08eh
13857                     	;
13858  C45A     60          			.byte	060h
13859                     	;
13860  C45B     00          			.byte	000h
13861                     	;
13862  C45C     00          			.byte	000h
13863                     	;
13864  C45D     00          			.byte	000h
13865                     	;
13866  C45E     00          			.byte	000h
13867                     	;
13868  C45F     00          			.byte	000h
13869                     	;
13870  C460     00          			.byte	000h
13871                     	;
13872  C461     00          			.byte	000h
  Sun Jan 12 14:21:22 2003                                                                                               Page  263




13873                     	;
13874  C462     00          			.byte	000h
13875                     	;
13876  C463     00          			.byte	000h
13877                     	;
13878  C464     00          			.byte	000h
13879                     	;
13880  C465     00          			.byte	000h
13881                     	;
13882  C466     00          			.byte	000h
13883                     	;
13884  C467     03          			.byte	003h
13885                     	;
13886  C468     C0          			.byte	0c0h
13887                     	;
13888  C469     00          			.byte	000h
13889                     	;
13890  C46A     1F          			.byte	01fh
13891                     	;
13892  C46B     7F          			.byte	07fh
13893                     	;
13894  C46C     7F          			.byte	07fh
13895                     	;
13896  C46D     7F          			.byte	07fh
13897                     	;
13898  C46E     98          			.byte	098h
13899                     	;
13900  C46F     00          			.byte	000h
13901                     	;
13902  C470     00          			.byte	000h
13903                     	;
13904  C471     00          			.byte	000h
13905                     	;
13906  C472     00          			.byte	000h
13907                     	;
13908  C473     00          			.byte	000h
13909                     	;
13910  C474     00          			.byte	000h
13911                     	;
13912  C475     00          			.byte	000h
13913                     	;
13914  C476     00          			.byte	000h
13915                     	;
13916  C477     00          			.byte	000h
13917                     	;
13918  C478     00          			.byte	000h
13919                     	;
13920  C479     00          			.byte	000h
13921                     	;
13922  C47A     00          			.byte	000h
13923                     	;
13924  C47B     03          			.byte	003h
13925                     	;
13926  C47C     C0          			.byte	0c0h
13927                     	;
13928  C47D     00          			.byte	000h
13929                     	;
  Sun Jan 12 14:21:22 2003                                                                                               Page  264




13930  C47E     F7          			.byte	0f7h
13931                     	;
13932  C47F     FF          			.byte	0ffh
13933                     	;
13934  C480     FF          			.byte	0ffh
13935                     	;
13936  C481     FF          			.byte	0ffh
13937                     	;
13938  C482     E0          			.byte	0e0h
13939                     	;
13940  C483     00          			.byte	000h
13941                     	;
13942  C484     00          			.byte	000h
13943                     	;
13944  C485     70          			.byte	070h
13945                     	;
13946  C486     00          			.byte	000h
13947                     	;
13948  C487     00          			.byte	000h
13949                     	;
13950  C488     00          			.byte	000h
13951                     	;
13952  C489     08          			.byte	008h
13953                     	;
13954  C48A     00          			.byte	000h
13955                     	;
13956  C48B     00          			.byte	000h
13957                     	;
13958  C48C     00          			.byte	000h
13959                     	;
13960  C48D     00          			.byte	000h
13961                     	;
13962  C48E     00          			.byte	000h
13963                     	;
13964  C48F     03          			.byte	003h
13965                     	;
13966  C490     80          			.byte	080h
13967                     	;
13968  C491     00          			.byte	000h
13969                     	;
13970  C492     9F          			.byte	09fh
13971                     	;
13972  C493     FF          			.byte	0ffh
13973                     	;
13974  C494     FF          			.byte	0ffh
13975                     	;
13976  C495     FF          			.byte	0ffh
13977                     	;
13978  C496     FC          			.byte	0fch
13979                     	;
13980  C497     00          			.byte	000h
13981                     	;
13982  C498     00          			.byte	000h
13983                     	;
13984  C499     38          			.byte	038h
13985                     	;
13986  C49A     00          			.byte	000h
  Sun Jan 12 14:21:22 2003                                                                                               Page  265




13987                     	;
13988  C49B     00          			.byte	000h
13989                     	;
13990  C49C     00          			.byte	000h
13991                     	;
13992  C49D     0C          			.byte	00ch
13993                     	;
13994  C49E     00          			.byte	000h
13995                     	;
13996  C49F     06          			.byte	006h
13997                     	;
13998  C4A0     31          			.byte	031h
13999                     	;
14000  C4A1     CC          			.byte	0cch
14001                     	;
14002  C4A2     00          			.byte	000h
14003                     	;
14004  C4A3     03          			.byte	003h
14005                     	;
14006  C4A4     80          			.byte	080h
14007                     	;
14008  C4A5     00          			.byte	000h
14009                     	;
14010  C4A6     7F          			.byte	07fh
14011                     	;
14012  C4A7     7F          			.byte	07fh
14013                     	;
14014  C4A8     7F          			.byte	07fh
14015                     	;
14016  C4A9     7F          			.byte	07fh
14017                     	;
14018  C4AA     C0          			.byte	0c0h
14019                     	;
14020  C4AB     00          			.byte	000h
14021                     	;
14022  C4AC     00          			.byte	000h
14023                     	;
14024  C4AD     3F          			.byte	03fh
14025                     	;
14026  C4AE     80          			.byte	080h
14027                     	;
14028  C4AF     00          			.byte	000h
14029                     	;
14030  C4B0     04          			.byte	004h
14031                     	;
14032  C4B1     1C          			.byte	01ch
14033                     	;
14034  C4B2     00          			.byte	000h
14035                     	;
14036  C4B3     03          			.byte	003h
14037                     	;
14038  C4B4     EF          			.byte	0efh
14039                     	;
14040  C4B5     F3          			.byte	0f3h
14041                     	;
14042  C4B6     00          			.byte	000h
14043                     	;
  Sun Jan 12 14:21:22 2003                                                                                               Page  266




14044  C4B7     03          			.byte	003h
14045                     	;
14046  C4B8     80          			.byte	080h
14047                     	;
14048  C4B9     00          			.byte	000h
14049                     	;
14050  C4BA     F3          			.byte	0f3h
14051                     	;
14052  C4BB     F3          			.byte	0f3h
14053                     	;
14054  C4BC     F3          			.byte	0f3h
14055                     	;
14056  C4BD     F0          			.byte	0f0h
14057                     	;
14058  C4BE     F0          			.byte	0f0h
14059                     	;
14060  C4BF     00          			.byte	000h
14061                     	;
14062  C4C0     01          			.byte	001h
14063                     	;
14064  C4C1     FF          			.byte	0ffh
14065                     	;
14066  C4C2     C0          			.byte	0c0h
14067                     	;
14068  C4C3     01          			.byte	001h
14069                     	;
14070  C4C4     C3          			.byte	0c3h
14071                     	;
14072  C4C5     2C          			.byte	02ch
14073                     	;
14074  C4C6     00          			.byte	000h
14075                     	;
14076  C4C7     7E          			.byte	07eh
14077                     	;
14078  C4C8     FF          			.byte	0ffh
14079                     	;
14080  C4C9     FC          			.byte	0fch
14081                     	;
14082  C4CA     00          			.byte	000h
14083                     	;
14084  C4CB     07          			.byte	007h
14085                     	;
14086  C4CC     A0          			.byte	0a0h
14087                     	;
14088  C4CD     00          			.byte	000h
14089                     	;
14090  C4CE     00          			.byte	000h
14091                     	;
14092  C4CF     00          			.byte	000h
14093                     	;
14094  C4D0     9B          			.byte	09bh
14095                     	;
14096  C4D1     9B          			.byte	09bh
14097                     	;
14098  C4D2     00          			.byte	000h
14099                     	;
14100  C4D3     00          			.byte	000h
  Sun Jan 12 14:21:22 2003                                                                                               Page  267




14101                     	;
14102  C4D4     1F          			.byte	01fh
14103                     	;
14104  C4D5     C3          			.byte	0c3h
14105                     	;
14106  C4D6     00          			.byte	000h
14107                     	;
14108  C4D7     01          			.byte	001h
14109                     	;
14110  C4D8     E1          			.byte	0e1h
14111                     	;
14112  C4D9     A8          			.byte	0a8h
14113                     	;
14114  C4DA     00          			.byte	000h
14115                     	;
14116  C4DB     13          			.byte	013h
14117                     	;
14118  C4DC     FF          			.byte	0ffh
14119                     	;
14120  C4DD     FF          			.byte	0ffh
14121                     	;
14122  C4DE     80          			.byte	080h
14123                     	;
14124  C4DF     03          			.byte	003h
14125                     	;
14126  C4E0     C0          			.byte	0c0h
14127                     	;
14128  C4E1     00          			.byte	000h
14129                     	;
14130  C4E2     00          			.byte	000h
14131                     	;
14132  C4E3     00          			.byte	000h
14133                     	;
14134  C4E4     00          			.byte	000h
14135                     	;
14136  C4E5     00          			.byte	000h
14137                     	;
14138  C4E6     00          			.byte	000h
14139                     	;
14140  C4E7     00          			.byte	000h
14141                     	;
14142  C4E8     1E          			.byte	01eh
14143                     	;
14144  C4E9     77          			.byte	077h
14145                     	;
14146  C4EA     80          			.byte	080h
14147                     	;
14148  C4EB     00          			.byte	000h
14149                     	;
14150  C4EC     E1          			.byte	0e1h
14151                     	;
14152  C4ED     DF          			.byte	0dfh
14153                     	;
14154  C4EE     00          			.byte	000h
14155                     	;
14156  C4EF     0F          			.byte	00fh
14157                     	;
  Sun Jan 12 14:21:22 2003                                                                                               Page  268




14158  C4F0     EF          			.byte	0efh
14159                     	;
14160  C4F1     F8          			.byte	0f8h
14161                     	;
14162  C4F2     00          			.byte	000h
14163                     	;
14164  C4F3     17          			.byte	017h
14165                     	;
14166  C4F4     C0          			.byte	0c0h
14167                     	;
14168  C4F5     00          			.byte	000h
14169                     	;
14170  C4F6     07          			.byte	007h
14171                     	;
14172  C4F7     C0          			.byte	0c0h
14173                     	;
14174  C4F8     00          			.byte	000h
14175                     	;
14176  C4F9     00          			.byte	000h
14177                     	;
14178  C4FA     00          			.byte	000h
14179                     	;
14180  C4FB     00          			.byte	000h
14181                     	;
14182  C4FC     06          			.byte	006h
14183                     	;
14184  C4FD     FF          			.byte	0ffh
14185                     	;
14186  C4FE     00          			.byte	000h
14187                     	;
14188  C4FF     00          			.byte	000h
14189                     	;
14190  C500     E1          			.byte	0e1h
14191                     	;
14192  C501     BF          			.byte	0bfh
14193                     	;
14194  C502     00          			.byte	000h
14195                     	;
14196  C503     1E          			.byte	01eh
14197                     	;
14198  C504     7E          			.byte	07eh
14199                     	;
14200  C505     1E          			.byte	01eh
14201                     	;
14202  C506     00          			.byte	000h
14203                     	;
14204  C507     23          			.byte	023h
14205                     	;
14206  C508     84          			.byte	084h
14207                     	;
14208  C509     00          			.byte	000h
14209                     	;
14210  C50A     18          			.byte	018h
14211                     	;
14212  C50B     30          			.byte	030h
14213                     	;
14214  C50C     00          			.byte	000h
  Sun Jan 12 14:21:22 2003                                                                                               Page  269




14215                     	;
14216  C50D     00          			.byte	000h
14217                     	;
14218  C50E     00          			.byte	000h
14219                     	;
14220  C50F     00          			.byte	000h
14221                     	;
14222  C510     07          			.byte	007h
14223                     	;
14224  C511     FF          			.byte	0ffh
14225                     	;
14226  C512     E0          			.byte	0e0h
14227                     	;
14228  C513     00          			.byte	000h
14229                     	;
14230  C514     E7          			.byte	0e7h
14231                     	;
14232  C515     B0          			.byte	0b0h
14233                     	;
14234  C516     00          			.byte	000h
14235                     	;
14236  C517     01          			.byte	001h
14237                     	;
14238  C518     F3          			.byte	0f3h
14239                     	;
14240  C519     60          			.byte	060h
14241                     	;
14242  C51A     00          			.byte	000h
14243                     	;
14244  C51B     03          			.byte	003h
14245                     	;
14246  C51C     E0          			.byte	0e0h
14247                     	;
14248  C51D     00          			.byte	000h
14249                     	;
14250  C51E     20          			.byte	020h
14251                     	;
14252  C51F     08          			.byte	008h
14253                     	;
14254  C520     00          			.byte	000h
14255                     	;
14256  C521     00          			.byte	000h
14257                     	;
14258  C522     00          			.byte	000h
14259                     	;
14260  C523     00          			.byte	000h
14261                     	;
14262  C524     07          			.byte	007h
14263                     	;
14264  C525     E3          			.byte	0e3h
14265                     	;
14266  C526     60          			.byte	060h
14267                     	;
14268  C527     00          			.byte	000h
14269                     	;
14270  C528     F7          			.byte	0f7h
14271                     	;
  Sun Jan 12 14:21:22 2003                                                                                               Page  270




14272  C529     A0          			.byte	0a0h
14273                     	;
14274  C52A     00          			.byte	000h
14275                     	;
14276  C52B     00          			.byte	000h
14277                     	;
14278  C52C     00          			.byte	000h
14279                     	;
14280  C52D     00          			.byte	000h
14281                     	;
14282  C52E     00          			.byte	000h
14283                     	;
14284  C52F     1F          			.byte	01fh
14285                     	;
14286  C530     E0          			.byte	0e0h
14287                     	;
14288  C531     00          			.byte	000h
14289                     	;
14290  C532     40          			.byte	040h
14291                     	;
14292  C533     04          			.byte	004h
14293                     	;
14294  C534     00          			.byte	000h
14295                     	;
14296  C535     00          			.byte	000h
14297                     	;
14298  C536     00          			.byte	000h
14299                     	;
14300  C537     00          			.byte	000h
14301                     	;
14302  C538     0D          			.byte	00dh
14303                     	;
14304  C539     FF          			.byte	0ffh
14305                     	;
14306  C53A     80          			.byte	080h
14307                     	;
14308  C53B     00          			.byte	000h
14309                     	;
14310  C53C     FF          			.byte	0ffh
14311                     	;
14312  C53D     C0          			.byte	0c0h
14313                     	;
14314  C53E     00          			.byte	000h
14315                     	;
14316  C53F     00          			.byte	000h
14317                     	;
14318  C540     00          			.byte	000h
14319                     	;
14320  C541     00          			.byte	000h
14321                     	;
14322  C542     01          			.byte	001h
14323                     	;
14324  C543     FF          			.byte	0ffh
14325                     	;
14326  C544     FC          			.byte	0fch
14327                     	;
14328  C545     00          			.byte	000h
  Sun Jan 12 14:21:22 2003                                                                                               Page  271




14329                     	;
14330  C546     4D          			.byte	04dh
14331                     	;
14332  C547     84          			.byte	084h
14333                     	;
14334  C548     00          			.byte	000h
14335                     	;
14336  C549     00          			.byte	000h
14337                     	;
14338  C54A     00          			.byte	000h
14339                     	;
14340  C54B     00          			.byte	000h
14341                     	;
14342  C54C     0D          			.byte	00dh
14343                     	;
14344  C54D     FB          			.byte	0fbh
14345                     	;
14346  C54E     00          			.byte	000h
14347                     	;
14348  C54F     03          			.byte	003h
14349                     	;
14350  C550     E5          			.byte	0e5h
14351                     	;
14352  C551     F0          			.byte	0f0h
14353                     	;
14354  C552     00          			.byte	000h
14355                     	;
14356  C553     00          			.byte	000h
14357                     	;
14358  C554     00          			.byte	000h
14359                     	;
14360  C555     00          			.byte	000h
14361                     	;
14362  C556     01          			.byte	001h
14363                     	;
14364  C557     FF          			.byte	0ffh
14365                     	;
14366  C558     FE          			.byte	0feh
14367                     	;
14368  C559     40          			.byte	040h
14369                     	;
14370  C55A     92          			.byte	092h
14371                     	;
14372  C55B     42          			.byte	042h
14373                     	;
14374  C55C     06          			.byte	006h
14375                     	;
14376  C55D     C0          			.byte	0c0h
14377                     	;
14378  C55E     00          			.byte	000h
14379                     	;
14380  C55F     00          			.byte	000h
14381                     	;
14382  C560     0B          			.byte	00bh
14383                     	;
14384  C561     DF          			.byte	0dfh
14385                     	;
  Sun Jan 12 14:21:22 2003                                                                                               Page  272




14386  C562     80          			.byte	080h
14387                     	;
14388  C563     07          			.byte	007h
14389                     	;
14390  C564     C9          			.byte	0c9h
14391                     	;
14392  C565     B8          			.byte	0b8h
14393                     	;
14394  C566     00          			.byte	000h
14395                     	;
14396  C567     00          			.byte	000h
14397                     	;
14398  C568     00          			.byte	000h
14399                     	;
14400  C569     00          			.byte	000h
14401                     	;
14402  C56A     03          			.byte	003h
14403                     	;
14404  C56B     FF          			.byte	0ffh
14405                     	;
14406  C56C     FF          			.byte	0ffh
14407                     	;
14408  C56D     E0          			.byte	0e0h
14409                     	;
14410  C56E     82          			.byte	082h
14411                     	;
14412  C56F     02          			.byte	002h
14413                     	;
14414  C570     09          			.byte	009h
14415                     	;
14416  C571     20          			.byte	020h
14417                     	;
14418  C572     00          			.byte	000h
14419                     	;
14420  C573     00          			.byte	000h
14421                     	;
14422  C574     1A          			.byte	01ah
14423                     	;
14424  C575     79          			.byte	079h
14425                     	;
14426  C576     C0          			.byte	0c0h
14427                     	;
14428  C577     07          			.byte	007h
14429                     	;
14430  C578     CB          			.byte	0cbh
14431                     	;
14432  C579     0C          			.byte	00ch
14433                     	;
14434  C57A     00          			.byte	000h
14435                     	;
14436  C57B     00          			.byte	000h
14437                     	;
14438  C57C     00          			.byte	000h
14439                     	;
14440  C57D     00          			.byte	000h
14441                     	;
14442  C57E     1F          			.byte	01fh
  Sun Jan 12 14:21:22 2003                                                                                               Page  273




14443                     	;
14444  C57F     FF          			.byte	0ffh
14445                     	;
14446  C580     FF          			.byte	0ffh
14447                     	;
14448  C581     F8          			.byte	0f8h
14449                     	;
14450  C582     80          			.byte	080h
14451                     	;
14452  C583     02          			.byte	002h
14453                     	;
14454  C584     01          			.byte	001h
14455                     	;
14456  C585     00          			.byte	000h
14457                     	;
14458  C586     00          			.byte	000h
14459                     	;
14460  C587     00          			.byte	000h
14461                     	;
14462  C588     1A          			.byte	01ah
14463                     	;
14464  C589     F9          			.byte	0f9h
14465                     	;
14466  C58A     C0          			.byte	0c0h
14467                     	;
14468  C58B     03          			.byte	003h
14469                     	;
14470  C58C     D6          			.byte	0d6h
14471                     	;
14472  C58D     36          			.byte	036h
14473                     	;
14474  C58E     00          			.byte	000h
14475                     	;
14476  C58F     00          			.byte	000h
14477                     	;
14478  C590     00          			.byte	000h
14479                     	;
14480  C591     00          			.byte	000h
14481                     	;
14482  C592     1F          			.byte	01fh
14483                     	;
14484  C593     FF          			.byte	0ffh
14485                     	;
14486  C594     FF          			.byte	0ffh
14487                     	;
14488  C595     E0          			.byte	0e0h
14489                     	;
14490  C596     80          			.byte	080h
14491                     	;
14492  C597     02          			.byte	002h
14493                     	;
14494  C598     00          			.byte	000h
14495                     	;
14496  C599     00          			.byte	000h
14497                     	;
14498  C59A     00          			.byte	000h
14499                     	;
  Sun Jan 12 14:21:22 2003                                                                                               Page  274




14500  C59B     00          			.byte	000h
14501                     	;
14502  C59C     11          			.byte	011h
14503                     	;
14504  C59D     3D          			.byte	03dh
14505                     	;
14506  C59E     80          			.byte	080h
14507                     	;
14508  C59F     00          			.byte	000h
14509                     	;
14510  C5A0     F7          			.byte	0f7h
14511                     	;
14512  C5A1     FF          			.byte	0ffh
14513                     	;
14514  C5A2     00          			.byte	000h
14515                     	;
14516  C5A3     00          			.byte	000h
14517                     	;
14518  C5A4     00          			.byte	000h
14519                     	;
14520  C5A5     00          			.byte	000h
14521                     	;
14522  C5A6     07          			.byte	007h
14523                     	;
14524  C5A7     FF          			.byte	0ffh
14525                     	;
14526  C5A8     FF          			.byte	0ffh
14527                     	;
14528  C5A9     C0          			.byte	0c0h
14529                     	;
14530  C5AA     80          			.byte	080h
14531                     	;
14532  C5AB     02          			.byte	002h
14533                     	;
14534  C5AC     00          			.byte	000h
14535                     	;
14536  C5AD     00          			.byte	000h
14537                     	;
14538  C5AE     00          			.byte	000h
14539                     	;
14540  C5AF     00          			.byte	000h
14541                     	;
14542  C5B0     31          			.byte	031h
14543                     	;
14544  C5B1     FB          			.byte	0fbh
14545                     	;
14546  C5B2     80          			.byte	080h
14547                     	;
14548  C5B3     00          			.byte	000h
14549                     	;
14550  C5B4     EF          			.byte	0efh
14551                     	;
14552  C5B5     F3          			.byte	0f3h
14553                     	;
14554  C5B6     80          			.byte	080h
14555                     	;
14556  C5B7     00          			.byte	000h
  Sun Jan 12 14:21:22 2003                                                                                               Page  275




14557                     	;
14558  C5B8     00          			.byte	000h
14559                     	;
14560  C5B9     00          			.byte	000h
14561                     	;
14562  C5BA     03          			.byte	003h
14563                     	;
14564  C5BB     FF          			.byte	0ffh
14565                     	;
14566  C5BC     FF          			.byte	0ffh
14567                     	;
14568  C5BD     86          			.byte	086h
14569                     	;
14570  C5BE     79          			.byte	079h
14571                     	;
14572  C5BF     84          			.byte	084h
14573                     	;
14574  C5C0     01          			.byte	001h
14575                     	;
14576  C5C1     80          			.byte	080h
14577                     	;
14578  C5C2     00          			.byte	000h
14579                     	;
14580  C5C3     00          			.byte	000h
14581                     	;
14582  C5C4     30          			.byte	030h
14583                     	;
14584  C5C5     DF          			.byte	0dfh
14585                     	;
14586  C5C6     80          			.byte	080h
14587                     	;
14588  C5C7     01          			.byte	001h
14589                     	;
14590  C5C8     C9          			.byte	0c9h
14591                     	;
14592  C5C9     81          			.byte	081h
14593                     	;
14594  C5CA     E0          			.byte	0e0h
14595                     	;
14596  C5CB     00          			.byte	000h
14597                     	;
14598  C5CC     00          			.byte	000h
14599                     	;
14600  C5CD     00          			.byte	000h
14601                     	;
14602  C5CE     00          			.byte	000h
14603                     	;
14604  C5CF     27          			.byte	027h
14605                     	;
14606  C5D0     FF          			.byte	0ffh
14607                     	;
14608  C5D1     BD          			.byte	0bdh
14609                     	;
14610  C5D2     FE          			.byte	0feh
14611                     	;
14612  C5D3     64          			.byte	064h
14613                     	;
  Sun Jan 12 14:21:22 2003                                                                                               Page  276




14614  C5D4     00          			.byte	000h
14615                     	;
14616  C5D5     50          			.byte	050h
14617                     	;
14618  C5D6     00          			.byte	000h
14619                     	;
14620  C5D7     00          			.byte	000h
14621                     	;
14622  C5D8     21          			.byte	021h
14623                     	;
14624  C5D9     FE          			.byte	0feh
14625                     	;
14626  C5DA     80          			.byte	080h
14627                     	;
14628  C5DB     03          			.byte	003h
14629                     	;
14630  C5DC     96          			.byte	096h
14631                     	;
14632  C5DD     18          			.byte	018h
14633                     	;
14634  C5DE     F0          			.byte	0f0h
14635                     	;
14636  C5DF     00          			.byte	000h
14637                     	;
14638  C5E0     00          			.byte	000h
14639                     	;
14640  C5E1     00          			.byte	000h
14641                     	;
14642  C5E2     03          			.byte	003h
14643                     	;
14644  C5E3     FF          			.byte	0ffh
14645                     	;
14646  C5E4     FF          			.byte	0ffh
14647                     	;
14648  C5E5     DF          			.byte	0dfh
14649                     	;
14650  C5E6     FF          			.byte	0ffh
14651                     	;
14652  C5E7     88          			.byte	088h
14653                     	;
14654  C5E8     03          			.byte	003h
14655                     	;
14656  C5E9     EC          			.byte	0ech
14657                     	;
14658  C5EA     00          			.byte	000h
14659                     	;
14660  C5EB     00          			.byte	000h
14661                     	;
14662  C5EC     63          			.byte	063h
14663                     	;
14664  C5ED     ED          			.byte	0edh
14665                     	;
14666  C5EE     C0          			.byte	0c0h
14667                     	;
14668  C5EF     07          			.byte	007h
14669                     	;
14670  C5F0     34          			.byte	034h
  Sun Jan 12 14:21:22 2003                                                                                               Page  277




14671                     	;
14672  C5F1     7C          			.byte	07ch
14673                     	;
14674  C5F2     78          			.byte	078h
14675                     	;
14676  C5F3     00          			.byte	000h
14677                     	;
14678  C5F4     00          			.byte	000h
14679                     	;
14680  C5F5     00          			.byte	000h
14681                     	;
14682  C5F6     03          			.byte	003h
14683                     	;
14684  C5F7     FF          			.byte	0ffh
14685                     	;
14686  C5F8     FF          			.byte	0ffh
14687                     	;
14688  C5F9     FF          			.byte	0ffh
14689                     	;
14690  C5FA     FF          			.byte	0ffh
14691                     	;
14692  C5FB     F0          			.byte	0f0h
14693                     	;
14694  C5FC     01          			.byte	001h
14695                     	;
14696  C5FD     98          			.byte	098h
14697                     	;
14698  C5FE     00          			.byte	000h
14699                     	;
14700  C5FF     00          			.byte	000h
14701                     	;
14702  C600     43          			.byte	043h
14703                     	;
14704  C601     CF          			.byte	0cfh
14705                     	;
14706  C602     E0          			.byte	0e0h
14707                     	;
14708  C603     06          			.byte	006h
14709                     	;
14710  C604     67          			.byte	067h
14711                     	;
14712  C605     FE          			.byte	0feh
14713                     	;
14714  C606     00          			.byte	000h
14715                     	;
14716  C607     00          			.byte	000h
14717                     	;
14718  C608     00          			.byte	000h
14719                     	;
14720  C609     00          			.byte	000h
14721                     	;
14722  C60A     06          			.byte	006h
14723                     	;
14724  C60B     7F          			.byte	07fh
14725                     	;
14726  C60C     FF          			.byte	0ffh
14727                     	;
  Sun Jan 12 14:21:22 2003                                                                                               Page  278




14728  C60D     FD          			.byte	0fdh
14729                     	;
14730  C60E     FF          			.byte	0ffh
14731                     	;
14732  C60F     00          			.byte	000h
14733                     	;
14734  C610     02          			.byte	002h
14735                     	;
14736  C611     74          			.byte	074h
14737                     	;
14738  C612     00          			.byte	000h
14739                     	;
14740  C613     00          			.byte	000h
14741                     	;
14742  C614     C0          			.byte	0c0h
14743                     	;
14744  C615     8B          			.byte	08bh
14745                     	;
14746  C616     E4          			.byte	0e4h
14747                     	;
14748  C617     00          			.byte	000h
14749                     	;
14750  C618     07          			.byte	007h
14751                     	;
14752  C619     CC          			.byte	0cch
14753                     	;
14754  C61A     00          			.byte	000h
14755                     	;
14756  C61B     00          			.byte	000h
14757                     	;
14758  C61C     00          			.byte	000h
14759                     	;
14760  C61D     00          			.byte	000h
14761                     	;
14762  C61E     07          			.byte	007h
14763                     	;
14764  C61F     FF          			.byte	0ffh
14765                     	;
14766  C620     FF          			.byte	0ffh
14767                     	;
14768  C621     CF          			.byte	0cfh
14769                     	;
14770  C622     C3          			.byte	0c3h
14771                     	;
14772  C623     C0          			.byte	0c0h
14773                     	;
14774  C624     00          			.byte	000h
14775                     	;
14776  C625     00          			.byte	000h
14777                     	;
14778  C626     00          			.byte	000h
14779                     	;
14780  C627     00          			.byte	000h
14781                     	;
14782  C628     C1          			.byte	0c1h
14783                     	;
14784  C629     98          			.byte	098h
  Sun Jan 12 14:21:22 2003                                                                                               Page  279




14785                     	;
14786  C62A     44          			.byte	044h
14787                     	;
14788  C62B     00          			.byte	000h
14789                     	;
14790  C62C     07          			.byte	007h
14791                     	;
14792  C62D     18          			.byte	018h
14793                     	;
14794  C62E     00          			.byte	000h
14795                     	;
14796  C62F     00          			.byte	000h
14797                     	;
14798  C630     00          			.byte	000h
14799                     	;
14800  C631     00          			.byte	000h
14801                     	;
14802  C632     07          			.byte	007h
14803                     	;
14804  C633     FF          			.byte	0ffh
14805                     	;
14806  C634     FF          			.byte	0ffh
14807                     	;
14808  C635     FE          			.byte	0feh
14809                     	;
14810  C636     6C          			.byte	06ch
14811                     	;
14812  C637     00          			.byte	000h
14813                     	;
14814  C638     00          			.byte	000h
14815                     	;
14816  C639     00          			.byte	000h
14817                     	;
14818  C63A     00          			.byte	000h
14819                     	;
14820  C63B     01          			.byte	001h
14821                     	;
14822  C63C     83          			.byte	083h
14823                     	;
14824  C63D     18          			.byte	018h
14825                     	;
14826  C63E     0C          			.byte	00ch
14827                     	;
14828  C63F     00          			.byte	000h
14829                     	;
14830  C640     07          			.byte	007h
14831                     	;
14832  C641     78          			.byte	078h
14833                     	;
14834  C642     00          			.byte	000h
14835                     	;
14836  C643     00          			.byte	000h
14837                     	;
14838  C644     00          			.byte	000h
14839                     	;
14840  C645     00          			.byte	000h
14841                     	;
  Sun Jan 12 14:21:22 2003                                                                                               Page  280




14842  C646     3F          			.byte	03fh
14843                     	;
14844  C647     FF          			.byte	0ffh
14845                     	;
14846  C648     FF          			.byte	0ffh
14847                     	;
14848  C649     F8          			.byte	0f8h
14849                     	;
14850  C64A     00          			.byte	000h
14851                     	;
14852  C64B     00          			.byte	000h
14853                     	;
14854  C64C     00          			.byte	000h
14855                     	;
14856  C64D     00          			.byte	000h
14857                     	;
14858  C64E     00          			.byte	000h
14859                     	;
14860  C64F     01          			.byte	001h
14861                     	;
14862  C650     04          			.byte	004h
14863                     	;
14864  C651     1F          			.byte	01fh
14865                     	;
14866  C652     FE          			.byte	0feh
14867                     	;
14868  C653     00          			.byte	000h
14869                     	;
14870  C654     07          			.byte	007h
14871                     	;
14872  C655     F8          			.byte	0f8h
14873                     	;
14874  C656     00          			.byte	000h
14875                     	;
14876  C657     00          			.byte	000h
14877                     	;
14878  C658     00          			.byte	000h
14879                     	;
14880  C659     00          			.byte	000h
14881                     	;
14882  C65A     3F          			.byte	03fh
14883                     	;
14884  C65B     FF          			.byte	0ffh
14885                     	;
14886  C65C     FF          			.byte	0ffh
14887                     	;
14888  C65D     E0          			.byte	0e0h
14889                     	;
14890  C65E     00          			.byte	000h
14891                     	;
14892  C65F     03          			.byte	003h
14893                     	;
14894  C660     60          			.byte	060h
14895                     	;
14896  C661     00          			.byte	000h
14897                     	;
14898  C662     00          			.byte	000h
  Sun Jan 12 14:21:22 2003                                                                                               Page  281




14899                     	;
14900  C663     00          			.byte	000h
14901                     	;
14902  C664     00          			.byte	000h
14903                     	;
14904  C665     07          			.byte	007h
14905                     	;
14906  C666     FC          			.byte	0fch
14907                     	;
14908  C667     00          			.byte	000h
14909                     	;
14910  C668     03          			.byte	003h
14911                     	;
14912  C669     80          			.byte	080h
14913                     	;
14914  C66A     00          			.byte	000h
14915                     	;
14916  C66B     00          			.byte	000h
14917                     	;
14918  C66C     00          			.byte	000h
14919                     	;
14920  C66D     00          			.byte	000h
14921                     	;
14922  C66E     1F          			.byte	01fh
14923                     	;
14924  C66F     FF          			.byte	0ffh
14925                     	;
14926  C670     FF          			.byte	0ffh
14927                     	;
14928  C671     C0          			.byte	0c0h
14929                     	;
14930  C672     00          			.byte	000h
14931                     	;
14932  C673     04          			.byte	004h
14933                     	;
14934  C674     90          			.byte	090h
14935                     	;
14936  C675     00          			.byte	000h
14937                     	;
14938  C676     00          			.byte	000h
14939                     	;
14940  C677     00          			.byte	000h
14941                     	;
14942  C678     00          			.byte	000h
14943                     	;
14944  C679     00          			.byte	000h
14945                     	;
14946  C67A     00          			.byte	000h
14947                     	;
14948  C67B     00          			.byte	000h
14949                     	;
14950  C67C     00          			.byte	000h
14951                     	;
14952  C67D     00          			.byte	000h
14953                     	;
14954  C67E     00          			.byte	000h
14955                     	;
  Sun Jan 12 14:21:22 2003                                                                                               Page  282




14956  C67F     00          			.byte	000h
14957                     	;
14958  C680     00          			.byte	000h
14959                     	;
14960  C681     00          			.byte	000h
14961                     	;
14962  C682     07          			.byte	007h
14963                     	;
14964  C683     FF          			.byte	0ffh
14965                     	;
14966  C684     FF          			.byte	0ffh
14967                     	;
14968  C685     C0          			.byte	0c0h
14969                     	;
14970  C686     00          			.byte	000h
14971                     	;
14972  C687     00          			.byte	000h
14973                     	;
14974  C688     80          			.byte	080h
14975                     	;
14976  C689     00          			.byte	000h
14977                     	;
14978  C68A     00          			.byte	000h
14979                     	;
14980  C68B     00          			.byte	000h
14981                     	;
14982  C68C     00          			.byte	000h
14983                     	;
14984  C68D     00          			.byte	000h
14985                     	;
14986  C68E     00          			.byte	000h
14987                     	;
14988  C68F     00          			.byte	000h
14989                     	;
14990  C690     00          			.byte	000h
14991                     	;
14992  C691     00          			.byte	000h
14993                     	;
14994  C692     00          			.byte	000h
14995                     	;
14996  C693     00          			.byte	000h
14997                     	;
14998  C694     00          			.byte	000h
14999                     	;
15000  C695     00          			.byte	000h
15001                     	;
15002  C696     01          			.byte	001h
15003                     	;
15004  C697     FF          			.byte	0ffh
15005                     	;
15006  C698     FF          			.byte	0ffh
15007                     	;
15008  C699     80          			.byte	080h
15009                     	;
15010  C69A     00          			.byte	000h
15011                     	;
15012  C69B     00          			.byte	000h
  Sun Jan 12 14:21:22 2003                                                                                               Page  283




15013                     	;
15014  C69C     00          			.byte	000h
15015                     	;
15016  C69D     00          			.byte	000h
15017                     	;
15018  C69E     00          			.byte	000h
15019                     	;
15020  C69F     00          			.byte	000h
15021                     	;
15022  C6A0     00          			.byte	000h
15023                     	;
15024  C6A1     00          			.byte	000h
15025                     	;
15026  C6A2     00          			.byte	000h
15027                     	;
15028  C6A3     00          			.byte	000h
15029                     	;
15030  C6A4     00          			.byte	000h
15031                     	;
15032  C6A5     00          			.byte	000h
15033                     	;
15034  C6A6     00          			.byte	000h
15035                     	;
15036  C6A7     00          			.byte	000h
15037                     	;
15038  C6A8     00          			.byte	000h
15039                     	;
15040  C6A9     00          			.byte	000h
15041                     	;
15042  C6AA     00          			.byte	000h
15043                     	;
15044  C6AB     07          			.byte	007h
15045                     	;
15046  C6AC     FF          			.byte	0ffh
15047                     	;
15048  C6AD     A0          			.byte	0a0h
15049                     	;
15050  C6AE     00          			.byte	000h
15051                     	;
15052  C6AF     00          			.byte	000h
15053                     	;
15054  C6B0     00          			.byte	000h
15055                     	;
15056  C6B1     00          			.byte	000h
15057                     	;
15058  C6B2     00          			.byte	000h
15059                     	;
15060  C6B3     00          			.byte	000h
15061                     	;
15062  C6B4     00          			.byte	000h
15063                     	;
15064  C6B5     00          			.byte	000h
15065                     	;
15066  C6B6     00          			.byte	000h
15067                     	;
15068  C6B7     00          			.byte	000h
15069                     	;
  Sun Jan 12 14:21:22 2003                                                                                               Page  284




15070  C6B8     00          			.byte	000h
15071                     	;
15072  C6B9     00          			.byte	000h
15073                     	;
15074  C6BA     00          			.byte	000h
15075                     	;
15076  C6BB     00          			.byte	000h
15077                     	;
15078  C6BC     00          			.byte	000h
15079                     	;
15080  C6BD     00          			.byte	000h
15081                     	;
15082  C6BE     1F          			.byte	01fh
15083                     	;
15084  C6BF     FF          			.byte	0ffh
15085                     	;
15086  C6C0     FF          			.byte	0ffh
15087                     	;
15088  C6C1     E0          			.byte	0e0h
15089                     	;
15090  C6C2     00          			.byte	000h
15091                     	;
15092  C6C3     01          			.byte	001h
15093                     	;
15094  C6C4     8C          			.byte	08ch
15095                     	;
15096  C6C5     73          			.byte	073h
15097                     	;
15098  C6C6     00          			.byte	000h
15099                     	;
15100  C6C7     00          			.byte	000h
15101                     	;
15102  C6C8     00          			.byte	000h
15103                     	;
15104  C6C9     00          			.byte	000h
15105                     	;
15106  C6CA     00          			.byte	000h
15107                     	;
15108  C6CB     00          			.byte	000h
15109                     	;
15110  C6CC     00          			.byte	000h
15111                     	;
15112  C6CD     00          			.byte	000h
15113                     	;
15114  C6CE     00          			.byte	000h
15115                     	;
15116  C6CF     00          			.byte	000h
15117                     	;
15118  C6D0     00          			.byte	000h
15119                     	;
15120  C6D1     00          			.byte	000h
15121                     	;
15122  C6D2     1F          			.byte	01fh
15123                     	;
15124  C6D3     FF          			.byte	0ffh
15125                     	;
15126  C6D4     FF          			.byte	0ffh
  Sun Jan 12 14:21:22 2003                                                                                               Page  285




15127                     	;
15128  C6D5     E0          			.byte	0e0h
15129                     	;
15130  C6D6     00          			.byte	000h
15131                     	;
15132  C6D7     00          			.byte	000h
15133                     	;
15134  C6D8     FB          			.byte	0fbh
15135                     	;
15136  C6D9     FC          			.byte	0fch
15137                     	;
15138  C6DA     C0          			.byte	0c0h
15139                     	;
15140  C6DB     00          			.byte	000h
15141                     	;
15142  C6DC     00          			.byte	000h
15143                     	;
15144  C6DD     00          			.byte	000h
15145                     	;
15146  C6DE     00          			.byte	000h
15147                     	;
15148  C6DF     00          			.byte	000h
15149                     	;
15150  C6E0     00          			.byte	000h
15151                     	;
15152  C6E1     00          			.byte	000h
15153                     	;
15154  C6E2     00          			.byte	000h
15155                     	;
15156  C6E3     00          			.byte	000h
15157                     	;
15158  C6E4     00          			.byte	000h
15159                     	;
15160  C6E5     00          			.byte	000h
15161                     	;
15162  C6E6     1F          			.byte	01fh
15163                     	;
15164  C6E7     FF          			.byte	0ffh
15165                     	;
15166  C6E8     FF          			.byte	0ffh
15167                     	;
15168  C6E9     FC          			.byte	0fch
15169                     	;
15170  C6EA     00          			.byte	000h
15171                     	;
15172  C6EB     1F          			.byte	01fh
15173                     	;
15174  C6EC     BF          			.byte	0bfh
15175                     	;
15176  C6ED     FF          			.byte	0ffh
15177                     	;
15178  C6EE     00          			.byte	000h
15179                     	;
15180  C6EF     00          			.byte	000h
15181                     	;
15182  C6F0     00          			.byte	000h
15183                     	;
  Sun Jan 12 14:21:22 2003                                                                                               Page  286




15184  C6F1     00          			.byte	000h
15185                     	;
15186  C6F2     00          			.byte	000h
15187                     	;
15188  C6F3     00          			.byte	000h
15189                     	;
15190  C6F4     00          			.byte	000h
15191                     	;
15192  C6F5     00          			.byte	000h
15193                     	;
15194  C6F6     01          			.byte	001h
15195                     	;
15196  C6F7     8C          			.byte	08ch
15197                     	;
15198  C6F8     73          			.byte	073h
15199                     	;
15200  C6F9     00          			.byte	000h
15201                     	;
15202  C6FA     7F          			.byte	07fh
15203                     	;
15204  C6FB     FF          			.byte	0ffh
15205                     	;
15206  C6FC     FF          			.byte	0ffh
15207                     	;
15208  C6FD     FC          			.byte	0fch
15209                     	;
15210  C6FE     00          			.byte	000h
15211                     	;
15212  C6FF     04          			.byte	004h
15213                     	;
15214  C700     FF          			.byte	0ffh
15215                     	;
15216  C701     FF          			.byte	0ffh
15217                     	;
15218  C702     E0          			.byte	0e0h
15219                     	;
15220  C703     00          			.byte	000h
15221                     	;
15222  C704     00          			.byte	000h
15223                     	;
15224  C705     00          			.byte	000h
15225                     	;
15226  C706     00          			.byte	000h
15227                     	;
15228  C707     00          			.byte	000h
15229                     	;
15230  C708     00          			.byte	000h
15231                     	;
15232  C709     00          			.byte	000h
15233                     	;
15234  C70A     00          			.byte	000h
15235                     	;
15236  C70B     FB          			.byte	0fbh
15237                     	;
15238  C70C     FC          			.byte	0fch
15239                     	;
15240  C70D     C0          			.byte	0c0h
  Sun Jan 12 14:21:22 2003                                                                                               Page  287




15241                     	;
15242  C70E     7F          			.byte	07fh
15243                     	;
15244  C70F     FF          			.byte	0ffh
15245                     	;
15246  C710     FF          			.byte	0ffh
15247                     	;
15248  C711     F8          			.byte	0f8h
15249                     	;
15250  C712     00          			.byte	000h
15251                     	;
15252  C713     03          			.byte	003h
15253                     	;
15254  C714     FB          			.byte	0fbh
15255                     	;
15256  C715     FE          			.byte	0feh
15257                     	;
15258  C716     00          			.byte	000h
15259                     	;
15260  C717     00          			.byte	000h
15261                     	;
15262  C718     00          			.byte	000h
15263                     	;
15264  C719     00          			.byte	000h
15265                     	;
15266  C71A     00          			.byte	000h
15267                     	;
15268  C71B     00          			.byte	000h
15269                     	;
15270  C71C     00          			.byte	000h
15271                     	;
15272  C71D     00          			.byte	000h
15273                     	;
15274  C71E     1F          			.byte	01fh
15275                     	;
15276  C71F     BF          			.byte	0bfh
15277                     	;
15278  C720     FF          			.byte	0ffh
15279                     	;
15280  C721     00          			.byte	000h
15281                     	;
15282  C722     1F          			.byte	01fh
15283                     	;
15284  C723     FF          			.byte	0ffh
15285                     	;
15286  C724     FF          			.byte	0ffh
15287                     	;
15288  C725     E0          			.byte	0e0h
15289                     	;
15290  C726     00          			.byte	000h
15291                     	;
15292  C727     07          			.byte	007h
15293                     	;
15294  C728     9F          			.byte	09fh
15295                     	;
15296  C729     87          			.byte	087h
15297                     	;
  Sun Jan 12 14:21:22 2003                                                                                               Page  288




15298  C72A     80          			.byte	080h
15299                     	;
15300  C72B     00          			.byte	000h
15301                     	;
15302  C72C     00          			.byte	000h
15303                     	;
15304  C72D     7F          			.byte	07fh
15305                     	;
15306  C72E     FE          			.byte	0feh
15307                     	;
15308  C72F     0F          			.byte	00fh
15309                     	;
15310  C730     38          			.byte	038h
15311                     	;
15312  C731     00          			.byte	000h
15313                     	;
15314  C732     04          			.byte	004h
15315                     	;
15316  C733     FF          			.byte	0ffh
15317                     	;
15318  C734     FF          			.byte	0ffh
15319                     	;
15320  C735     E0          			.byte	0e0h
15321                     	;
15322  C736     1F          			.byte	01fh
15323                     	;
15324  C737     FF          			.byte	0ffh
15325                     	;
15326  C738     FF          			.byte	0ffh
15327                     	;
15328  C739     E0          			.byte	0e0h
15329                     	;
15330  C73A     00          			.byte	000h
15331                     	;
15332  C73B     00          			.byte	000h
15333                     	;
15334  C73C     7C          			.byte	07ch
15335                     	;
15336  C73D     D8          			.byte	0d8h
15337                     	;
15338  C73E     00          			.byte	000h
15339                     	;
15340  C73F     00          			.byte	000h
15341                     	;
15342  C740     00          			.byte	000h
15343                     	;
15344  C741     40          			.byte	040h
15345                     	;
15346  C742     02          			.byte	002h
15347                     	;
15348  C743     09          			.byte	009h
15349                     	;
15350  C744     44          			.byte	044h
15351                     	;
15352  C745     00          			.byte	000h
15353                     	;
15354  C746     03          			.byte	003h
  Sun Jan 12 14:21:22 2003                                                                                               Page  289




15355                     	;
15356  C747     FB          			.byte	0fbh
15357                     	;
15358  C748     FE          			.byte	0feh
15359                     	;
15360  C749     00          			.byte	000h
15361                     	;
15362  C74A     19          			.byte	019h
15363                     	;
15364  C74B     BF          			.byte	0bfh
15365                     	;
15366  C74C     FF          			.byte	0ffh
15367                     	;
15368  C74D     C0          			.byte	0c0h
15369                     	;
15370  C74E     00          			.byte	000h
15371                     	;
15372  C74F     00          			.byte	000h
15373                     	;
15374  C750     00          			.byte	000h
15375                     	;
15376  C751     00          			.byte	000h
15377                     	;
15378  C752     00          			.byte	000h
15379                     	;
15380  C753     00          			.byte	000h
15381                     	;
15382  C754     00          			.byte	000h
15383                     	;
15384  C755     40          			.byte	040h
15385                     	;
15386  C756     02          			.byte	002h
15387                     	;
15388  C757     31          			.byte	031h
15389                     	;
15390  C758     CA          			.byte	0cah
15391                     	;
15392  C759     00          			.byte	000h
15393                     	;
15394  C75A     07          			.byte	007h
15395                     	;
15396  C75B     9F          			.byte	09fh
15397                     	;
15398  C75C     87          			.byte	087h
15399                     	;
15400  C75D     80          			.byte	080h
15401                     	;
15402  C75E     03          			.byte	003h
15403                     	;
15404  C75F     BF          			.byte	0bfh
15405                     	;
15406  C760     FF          			.byte	0ffh
15407                     	;
15408  C761     C0          			.byte	0c0h
15409                     	;
15410  C762     00          			.byte	000h
15411                     	;
  Sun Jan 12 14:21:22 2003                                                                                               Page  290




15412  C763     00          			.byte	000h
15413                     	;
15414  C764     00          			.byte	000h
15415                     	;
15416  C765     00          			.byte	000h
15417                     	;
15418  C766     00          			.byte	000h
15419                     	;
15420  C767     00          			.byte	000h
15421                     	;
15422  C768     00          			.byte	000h
15423                     	;
15424  C769     79          			.byte	079h
15425                     	;
15426  C76A     8E          			.byte	08eh
15427                     	;
15428  C76B     20          			.byte	020h
15429                     	;
15430  C76C     91          			.byte	091h
15431                     	;
15432  C76D     00          			.byte	000h
15433                     	;
15434  C76E     00          			.byte	000h
15435                     	;
15436  C76F     7C          			.byte	07ch
15437                     	;
15438  C770     D8          			.byte	0d8h
15439                     	;
15440  C771     00          			.byte	000h
15441                     	;
15442  C772     07          			.byte	007h
15443                     	;
15444  C773     FF          			.byte	0ffh
15445                     	;
15446  C774     FF          			.byte	0ffh
15447                     	;
15448  C775     C0          			.byte	0c0h
15449                     	;
15450  C776     00          			.byte	000h
15451                     	;
15452  C777     00          			.byte	000h
15453                     	;
15454  C778     00          			.byte	000h
15455                     	;
15456  C779     00          			.byte	000h
15457                     	;
15458  C77A     00          			.byte	000h
15459                     	;
15460  C77B     00          			.byte	000h
15461                     	;
15462  C77C     00          			.byte	000h
15463                     	;
15464  C77D     09          			.byte	009h
15465                     	;
15466  C77E     88          			.byte	088h
15467                     	;
15468  C77F     21          			.byte	021h
  Sun Jan 12 14:21:22 2003                                                                                               Page  291




15469                     	;
15470  C780     98          			.byte	098h
15471                     	;
15472  C781     80          			.byte	080h
15473                     	;
15474  C782     00          			.byte	000h
15475                     	;
15476  C783     00          			.byte	000h
15477                     	;
15478  C784     00          			.byte	000h
15479                     	;
15480  C785     00          			.byte	000h
15481                     	;
15482  C786     3F          			.byte	03fh
15483                     	;
15484  C787     FF          			.byte	0ffh
15485                     	;
15486  C788     E7          			.byte	0e7h
15487                     	;
15488  C789     E0          			.byte	0e0h
15489                     	;
15490  C78A     00          			.byte	000h
15491                     	;
15492  C78B     00          			.byte	000h
15493                     	;
15494  C78C     00          			.byte	000h
15495                     	;
15496  C78D     00          			.byte	000h
15497                     	;
15498  C78E     00          			.byte	000h
15499                     	;
15500  C78F     00          			.byte	000h
15501                     	;
15502  C790     00          			.byte	000h
15503                     	;
15504  C791     79          			.byte	079h
15505                     	;
15506  C792     8E          			.byte	08eh
15507                     	;
15508  C793     25          			.byte	025h
15509                     	;
15510  C794     00          			.byte	000h
15511                     	;
15512  C795     80          			.byte	080h
15513                     	;
15514  C796     00          			.byte	000h
15515                     	;
15516  C797     00          			.byte	000h
15517                     	;
15518  C798     00          			.byte	000h
15519                     	;
15520  C799     00          			.byte	000h
15521                     	;
15522  C79A     27          			.byte	027h
15523                     	;
15524  C79B     FF          			.byte	0ffh
15525                     	;
  Sun Jan 12 14:21:22 2003                                                                                               Page  292




15526  C79C     FF          			.byte	0ffh
15527                     	;
15528  C79D     E0          			.byte	0e0h
15529                     	;
15530  C79E     00          			.byte	000h
15531                     	;
15532  C79F     00          			.byte	000h
15533                     	;
15534  C7A0     00          			.byte	000h
15535                     	;
15536  C7A1     00          			.byte	000h
15537                     	;
15538  C7A2     00          			.byte	000h
15539                     	;
15540  C7A3     00          			.byte	000h
15541                     	;
15542  C7A4     00          			.byte	000h
15543                     	;
15544  C7A5     40          			.byte	040h
15545                     	;
15546  C7A6     02          			.byte	002h
15547                     	;
15548  C7A7     25          			.byte	025h
15549                     	;
15550  C7A8     00          			.byte	000h
15551                     	;
15552  C7A9     80          			.byte	080h
15553                     	;
15554  C7AA     00          			.byte	000h
15555                     	;
15556  C7AB     00          			.byte	000h
15557                     	;
15558  C7AC     00          			.byte	000h
15559                     	;
15560  C7AD     00          			.byte	000h
15561                     	;
15562  C7AE     1F          			.byte	01fh
15563                     	;
15564  C7AF     FF          			.byte	0ffh
15565                     	;
15566  C7B0     FF          			.byte	0ffh
15567                     	;
15568  C7B1     E0          			.byte	0e0h
15569                     	;
15570  C7B2     00          			.byte	000h
15571                     	;
15572  C7B3     00          			.byte	000h
15573                     	;
15574  C7B4     00          			.byte	000h
15575                     	;
15576  C7B5     00          			.byte	000h
15577                     	;
15578  C7B6     00          			.byte	000h
15579                     	;
15580  C7B7     00          			.byte	000h
15581                     	;
15582  C7B8     00          			.byte	000h
  Sun Jan 12 14:21:22 2003                                                                                               Page  293




15583                     	;
15584  C7B9     40          			.byte	040h
15585                     	;
15586  C7BA     02          			.byte	002h
15587                     	;
15588  C7BB     24          			.byte	024h
15589                     	;
15590  C7BC     FF          			.byte	0ffh
15591                     	;
15592  C7BD     00          			.byte	000h
15593                     	;
15594  C7BE     00          			.byte	000h
15595                     	;
15596  C7BF     00          			.byte	000h
15597                     	;
15598  C7C0     00          			.byte	000h
15599                     	;
15600  C7C1     00          			.byte	000h
15601                     	;
15602  C7C2     3F          			.byte	03fh
15603                     	;
15604  C7C3     FF          			.byte	0ffh
15605                     	;
15606  C7C4     FF          			.byte	0ffh
15607                     	;
15608  C7C5     FE          			.byte	0feh
15609                     	;
15610  C7C6     00          			.byte	000h
15611                     	;
15612  C7C7     00          			.byte	000h
15613                     	;
15614  C7C8     00          			.byte	000h
15615                     	;
15616  C7C9     00          			.byte	000h
15617                     	;
15618  C7CA     00          			.byte	000h
15619                     	;
15620  C7CB     00          			.byte	000h
15621                     	;
15622  C7CC     00          			.byte	000h
15623                     	;
15624  C7CD     79          			.byte	079h
15625                     	;
15626  C7CE     8E          			.byte	08eh
15627                     	;
15628  C7CF     21          			.byte	021h
15629                     	;
15630  C7D0     01          			.byte	001h
15631                     	;
15632  C7D1     00          			.byte	000h
15633                     	;
15634  C7D2     00          			.byte	000h
15635                     	;
15636  C7D3     00          			.byte	000h
15637                     	;
15638  C7D4     00          			.byte	000h
15639                     	;
  Sun Jan 12 14:21:22 2003                                                                                               Page  294




15640  C7D5     01          			.byte	001h
15641                     	;
15642  C7D6     FF          			.byte	0ffh
15643                     	;
15644  C7D7     FF          			.byte	0ffh
15645                     	;
15646  C7D8     FF          			.byte	0ffh
15647                     	;
15648  C7D9     FE          			.byte	0feh
15649                     	;
15650  C7DA     00          			.byte	000h
15651                     	;
15652  C7DB     00          			.byte	000h
15653                     	;
15654  C7DC     00          			.byte	000h
15655                     	;
15656  C7DD     00          			.byte	000h
15657                     	;
15658  C7DE     00          			.byte	000h
15659                     	;
15660  C7DF     00          			.byte	000h
15661                     	;
15662  C7E0     00          			.byte	000h
15663                     	;
15664  C7E1     11          			.byte	011h
15665                     	;
15666  C7E2     88          			.byte	088h
15667                     	;
15668  C7E3     21          			.byte	021h
15669                     	;
15670  C7E4     01          			.byte	001h
15671                     	;
15672  C7E5     00          			.byte	000h
15673                     	;
15674  C7E6     00          			.byte	000h
15675                     	;
15676  C7E7     00          			.byte	000h
15677                     	;
15678  C7E8     00          			.byte	000h
15679                     	;
15680  C7E9     00          			.byte	000h
15681                     	;
15682  C7EA     63          			.byte	063h
15683                     	;
15684  C7EB     FF          			.byte	0ffh
15685                     	;
15686  C7EC     FF          			.byte	0ffh
15687                     	;
15688  C7ED     F8          			.byte	0f8h
15689                     	;
15690  C7EE     00          			.byte	000h
15691                     	;
15692  C7EF     00          			.byte	000h
15693                     	;
15694  C7F0     00          			.byte	000h
15695                     	;
15696  C7F1     00          			.byte	000h
  Sun Jan 12 14:21:22 2003                                                                                               Page  295




15697                     	;
15698  C7F2     00          			.byte	000h
15699                     	;
15700  C7F3     00          			.byte	000h
15701                     	;
15702  C7F4     00          			.byte	000h
15703                     	;
15704  C7F5     22          			.byte	022h
15705                     	;
15706  C7F6     88          			.byte	088h
15707                     	;
15708  C7F7     10          			.byte	010h
15709                     	;
15710  C7F8     B9          			.byte	0b9h
15711                     	;
15712  C7F9     00          			.byte	000h
15713                     	;
15714  C7FA     00          			.byte	000h
15715                     	;
15716  C7FB     00          			.byte	000h
15717                     	;
15718  C7FC     00          			.byte	000h
15719                     	;
15720  C7FD     00          			.byte	000h
15721                     	;
15722  C7FE     21          			.byte	021h
15723                     	;
15724  C7FF     FF          			.byte	0ffh
15725                     	;
15726  C800     FF          			.byte	0ffh
15727                     	;
15728  C801     E0          			.byte	0e0h
15729                     	;
15730  C802     00          			.byte	000h
15731                     	;
15732  C803     00          			.byte	000h
15733                     	;
15734  C804     00          			.byte	000h
15735                     	;
15736  C805     00          			.byte	000h
15737                     	;
15738  C806     00          			.byte	000h
15739                     	;
15740  C807     00          			.byte	000h
15741                     	;
15742  C808     00          			.byte	000h
15743                     	;
15744  C809     42          			.byte	042h
15745                     	;
15746  C80A     88          			.byte	088h
15747                     	;
15748  C80B     20          			.byte	020h
15749                     	;
15750  C80C     B9          			.byte	0b9h
15751                     	;
15752  C80D     00          			.byte	000h
15753                     	;
  Sun Jan 12 14:21:22 2003                                                                                               Page  296




15754  C80E     00          			.byte	000h
15755                     	;
15756  C80F     00          			.byte	000h
15757                     	;
15758  C810     00          			.byte	000h
15759                     	;
15760  C811     00          			.byte	000h
15761                     	;
15762  C812     01          			.byte	001h
15763                     	;
15764  C813     BF          			.byte	0bfh
15765                     	;
15766  C814     FF          			.byte	0ffh
15767                     	;
15768  C815     C0          			.byte	0c0h
15769                     	;
15770  C816     00          			.byte	000h
15771                     	;
15772  C817     00          			.byte	000h
15773                     	;
15774  C818     00          			.byte	000h
15775                     	;
15776  C819     00          			.byte	000h
15777                     	;
15778  C81A     00          			.byte	000h
15779                     	;
15780  C81B     00          			.byte	000h
15781                     	;
15782  C81C     00          			.byte	000h
15783                     	;
15784  C81D     44          			.byte	044h
15785                     	;
15786  C81E     88          			.byte	088h
15787                     	;
15788  C81F     23          			.byte	023h
15789                     	;
15790  C820     01          			.byte	001h
15791                     	;
15792  C821     00          			.byte	000h
15793                     	;
15794  C822     00          			.byte	000h
15795                     	;
15796  C823     00          			.byte	000h
15797                     	;
15798  C824     00          			.byte	000h
15799                     	;
15800  C825     00          			.byte	000h
15801                     	;
15802  C826     03          			.byte	003h
15803                     	;
15804  C827     BF          			.byte	0bfh
15805                     	;
15806  C828     FF          			.byte	0ffh
15807                     	;
15808  C829     C0          			.byte	0c0h
15809                     	;
15810  C82A     00          			.byte	000h
  Sun Jan 12 14:21:22 2003                                                                                               Page  297




15811                     	;
15812  C82B     00          			.byte	000h
15813                     	;
15814  C82C     00          			.byte	000h
15815                     	;
15816  C82D     00          			.byte	000h
15817                     	;
15818  C82E     00          			.byte	000h
15819                     	;
15820  C82F     00          			.byte	000h
15821                     	;
15822  C830     00          			.byte	000h
15823                     	;
15824  C831     48          			.byte	048h
15825                     	;
15826  C832     88          			.byte	088h
15827                     	;
15828  C833     27          			.byte	027h
15829                     	;
15830  C834     01          			.byte	001h
15831                     	;
15832  C835     00          			.byte	000h
15833                     	;
15834  C836     00          			.byte	000h
15835                     	;
15836  C837     00          			.byte	000h
15837                     	;
15838  C838     00          			.byte	000h
15839                     	;
15840  C839     00          			.byte	000h
15841                     	;
15842  C83A     07          			.byte	007h
15843                     	;
15844  C83B     FF          			.byte	0ffh
15845                     	;
15846  C83C     FF          			.byte	0ffh
15847                     	;
15848  C83D     E0          			.byte	0e0h
15849                     	;
15850  C83E     00          			.byte	000h
15851                     	;
15852  C83F     00          			.byte	000h
15853                     	;
15854  C840     00          			.byte	000h
15855                     	;
15856  C841     00          			.byte	000h
15857                     	;
15858  C842     00          			.byte	000h
15859                     	;
15860  C843     00          			.byte	000h
15861                     	;
15862  C844     00          			.byte	000h
15863                     	;
15864  C845     30          			.byte	030h
15865                     	;
15866  C846     70          			.byte	070h
15867                     	;
  Sun Jan 12 14:21:22 2003                                                                                               Page  298




15868  C847     18          			.byte	018h
15869                     	;
15870  C848     FF          			.byte	0ffh
15871                     	;
15872  C849     00          			.byte	000h
15873                     	;
15874  C84A     00          			.byte	000h
15875                     	;
15876  C84B     00          			.byte	000h
15877                     	;
15878  C84C     00          			.byte	000h
15879                     	;
15880  C84D     00          			.byte	000h
15881                     	;
15882  C84E     3D          			.byte	03dh
15883                     	;
15884  C84F     BF          			.byte	0bfh
15885                     	;
15886  C850     FF          			.byte	0ffh
15887                     	;
15888  C851     E0          			.byte	0e0h
15889                     	;
15890  C852     00          			.byte	000h
15891                     	;
15892  C853     00          			.byte	000h
15893                     	;
15894  C854     00          			.byte	000h
15895                     	;
15896  C855     00          			.byte	000h
15897                     	;
15898  C856     00          			.byte	000h
15899                     	;
15900  C857     00          			.byte	000h
15901                     	;
15902  C858     00          			.byte	000h
15903                     	;
15904  C859     00          			.byte	000h
15905                     	;
15906  C85A     00          			.byte	000h
15907                     	;
15908  C85B     00          			.byte	000h
15909                     	;
15910  C85C     00          			.byte	000h
15911                     	;
15912  C85D     00          			.byte	000h
15913                     	;
15914  C85E     00          			.byte	000h
15915                     	;
15916  C85F     00          			.byte	000h
15917                     	;
15918  C860     00          			.byte	000h
15919                     	;
15920  C861     00          			.byte	000h
15921                     	;
15922  C862     3F          			.byte	03fh
15923                     	;
15924  C863     FA          			.byte	0fah
  Sun Jan 12 14:21:22 2003                                                                                               Page  299




15925                     	;
15926  C864     3F          			.byte	03fh
15927                     	;
15928  C865     F8          			.byte	0f8h
15929                     	;
15930  C866     00          			.byte	000h
15931                     	;
15932  C867     00          			.byte	000h
15933                     	;
15934  C868     00          			.byte	000h
15935                     	;
15936  C869     00          			.byte	000h
15937                     	;
15938  C86A     00          			.byte	000h
15939                     	;
15940  C86B     00          			.byte	000h
15941                     	;
15942  C86C     00          			.byte	000h
15943                     	;
15944  C86D     00          			.byte	000h
15945                     	;
15946  C86E     00          			.byte	000h
15947                     	;
15948  C86F     00          			.byte	000h
15949                     	;
15950  C870     00          			.byte	000h
15951                     	;
15952  C871     00          			.byte	000h
15953                     	;
15954  C872     00          			.byte	000h
15955                     	;
15956  C873     00          			.byte	000h
15957                     	;
15958  C874     00          			.byte	000h
15959                     	;
15960  C875     00          			.byte	000h
15961                     	;
15962  C876     3F          			.byte	03fh
15963                     	;
15964  C877     FA          			.byte	0fah
15965                     	;
15966  C878     3F          			.byte	03fh
15967                     	;
15968  C879     F8          			.byte	0f8h
15969                     	;
15970  C87A     00          			.byte	000h
15971                     	;
15972  C87B     00          			.byte	000h
15973                     	;
15974  C87C     00          			.byte	000h
15975                     	;
15976  C87D     00          			.byte	000h
15977                     	;
15978  C87E     00          			.byte	000h
15979                     	;
15980  C87F     00          			.byte	000h
15981                     	;
  Sun Jan 12 14:21:22 2003                                                                                               Page  300




15982  C880     00          			.byte	000h
15983                     	;
15984  C881     00          			.byte	000h
15985                     	;
15986  C882     00          			.byte	000h
15987                     	;
15988  C883     00          			.byte	000h
15989                     	;
15990  C884     00          			.byte	000h
15991                     	;
15992  C885     00          			.byte	000h
15993                     	;
15994  C886     00          			.byte	000h
15995                     	;
15996  C887     00          			.byte	000h
15997                     	;
15998  C888     00          			.byte	000h
15999                     	;
16000  C889     00          			.byte	000h
16001                     	;
16002  C88A     1F          			.byte	01fh
16003                     	;
16004  C88B     FF          			.byte	0ffh
16005                     	;
16006  C88C     FF          			.byte	0ffh
16007                     	;
16008  C88D     F8          			.byte	0f8h
16009                     	;
16010  C88E     00          			.byte	000h
16011                     	;
16012  C88F     00          			.byte	000h
16013                     	;
16014  C890     00          			.byte	000h
16015                     	;
16016  C891     00          			.byte	000h
16017                     	;
16018  C892     00          			.byte	000h
16019                     	;
16020  C893     00          			.byte	000h
16021                     	;
16022  C894     00          			.byte	000h
16023                     	;
16024  C895     00          			.byte	000h
16025                     	;
16026  C896     00          			.byte	000h
16027                     	;
16028  C897     00          			.byte	000h
16029                     	;
16030  C898     00          			.byte	000h
16031                     	;
16032  C899     00          			.byte	000h
16033                     	;
16034  C89A     00          			.byte	000h
16035                     	;
16036  C89B     00          			.byte	000h
16037                     	;
16038  C89C     00          			.byte	000h
  Sun Jan 12 14:21:22 2003                                                                                               Page  301




16039                     	;
16040  C89D     00          			.byte	000h
16041                     	;
16042  C89E     7F          			.byte	07fh
16043                     	;
16044  C89F     FF          			.byte	0ffh
16045                     	;
16046  C8A0     FF          			.byte	0ffh
16047                     	;
16048  C8A1     FE          			.byte	0feh
16049                     	;
16050  C8A2     00          			.byte	000h
16051                     	;
16052  C8A3     00          			.byte	000h
16053                     	;
16054  C8A4     00          			.byte	000h
16055                     	;
16056  C8A5     00          			.byte	000h
16057                     	;
16058  C8A6     00          			.byte	000h
16059                     	;
16060  C8A7     00          			.byte	000h
16061                     	;
16062  C8A8     00          			.byte	000h
16063                     	;
16064  C8A9     1E          			.byte	01eh
16065                     	;
16066  C8AA     38          			.byte	038h
16067                     	;
16068  C8AB     1F          			.byte	01fh
16069                     	;
16070  C8AC     FF          			.byte	0ffh
16071                     	;
16072  C8AD     00          			.byte	000h
16073                     	;
16074  C8AE     00          			.byte	000h
16075                     	;
16076  C8AF     00          			.byte	000h
16077                     	;
16078  C8B0     00          			.byte	000h
16079                     	;
16080  C8B1     03          			.byte	003h
16081                     	;
16082  C8B2     FF          			.byte	0ffh
16083                     	;
16084  C8B3     FF          			.byte	0ffh
16085                     	;
16086  C8B4     FF          			.byte	0ffh
16087                     	;
16088  C8B5     FE          			.byte	0feh
16089                     	;
16090  C8B6     00          			.byte	000h
16091                     	;
16092  C8B7     00          			.byte	000h
16093                     	;
16094  C8B8     00          			.byte	000h
16095                     	;
  Sun Jan 12 14:21:22 2003                                                                                               Page  302




16096  C8B9     00          			.byte	000h
16097                     	;
16098  C8BA     00          			.byte	000h
16099                     	;
16100  C8BB     00          			.byte	000h
16101                     	;
16102  C8BC     00          			.byte	000h
16103                     	;
16104  C8BD     11          			.byte	011h
16105                     	;
16106  C8BE     48          			.byte	048h
16107                     	;
16108  C8BF     10          			.byte	010h
16109                     	;
16110  C8C0     01          			.byte	001h
16111                     	;
16112  C8C1     00          			.byte	000h
16113                     	;
16114  C8C2     00          			.byte	000h
16115                     	;
16116  C8C3     00          			.byte	000h
16117                     	;
16118  C8C4     00          			.byte	000h
16119                     	;
16120  C8C5     03          			.byte	003h
16121                     	;
16122  C8C6     FB          			.byte	0fbh
16123                     	;
16124  C8C7     FF          			.byte	0ffh
16125                     	;
16126  C8C8     FF          			.byte	0ffh
16127                     	;
16128  C8C9     F8          			.byte	0f8h
16129                     	;
16130  C8CA     00          			.byte	000h
16131                     	;
16132  C8CB     00          			.byte	000h
16133                     	;
16134  C8CC     00          			.byte	000h
16135                     	;
16136  C8CD     00          			.byte	000h
16137                     	;
16138  C8CE     00          			.byte	000h
16139                     	;
16140  C8CF     00          			.byte	000h
16141                     	;
16142  C8D0     00          			.byte	000h
16143                     	;
16144  C8D1     11          			.byte	011h
16145                     	;
16146  C8D2     8C          			.byte	08ch
16147                     	;
16148  C8D3     10          			.byte	010h
16149                     	;
16150  C8D4     01          			.byte	001h
16151                     	;
16152  C8D5     00          			.byte	000h
  Sun Jan 12 14:21:22 2003                                                                                               Page  303




16153                     	;
16154  C8D6     00          			.byte	000h
16155                     	;
16156  C8D7     00          			.byte	000h
16157                     	;
16158  C8D8     00          			.byte	000h
16159                     	;
16160  C8D9     7F          			.byte	07fh
16161                     	;
16162  C8DA     E1          			.byte	0e1h
16163                     	;
16164  C8DB     FF          			.byte	0ffh
16165                     	;
16166  C8DC     FF          			.byte	0ffh
16167                     	;
16168  C8DD     E0          			.byte	0e0h
16169                     	;
16170  C8DE     00          			.byte	000h
16171                     	;
16172  C8DF     00          			.byte	000h
16173                     	;
16174  C8E0     00          			.byte	000h
16175                     	;
16176  C8E1     00          			.byte	000h
16177                     	;
16178  C8E2     0E          			.byte	00eh
16179                     	;
16180  C8E3     00          			.byte	000h
16181                     	;
16182  C8E4     00          			.byte	000h
16183                     	;
16184  C8E5     2B          			.byte	02bh
16185                     	;
16186  C8E6     02          			.byte	002h
16187                     	;
16188  C8E7     10          			.byte	010h
16189                     	;
16190  C8E8     01          			.byte	001h
16191                     	;
16192  C8E9     00          			.byte	000h
16193                     	;
16194  C8EA     00          			.byte	000h
16195                     	;
16196  C8EB     00          			.byte	000h
16197                     	;
16198  C8EC     00          			.byte	000h
16199                     	;
16200  C8ED     FF          			.byte	0ffh
16201                     	;
16202  C8EE     E0          			.byte	0e0h
16203                     	;
16204  C8EF     3F          			.byte	03fh
16205                     	;
16206  C8F0     FF          			.byte	0ffh
16207                     	;
16208  C8F1     E0          			.byte	0e0h
16209                     	;
  Sun Jan 12 14:21:22 2003                                                                                               Page  304




16210  C8F2     00          			.byte	000h
16211                     	;
16212  C8F3     00          			.byte	000h
16213                     	;
16214  C8F4     00          			.byte	000h
16215                     	;
16216  C8F5     00          			.byte	000h
16217                     	;
16218  C8F6     0E          			.byte	00eh
16219                     	;
16220  C8F7     00          			.byte	000h
16221                     	;
16222  C8F8     00          			.byte	000h
16223                     	;
16224  C8F9     24          			.byte	024h
16225                     	;
16226  C8FA     02          			.byte	002h
16227                     	;
16228  C8FB     0F          			.byte	00fh
16229                     	;
16230  C8FC     9F          			.byte	09fh
16231                     	;
16232  C8FD     00          			.byte	000h
16233                     	;
16234  C8FE     00          			.byte	000h
16235                     	;
16236  C8FF     00          			.byte	000h
16237                     	;
16238  C900     07          			.byte	007h
16239                     	;
16240  C901     FF          			.byte	0ffh
16241                     	;
16242  C902     FD          			.byte	0fdh
16243                     	;
16244  C903     FF          			.byte	0ffh
16245                     	;
16246  C904     FF          			.byte	0ffh
16247                     	;
16248  C905     E0          			.byte	0e0h
16249                     	;
16250  C906     00          			.byte	000h
16251                     	;
16252  C907     00          			.byte	000h
16253                     	;
16254  C908     00          			.byte	000h
16255                     	;
16256  C909     00          			.byte	000h
16257                     	;
16258  C90A     FE          			.byte	0feh
16259                     	;
16260  C90B     00          			.byte	000h
16261                     	;
16262  C90C     00          			.byte	000h
16263                     	;
16264  C90D     20          			.byte	020h
16265                     	;
16266  C90E     02          			.byte	002h
  Sun Jan 12 14:21:22 2003                                                                                               Page  305




16267                     	;
16268  C90F     3F          			.byte	03fh
16269                     	;
16270  C910     9F          			.byte	09fh
16271                     	;
16272  C911     80          			.byte	080h
16273                     	;
16274  C912     00          			.byte	000h
16275                     	;
16276  C913     00          			.byte	000h
16277                     	;
16278  C914     07          			.byte	007h
16279                     	;
16280  C915     FF          			.byte	0ffh
16281                     	;
16282  C916     FF          			.byte	0ffh
16283                     	;
16284  C917     FF          			.byte	0ffh
16285                     	;
16286  C918     FF          			.byte	0ffh
16287                     	;
16288  C919     E0          			.byte	0e0h
16289                     	;
16290  C91A     00          			.byte	000h
16291                     	;
16292  C91B     00          			.byte	000h
16293                     	;
16294  C91C     00          			.byte	000h
16295                     	;
16296  C91D     01          			.byte	001h
16297                     	;
16298  C91E     FE          			.byte	0feh
16299                     	;
16300  C91F     00          			.byte	000h
16301                     	;
16302  C920     00          			.byte	000h
16303                     	;
16304  C921     7E          			.byte	07eh
16305                     	;
16306  C922     3F          			.byte	03fh
16307                     	;
16308  C923     20          			.byte	020h
16309                     	;
16310  C924     00          			.byte	000h
16311                     	;
16312  C925     80          			.byte	080h
16313                     	;
16314  C926     00          			.byte	000h
16315                     	;
16316  C927     00          			.byte	000h
16317                     	;
16318  C928     37          			.byte	037h
16319                     	;
16320  C929     FF          			.byte	0ffh
16321                     	;
16322  C92A     FE          			.byte	0feh
16323                     	;
  Sun Jan 12 14:21:22 2003                                                                                               Page  306




16324  C92B     07          			.byte	007h
16325                     	;
16326  C92C     FB          			.byte	0fbh
16327                     	;
16328  C92D     FC          			.byte	0fch
16329                     	;
16330  C92E     00          			.byte	000h
16331                     	;
16332  C92F     00          			.byte	000h
16333                     	;
16334  C930     00          			.byte	000h
16335                     	;
16336  C931     01          			.byte	001h
16337                     	;
16338  C932     FE          			.byte	0feh
16339                     	;
16340  C933     00          			.byte	000h
16341                     	;
16342  C934     00          			.byte	000h
16343                     	;
16344  C935     40          			.byte	040h
16345                     	;
16346  C936     01          			.byte	001h
16347                     	;
16348  C937     20          			.byte	020h
16349                     	;
16350  C938     00          			.byte	000h
16351                     	;
16352  C939     80          			.byte	080h
16353                     	;
16354  C93A     00          			.byte	000h
16355                     	;
16356  C93B     00          			.byte	000h
16357                     	;
16358  C93C     7B          			.byte	07bh
16359                     	;
16360  C93D     7F          			.byte	07fh
16361                     	;
16362  C93E     FF          			.byte	0ffh
16363                     	;
16364  C93F     FF          			.byte	0ffh
16365                     	;
16366  C940     FF          			.byte	0ffh
16367                     	;
16368  C941     FC          			.byte	0fch
16369                     	;
16370  C942     00          			.byte	000h
16371                     	;
16372  C943     00          			.byte	000h
16373                     	;
16374  C944     00          			.byte	000h
16375                     	;
16376  C945     0D          			.byte	00dh
16377                     	;
16378  C946     FE          			.byte	0feh
16379                     	;
16380  C947     00          			.byte	000h
  Sun Jan 12 14:21:22 2003                                                                                               Page  307




16381                     	;
16382  C948     00          			.byte	000h
16383                     	;
16384  C949     40          			.byte	040h
16385                     	;
16386  C94A     01          			.byte	001h
16387                     	;
16388  C94B     3F          			.byte	03fh
16389                     	;
16390  C94C     9F          			.byte	09fh
16391                     	;
16392  C94D     80          			.byte	080h
16393                     	;
16394  C94E     00          			.byte	000h
16395                     	;
16396  C94F     00          			.byte	000h
16397                     	;
16398  C950     7F          			.byte	07fh
16399                     	;
16400  C951     FF          			.byte	0ffh
16401                     	;
16402  C952     FF          			.byte	0ffh
16403                     	;
16404  C953     FF          			.byte	0ffh
16405                     	;
16406  C954     FF          			.byte	0ffh
16407                     	;
16408  C955     F8          			.byte	0f8h
16409                     	;
16410  C956     00          			.byte	000h
16411                     	;
16412  C957     00          			.byte	000h
16413                     	;
16414  C958     00          			.byte	000h
16415                     	;
16416  C959     FF          			.byte	0ffh
16417                     	;
16418  C95A     FE          			.byte	0feh
16419                     	;
16420  C95B     00          			.byte	000h
16421                     	;
16422  C95C     00          			.byte	000h
16423                     	;
16424  C95D     7C          			.byte	07ch
16425                     	;
16426  C95E     1F          			.byte	01fh
16427                     	;
16428  C95F     00          			.byte	000h
16429                     	;
16430  C960     90          			.byte	090h
16431                     	;
16432  C961     00          			.byte	000h
16433                     	;
16434  C962     00          			.byte	000h
16435                     	;
16436  C963     00          			.byte	000h
16437                     	;
  Sun Jan 12 14:21:22 2003                                                                                               Page  308




16438  C964     FF          			.byte	0ffh
16439                     	;
16440  C965     FF          			.byte	0ffh
16441                     	;
16442  C966     FF          			.byte	0ffh
16443                     	;
16444  C967     FF          			.byte	0ffh
16445                     	;
16446  C968     FF          			.byte	0ffh
16447                     	;
16448  C969     FF          			.byte	0ffh
16449                     	;
16450  C96A     80          			.byte	080h
16451                     	;
16452  C96B     00          			.byte	000h
16453                     	;
16454  C96C     00          			.byte	000h
16455                     	;
16456  C96D     FF          			.byte	0ffh
16457                     	;
16458  C96E     FE          			.byte	0feh
16459                     	;
16460  C96F     00          			.byte	000h
16461                     	;
16462  C970     00          			.byte	000h
16463                     	;
16464  C971     10          			.byte	010h
16465                     	;
16466  C972     0C          			.byte	00ch
16467                     	;
16468  C973     03          			.byte	003h
16469                     	;
16470  C974     90          			.byte	090h
16471                     	;
16472  C975     00          			.byte	000h
16473                     	;
16474  C976     00          			.byte	000h
16475                     	;
16476  C977     03          			.byte	003h
16477                     	;
16478  C978     FF          			.byte	0ffh
16479                     	;
16480  C979     FF          			.byte	0ffh
16481                     	;
16482  C97A     FF          			.byte	0ffh
16483                     	;
16484  C97B     FF          			.byte	0ffh
16485                     	;
16486  C97C     FF          			.byte	0ffh
16487                     	;
16488  C97D     FF          			.byte	0ffh
16489                     	;
16490  C97E     80          			.byte	080h
16491                     	;
16492  C97F     00          			.byte	000h
16493                     	;
16494  C980     01          			.byte	001h
  Sun Jan 12 14:21:22 2003                                                                                               Page  309




16495                     	;
16496  C981     FF          			.byte	0ffh
16497                     	;
16498  C982     FE          			.byte	0feh
16499                     	;
16500  C983     00          			.byte	000h
16501                     	;
16502  C984     00          			.byte	000h
16503                     	;
16504  C985     60          			.byte	060h
16505                     	;
16506  C986     83          			.byte	083h
16507                     	;
16508  C987     04          			.byte	004h
16509                     	;
16510  C988     10          			.byte	010h
16511                     	;
16512  C989     00          			.byte	000h
16513                     	;
16514  C98A     00          			.byte	000h
16515                     	;
16516  C98B     03          			.byte	003h
16517                     	;
16518  C98C     FF          			.byte	0ffh
16519                     	;
16520  C98D     FF          			.byte	0ffh
16521                     	;
16522  C98E     FF          			.byte	0ffh
16523                     	;
16524  C98F     FF          			.byte	0ffh
16525                     	;
16526  C990     FF          			.byte	0ffh
16527                     	;
16528  C991     FC          			.byte	0fch
16529                     	;
16530  C992     00          			.byte	000h
16531                     	;
16532  C993     00          			.byte	000h
16533                     	;
16534  C994     01          			.byte	001h
16535                     	;
16536  C995     FF          			.byte	0ffh
16537                     	;
16538  C996     FE          			.byte	0feh
16539                     	;
16540  C997     00          			.byte	000h
16541                     	;
16542  C998     00          			.byte	000h
16543                     	;
16544  C999     41          			.byte	041h
16545                     	;
16546  C99A     41          			.byte	041h
16547                     	;
16548  C99B     04          			.byte	004h
16549                     	;
16550  C99C     10          			.byte	010h
16551                     	;
  Sun Jan 12 14:21:22 2003                                                                                               Page  310




16552  C99D     00          			.byte	000h
16553                     	;
16554  C99E     00          			.byte	000h
16555                     	;
16556  C99F     00          			.byte	000h
16557                     	;
16558  C9A0     7F          			.byte	07fh
16559                     	;
16560  C9A1     FF          			.byte	0ffh
16561                     	;
16562  C9A2     FF          			.byte	0ffh
16563                     	;
16564  C9A3     FF          			.byte	0ffh
16565                     	;
16566  C9A4     FF          			.byte	0ffh
16567                     	;
16568  C9A5     F8          			.byte	0f8h
16569                     	;
16570  C9A6     00          			.byte	000h
16571                     	;
16572  C9A7     00          			.byte	000h
16573                     	;
16574  C9A8     0F          			.byte	00fh
16575                     	;
16576  C9A9     FF          			.byte	0ffh
16577                     	;
16578  C9AA     FE          			.byte	0feh
16579                     	;
16580  C9AB     00          			.byte	000h
16581                     	;
16582  C9AC     00          			.byte	000h
16583                     	;
16584  C9AD     46          			.byte	046h
16585                     	;
16586  C9AE     31          			.byte	031h
16587                     	;
16588  C9AF     04          			.byte	004h
16589                     	;
16590  C9B0     10          			.byte	010h
16591                     	;
16592  C9B1     00          			.byte	000h
16593                     	;
16594  C9B2     00          			.byte	000h
16595                     	;
16596  C9B3     00          			.byte	000h
16597                     	;
16598  C9B4     7F          			.byte	07fh
16599                     	;
16600  C9B5     FF          			.byte	0ffh
16601                     	;
16602  C9B6     FF          			.byte	0ffh
16603                     	;
16604  C9B7     FF          			.byte	0ffh
16605                     	;
16606  C9B8     FF          			.byte	0ffh
16607                     	;
16608  C9B9     F8          			.byte	0f8h
  Sun Jan 12 14:21:22 2003                                                                                               Page  311




16609                     	;
16610  C9BA     00          			.byte	000h
16611                     	;
16612  C9BB     00          			.byte	000h
16613                     	;
16614  C9BC     0F          			.byte	00fh
16615                     	;
16616  C9BD     FF          			.byte	0ffh
16617                     	;
16618  C9BE     FE          			.byte	0feh
16619                     	;
16620  C9BF     00          			.byte	000h
16621                     	;
16622  C9C0     00          			.byte	000h
16623                     	;
16624  C9C1     38          			.byte	038h
16625                     	;
16626  C9C2     0E          			.byte	00eh
16627                     	;
16628  C9C3     07          			.byte	007h
16629                     	;
16630  C9C4     E0          			.byte	0e0h
16631                     	;
16632  C9C5     00          			.byte	000h
16633                     	;
16634  C9C6     00          			.byte	000h
16635                     	;
16636  C9C7     00          			.byte	000h
16637                     	;
16638  C9C8     0F          			.byte	00fh
16639                     	;
16640  C9C9     FF          			.byte	0ffh
16641                     	;
16642  C9CA     FF          			.byte	0ffh
16643                     	;
16644  C9CB     FF          			.byte	0ffh
16645                     	;
16646  C9CC     FF          			.byte	0ffh
16647                     	;
16648  C9CD     F8          			.byte	0f8h
16649                     	;
16650  C9CE     00          			.byte	000h
16651                     	;
16652  C9CF     00          			.byte	000h
16653                     	;
16654  C9D0     0F          			.byte	00fh
16655                     	;
16656  C9D1     FF          			.byte	0ffh
16657                     	;
16658  C9D2     FE          			.byte	0feh
16659                     	;
16660  C9D3     00          			.byte	000h
16661                     	;
16662  C9D4     00          			.byte	000h
16663                     	;
16664  C9D5     00          			.byte	000h
16665                     	;
  Sun Jan 12 14:21:22 2003                                                                                               Page  312




16666  C9D6     00          			.byte	000h
16667                     	;
16668  C9D7     00          			.byte	000h
16669                     	;
16670  C9D8     00          			.byte	000h
16671                     	;
16672  C9D9     00          			.byte	000h
16673                     	;
16674  C9DA     00          			.byte	000h
16675                     	;
16676  C9DB     00          			.byte	000h
16677                     	;
16678  C9DC     3F          			.byte	03fh
16679                     	;
16680  C9DD     FF          			.byte	0ffh
16681                     	;
16682  C9DE     FF          			.byte	0ffh
16683                     	;
16684  C9DF     FF          			.byte	0ffh
16685                     	;
16686  C9E0     FF          			.byte	0ffh
16687                     	;
16688  C9E1     E0          			.byte	0e0h
16689                     	;
16690  C9E2     00          			.byte	000h
16691                     	;
16692  C9E3     00          			.byte	000h
16693                     	;
16694  C9E4     0F          			.byte	00fh
16695                     	;
16696  C9E5     FF          			.byte	0ffh
16697                     	;
16698  C9E6     FE          			.byte	0feh
16699                     	;
16700  C9E7     00          			.byte	000h
16701                     	;
16702  C9E8     00          			.byte	000h
16703                     	;
16704  C9E9     00          			.byte	000h
16705                     	;
16706  C9EA     00          			.byte	000h
16707                     	;
16708  C9EB     00          			.byte	000h
16709                     	;
16710  C9EC     00          			.byte	000h
16711                     	;
16712  C9ED     00          			.byte	000h
16713                     	;
16714  C9EE     00          			.byte	000h
16715                     	;
16716  C9EF     00          			.byte	000h
16717                     	;
16718  C9F0     7F          			.byte	07fh
16719                     	;
16720  C9F1     FF          			.byte	0ffh
16721                     	;
16722  C9F2     FF          			.byte	0ffh
  Sun Jan 12 14:21:22 2003                                                                                               Page  313




16723                     	;
16724  C9F3     FF          			.byte	0ffh
16725                     	;
16726  C9F4     FF          			.byte	0ffh
16727                     	;
16728  C9F5     FC          			.byte	0fch
16729                     	;
16730  C9F6     00          			.byte	000h
16731                     	;
16732  C9F7     00          			.byte	000h
16733                     	;
16734  C9F8     0F          			.byte	00fh
16735                     	;
16736  C9F9     FF          			.byte	0ffh
16737                     	;
16738  C9FA     FE          			.byte	0feh
16739                     	;
16740  C9FB     00          			.byte	000h
16741                     	;
16742  C9FC     00          			.byte	000h
16743                     	;
16744  C9FD     00          			.byte	000h
16745                     	;
16746  C9FE     00          			.byte	000h
16747                     	;
16748  C9FF     00          			.byte	000h
16749                     	;
16750  CA00     00          			.byte	000h
16751                     	;
16752  CA01     00          			.byte	000h
16753                     	;
16754  CA02     00          			.byte	000h
16755                     	;
16756  CA03     00          			.byte	000h
16757                     	;
16758  CA04     7F          			.byte	07fh
16759                     	;
16760  CA05     FF          			.byte	0ffh
16761                     	;
16762  CA06     FF          			.byte	0ffh
16763                     	;
16764  CA07     FF          			.byte	0ffh
16765                     	;
16766  CA08     FF          			.byte	0ffh
16767                     	;
16768  CA09     FC          			.byte	0fch
16769                     	;
16770  CA0A     01          			.byte	001h
16771                     	;
16772  CA0B     F8          			.byte	0f8h
16773                     	;
16774  CA0C     0F          			.byte	00fh
16775                     	;
16776  CA0D     FF          			.byte	0ffh
16777                     	;
16778  CA0E     FE          			.byte	0feh
16779                     	;
  Sun Jan 12 14:21:22 2003                                                                                               Page  314




16780  CA0F     00          			.byte	000h
16781                     	;
16782  CA10     00          			.byte	000h
16783                     	;
16784  CA11     00          			.byte	000h
16785                     	;
16786  CA12     00          			.byte	000h
16787                     	;
16788  CA13     00          			.byte	000h
16789                     	;
16790  CA14     00          			.byte	000h
16791                     	;
16792  CA15     00          			.byte	000h
16793                     	;
16794  CA16     00          			.byte	000h
16795                     	;
16796  CA17     00          			.byte	000h
16797                     	;
16798  CA18     0F          			.byte	00fh
16799                     	;
16800  CA19     FF          			.byte	0ffh
16801                     	;
16802  CA1A     FF          			.byte	0ffh
16803                     	;
16804  CA1B     FF          			.byte	0ffh
16805                     	;
16806  CA1C     FF          			.byte	0ffh
16807                     	;
16808  CA1D     FE          			.byte	0feh
16809                     	;
16810  CA1E     01          			.byte	001h
16811                     	;
16812  CA1F     F8          			.byte	0f8h
16813                     	;
16814  CA20     1F          			.byte	01fh
16815                     	;
16816  CA21     FF          			.byte	0ffh
16817                     	;
16818  CA22     FE          			.byte	0feh
16819                     	;
16820  CA23     00          			.byte	000h
16821                     	;
16822  CA24     00          			.byte	000h
16823                     	;
16824  CA25     00          			.byte	000h
16825                     	;
16826  CA26     00          			.byte	000h
16827                     	;
16828  CA27     00          			.byte	000h
16829                     	;
16830  CA28     00          			.byte	000h
16831                     	;
16832  CA29     00          			.byte	000h
16833                     	;
16834  CA2A     00          			.byte	000h
16835                     	;
16836  CA2B     00          			.byte	000h
  Sun Jan 12 14:21:22 2003                                                                                               Page  315




16837                     	;
16838  CA2C     7F          			.byte	07fh
16839                     	;
16840  CA2D     FF          			.byte	0ffh
16841                     	;
16842  CA2E     FF          			.byte	0ffh
16843                     	;
16844  CA2F     FF          			.byte	0ffh
16845                     	;
16846  CA30     FF          			.byte	0ffh
16847                     	;
16848  CA31     FF          			.byte	0ffh
16849                     	;
16850  CA32     80          			.byte	080h
16851                     	;
16852  CA33     78          			.byte	078h
16853                     	;
16854  CA34     1F          			.byte	01fh
16855                     	;
16856  CA35     FF          			.byte	0ffh
16857                     	;
16858  CA36     FE          			.byte	0feh
16859                     	;
16860  CA37     00          			.byte	000h
16861                     	;
16862  CA38     00          			.byte	000h
16863                     	;
16864  CA39     00          			.byte	000h
16865                     	;
16866  CA3A     00          			.byte	000h
16867                     	;
16868  CA3B     00          			.byte	000h
16869                     	;
16870  CA3C     00          			.byte	000h
16871                     	;
16872  CA3D     00          			.byte	000h
16873                     	;
16874  CA3E     00          			.byte	000h
16875                     	;
16876  CA3F     00          			.byte	000h
16877                     	;
16878  CA40     FF          			.byte	0ffh
16879                     	;
16880  CA41     FF          			.byte	0ffh
16881                     	;
16882  CA42     FF          			.byte	0ffh
16883                     	;
16884  CA43     FF          			.byte	0ffh
16885                     	;
16886  CA44     FF          			.byte	0ffh
16887                     	;
16888  CA45     FF          			.byte	0ffh
16889                     	;
16890  CA46     80          			.byte	080h
16891                     	;
16892  CA47     7E          			.byte	07eh
16893                     	;
  Sun Jan 12 14:21:22 2003                                                                                               Page  316




16894  CA48     3F          			.byte	03fh
16895                     	;
16896  CA49     FF          			.byte	0ffh
16897                     	;
16898  CA4A     FE          			.byte	0feh
16899                     	;
16900  CA4B     00          			.byte	000h
16901                     	;
16902  CA4C     00          			.byte	000h
16903                     	;
16904  CA4D     00          			.byte	000h
16905                     	;
16906  CA4E     00          			.byte	000h
16907                     	;
16908  CA4F     00          			.byte	000h
16909                     	;
16910  CA50     00          			.byte	000h
16911                     	;
16912  CA51     00          			.byte	000h
16913                     	;
16914  CA52     00          			.byte	000h
16915                     	;
16916  CA53     0F          			.byte	00fh
16917                     	;
16918  CA54     FF          			.byte	0ffh
16919                     	;
16920  CA55     FF          			.byte	0ffh
16921                     	;
16922  CA56     FF          			.byte	0ffh
16923                     	;
16924  CA57     FF          			.byte	0ffh
16925                     	;
16926  CA58     BF          			.byte	0bfh
16927                     	;
16928  CA59     FF          			.byte	0ffh
16929                     	;
16930  CA5A     9D          			.byte	09dh
16931                     	;
16932  CA5B     FE          			.byte	0feh
16933                     	;
16934  CA5C     FF          			.byte	0ffh
16935                     	;
16936  CA5D     FF          			.byte	0ffh
16937                     	;
16938  CA5E     FE          			.byte	0feh
16939                     	;
16940  CA5F     00          			.byte	000h
16941                     	;
16942  CA60     00          			.byte	000h
16943                     	;
16944  CA61     00          			.byte	000h
16945                     	;
16946  CA62     00          			.byte	000h
16947                     	;
16948  CA63     00          			.byte	000h
16949                     	;
16950  CA64     00          			.byte	000h
  Sun Jan 12 14:21:22 2003                                                                                               Page  317




16951                     	;
16952  CA65     00          			.byte	000h
16953                     	;
16954  CA66     00          			.byte	000h
16955                     	;
16956  CA67     0F          			.byte	00fh
16957                     	;
16958  CA68     FF          			.byte	0ffh
16959                     	;
16960  CA69     FF          			.byte	0ffh
16961                     	;
16962  CA6A     FF          			.byte	0ffh
16963                     	;
16964  CA6B     FF          			.byte	0ffh
16965                     	;
16966  CA6C     FF          			.byte	0ffh
16967                     	;
16968  CA6D     FF          			.byte	0ffh
16969                     	;
16970  CA6E     FF          			.byte	0ffh
16971                     	;
16972  CA6F     FE          			.byte	0feh
16973                     	;
16974  CA70     1F          			.byte	01fh
16975                     	;
16976  CA71     FF          			.byte	0ffh
16977                     	;
16978  CA72     FE          			.byte	0feh
16979                     	;
16980  CA73     00          			.byte	000h
16981                     	;
16982  CA74     00          			.byte	000h
16983                     	;
16984  CA75     00          			.byte	000h
16985                     	;
16986  CA76     00          			.byte	000h
16987                     	;
16988  CA77     00          			.byte	000h
16989                     	;
16990  CA78     00          			.byte	000h
16991                     	;
16992  CA79     00          			.byte	000h
16993                     	;
16994  CA7A     00          			.byte	000h
16995                     	;
16996  CA7B     FF          			.byte	0ffh
16997                     	;
16998  CA7C     FF          			.byte	0ffh
16999                     	;
17000  CA7D     FF          			.byte	0ffh
17001                     	;
17002  CA7E     FF          			.byte	0ffh
17003                     	;
17004  CA7F     FF          			.byte	0ffh
17005                     	;
17006  CA80     FF          			.byte	0ffh
17007                     	;
  Sun Jan 12 14:21:22 2003                                                                                               Page  318




17008  CA81     FF          			.byte	0ffh
17009                     	;
17010  CA82     FF          			.byte	0ffh
17011                     	;
17012  CA83     FF          			.byte	0ffh
17013                     	;
17014  CA84     3F          			.byte	03fh
17015                     	;
17016  CA85     FF          			.byte	0ffh
17017                     	;
17018  CA86     FE          			.byte	0feh
17019                     	;
17020  CA87     00          			.byte	000h
17021                     	;
17022  CA88     00          			.byte	000h
17023                     	;
17024  CA89     00          			.byte	000h
17025                     	;
17026  CA8A     00          			.byte	000h
17027                     	;
17028  CA8B     04          			.byte	004h
17029                     	;
17030  CA8C     38          			.byte	038h
17031                     	;
17032  CA8D     00          			.byte	000h
17033                     	;
17034  CA8E     03          			.byte	003h
17035                     	;
17036  CA8F     FF          			.byte	0ffh
17037                     	;
17038  CA90     FF          			.byte	0ffh
17039                     	;
17040  CA91     FF          			.byte	0ffh
17041                     	;
17042  CA92     FF          			.byte	0ffh
17043                     	;
17044  CA93     FF          			.byte	0ffh
17045                     	;
17046  CA94     FF          			.byte	0ffh
17047                     	;
17048  CA95     FF          			.byte	0ffh
17049                     	;
17050  CA96     FF          			.byte	0ffh
17051                     	;
17052  CA97     FF          			.byte	0ffh
17053                     	;
17054  CA98     FF          			.byte	0ffh
17055                     	;
17056  CA99     FF          			.byte	0ffh
17057                     	;
17058  CA9A     FE          			.byte	0feh
17059                     	;
17060  CA9B     00          			.byte	000h
17061                     	;
17062  CA9C     00          			.byte	000h
17063                     	;
17064  CA9D     00          			.byte	000h
  Sun Jan 12 14:21:22 2003                                                                                               Page  319




17065                     	;
17066  CA9E     00          			.byte	000h
17067                     	;
17068  CA9F     0F          			.byte	00fh
17069                     	;
17070  CAA0     FC          			.byte	0fch
17071                     	;
17072  CAA1     78          			.byte	078h
17073                     	;
17074  CAA2     03          			.byte	003h
17075                     	;
17076  CAA3     FB          			.byte	0fbh
17077                     	;
17078  CAA4     FF          			.byte	0ffh
17079                     	;
17080  CAA5     FF          			.byte	0ffh
17081                     	;
17082  CAA6     FF          			.byte	0ffh
17083                     	;
17084  CAA7     FF          			.byte	0ffh
17085                     	;
17086  CAA8     FF          			.byte	0ffh
17087                     	;
17088  CAA9     FF          			.byte	0ffh
17089                     	;
17090  CAAA     FF          			.byte	0ffh
17091                     	;
17092  CAAB     FF          			.byte	0ffh
17093                     	;
17094  CAAC     FF          			.byte	0ffh
17095                     	;
17096  CAAD     FF          			.byte	0ffh
17097                     	;
17098  CAAE     FE          			.byte	0feh
17099                     	;
17100  CAAF     00          			.byte	000h
17101                     	;
17102  CAB0     00          			.byte	000h
17103                     	;
17104  CAB1     00          			.byte	000h
17105                     	;
17106  CAB2     00          			.byte	000h
17107                     	;
17108  CAB3     0F          			.byte	00fh
17109                     	;
17110  CAB4     FB          			.byte	0fbh
17111                     	;
17112  CAB5     FF          			.byte	0ffh
17113                     	;
17114  CAB6     C7          			.byte	0c7h
17115                     	;
17116  CAB7     FF          			.byte	0ffh
17117                     	;
17118  CAB8     FF          			.byte	0ffh
17119                     	;
17120  CAB9     FF          			.byte	0ffh
17121                     	;
  Sun Jan 12 14:21:22 2003                                                                                               Page  320




17122  CABA     FF          			.byte	0ffh
17123                     	;
17124  CABB     FF          			.byte	0ffh
17125                     	;
17126  CABC     FF          			.byte	0ffh
17127                     	;
17128  CABD     FF          			.byte	0ffh
17129                     	;
17130  CABE     FF          			.byte	0ffh
17131                     	;
17132  CABF     FF          			.byte	0ffh
17133                     	;
17134  CAC0     FF          			.byte	0ffh
17135                     	;
17136  CAC1     FF          			.byte	0ffh
17137                     	;
17138  CAC2     FE          			.byte	0feh
17139                     	;
17140  CAC3     00          			.byte	000h
17141                     	;
17142  CAC4     00          			.byte	000h
17143                     	;
17144  CAC5     00          			.byte	000h
17145                     	;
17146  CAC6     00          			.byte	000h
17147                     	;
17148  CAC7     0F          			.byte	00fh
17149                     	;
17150  CAC8     FF          			.byte	0ffh
17151                     	;
17152  CAC9     FF          			.byte	0ffh
17153                     	;
17154  CACA     CF          			.byte	0cfh
17155                     	;
17156  CACB     FF          			.byte	0ffh
17157                     	;
17158  CACC     FF          			.byte	0ffh
17159                     	;
17160  CACD     FF          			.byte	0ffh
17161                     	;
17162  CACE     FF          			.byte	0ffh
17163                     	;
17164  CACF     FF          			.byte	0ffh
17165                     	;
17166  CAD0     FF          			.byte	0ffh
17167                     	;
17168  CAD1     FF          			.byte	0ffh
17169                     	;
17170  CAD2     FF          			.byte	0ffh
17171                     	;
17172  CAD3     FF          			.byte	0ffh
17173                     	;
17174  CAD4     FF          			.byte	0ffh
17175                     	;
17176  CAD5     FF          			.byte	0ffh
17177                     	;
17178  CAD6     FE          			.byte	0feh
  Sun Jan 12 14:21:22 2003                                                                                               Page  321




17179                     	;
17180  CAD7     00          			.byte	000h
17181                     	;
17182  CAD8     00          			.byte	000h
17183                     	;
17184  CAD9     00          			.byte	000h
17185                     	;
17186  CADA     00          			.byte	000h
17187                     	;
17188  CADB     7F          			.byte	07fh
17189                     	;
17190  CADC     FF          			.byte	0ffh
17191                     	;
17192  CADD     FF          			.byte	0ffh
17193                     	;
17194  CADE     FF          			.byte	0ffh
17195                     	;
17196  CADF     FF          			.byte	0ffh
17197                     	;
17198  CAE0     FF          			.byte	0ffh
17199                     	;
17200  CAE1     FF          			.byte	0ffh
17201                     	;
17202  CAE2     FF          			.byte	0ffh
17203                     	;
17204  CAE3     FF          			.byte	0ffh
17205                     	;
17206  CAE4     FF          			.byte	0ffh
17207                     	;
17208  CAE5     FF          			.byte	0ffh
17209                     	;
17210  CAE6     FF          			.byte	0ffh
17211                     	;
17212  CAE7     FF          			.byte	0ffh
17213                     	;
17214  CAE8     FF          			.byte	0ffh
17215                     	;
17216  CAE9     FF          			.byte	0ffh
17217                     	;
17218  CAEA     FE          			.byte	0feh
17219                     	;
17220  CAEB     00          			.byte	000h
17221                     	;
17222  CAEC     00          			.byte	000h
17223                     	;
17224  CAED     00          			.byte	000h
17225                     	;
17226  CAEE     00          			.byte	000h
17227                     	;
17228  CAEF     7F          			.byte	07fh
17229                     	;
17230  CAF0     FF          			.byte	0ffh
17231                     	;
17232  CAF1     FF          			.byte	0ffh
17233                     	;
17234  CAF2     FF          			.byte	0ffh
17235                     	;
  Sun Jan 12 14:21:22 2003                                                                                               Page  322




17236  CAF3     FF          			.byte	0ffh
17237                     	;
17238  CAF4     FF          			.byte	0ffh
17239                     	;
17240  CAF5     FF          			.byte	0ffh
17241                     	;
17242  CAF6     FF          			.byte	0ffh
17243                     	;
17244  CAF7     FF          			.byte	0ffh
17245                     	;
17246  CAF8     FF          			.byte	0ffh
17247                     	;
17248  CAF9     FF          			.byte	0ffh
17249                     	;
17250  CAFA     FF          			.byte	0ffh
17251                     	;
17252  CAFB     FF          			.byte	0ffh
17253                     	;
17254  CAFC     FF          			.byte	0ffh
17255                     	;
17256  CAFD     FF          			.byte	0ffh
17257                     	;
17258  CAFE     FE          			.byte	0feh
17259                     	;
17260  CAFF     00          			.byte	000h
17261                     	;
17262  CB00     00          			.byte	000h
17263                     	;
17264  CB01     00          			.byte	000h
17265                     	;
17266  CB02     03          			.byte	003h
17267                     	;
17268  CB03     FF          			.byte	0ffh
17269                     	;
17270  CB04     FF          			.byte	0ffh
17271                     	;
17272  CB05     FF          			.byte	0ffh
17273                     	;
17274  CB06     FF          			.byte	0ffh
17275                     	;
17276  CB07     FF          			.byte	0ffh
17277                     	;
17278  CB08     FF          			.byte	0ffh
17279                     	;
17280  CB09     FF          			.byte	0ffh
17281                     	;
17282  CB0A     FF          			.byte	0ffh
17283                     	;
17284  CB0B     FF          			.byte	0ffh
17285                     	;
17286  CB0C     FF          			.byte	0ffh
17287                     	;
17288  CB0D     FF          			.byte	0ffh
17289                     	;
17290  CB0E     FF          			.byte	0ffh
17291                     	;
17292  CB0F     FF          			.byte	0ffh
  Sun Jan 12 14:21:22 2003                                                                                               Page  323




17293                     	;
17294  CB10     FF          			.byte	0ffh
17295                     	;
17296  CB11     FF          			.byte	0ffh
17297                     	;
17298  CB12     FE          			.byte	0feh
17299                     	;
17300  CB13     00          			.byte	000h
17301                     	;
17302  CB14     00          			.byte	000h
17303                     	;
17304  CB15     00          			.byte	000h
17305                     	;
17306  CB16     07          			.byte	007h
17307                     	;
17308  CB17     FF          			.byte	0ffh
17309                     	;
17310  CB18     FF          			.byte	0ffh
17311                     	;
17312  CB19     FF          			.byte	0ffh
17313                     	;
17314  CB1A     FF          			.byte	0ffh
17315                     	;
17316  CB1B     FF          			.byte	0ffh
17317                     	;
17318  CB1C     FF          			.byte	0ffh
17319                     	;
17320  CB1D     FF          			.byte	0ffh
17321                     	;
17322  CB1E     FF          			.byte	0ffh
17323                     	;
17324  CB1F     FF          			.byte	0ffh
17325                     	;
17326  CB20     FF          			.byte	0ffh
17327                     	;
17328  CB21     FF          			.byte	0ffh
17329                     	;
17330  CB22     FF          			.byte	0ffh
17331                     	;
17332  CB23     FF          			.byte	0ffh
17333                     	;
17334  CB24     FF          			.byte	0ffh
17335                     	;
17336  CB25     FF          			.byte	0ffh
17337                     	;
17338  CB26     FE          			.byte	0feh
17339                     	;
17340  CB27     00          			.byte	000h
17341                     	;
17342  CB28     00          			.byte	000h
17343                     	;
17344  CB29     00          			.byte	000h
17345                     	;
17346  CB2A     0F          			.byte	00fh
17347                     	;
17348  CB2B     FF          			.byte	0ffh
17349                     	;
  Sun Jan 12 14:21:22 2003                                                                                               Page  324




17350  CB2C     FF          			.byte	0ffh
17351                     	;
17352  CB2D     FF          			.byte	0ffh
17353                     	;
17354  CB2E     FF          			.byte	0ffh
17355                     	;
17356  CB2F     FF          			.byte	0ffh
17357                     	;
17358  CB30     FF          			.byte	0ffh
17359                     	;
17360  CB31     FF          			.byte	0ffh
17361                     	;
17362  CB32     FF          			.byte	0ffh
17363                     	;
17364  CB33     FF          			.byte	0ffh
17365                     	;
17366  CB34     FF          			.byte	0ffh
17367                     	;
17368  CB35     FF          			.byte	0ffh
17369                     	;
17370  CB36     FF          			.byte	0ffh
17371                     	;
17372  CB37     FF          			.byte	0ffh
17373                     	;
17374  CB38     FF          			.byte	0ffh
17375                     	;
17376  CB39     FF          			.byte	0ffh
17377                     	;
17378  CB3A     FE          			.byte	0feh
17379                     	;
17380  CB3B     00          			.byte	000h
17381                     	;
17382  CB3C     1F          			.byte	01fh
17383                     	;
17384  CB3D     80          			.byte	080h
17385                     	;
17386  CB3E     0F          			.byte	00fh
17387                     	;
17388  CB3F     FF          			.byte	0ffh
17389                     	;
17390  CB40     FF          			.byte	0ffh
17391                     	;
17392  CB41     FF          			.byte	0ffh
17393                     	;
17394  CB42     FF          			.byte	0ffh
17395                     	;
17396  CB43     FF          			.byte	0ffh
17397                     	;
17398  CB44     FF          			.byte	0ffh
17399                     	;
17400  CB45     FF          			.byte	0ffh
17401                     	;
17402  CB46     FF          			.byte	0ffh
17403                     	;
17404  CB47     FF          			.byte	0ffh
17405                     	;
17406  CB48     FF          			.byte	0ffh
  Sun Jan 12 14:21:22 2003                                                                                               Page  325




17407                     	;
17408  CB49     FF          			.byte	0ffh
17409                     	;
17410  CB4A     FF          			.byte	0ffh
17411                     	;
17412  CB4B     FF          			.byte	0ffh
17413                     	;
17414  CB4C     FF          			.byte	0ffh
17415                     	;
17416  CB4D     FF          			.byte	0ffh
17417                     	;
17418  CB4E     FE          			.byte	0feh
17419                     	;
17420  CB4F     00          			.byte	000h
17421                     	;
17422  CB50     FF          			.byte	0ffh
17423                     	;
17424  CB51     86          			.byte	086h
17425                     	;
17426  CB52     1F          			.byte	01fh
17427                     	;
17428  CB53     FF          			.byte	0ffh
17429                     	;
17430  CB54     FF          			.byte	0ffh
17431                     	;
17432  CB55     FF          			.byte	0ffh
17433                     	;
17434  CB56     FF          			.byte	0ffh
17435                     	;
17436  CB57     FF          			.byte	0ffh
17437                     	;
17438  CB58     FF          			.byte	0ffh
17439                     	;
17440  CB59     FF          			.byte	0ffh
17441                     	;
17442  CB5A     FF          			.byte	0ffh
17443                     	;
17444  CB5B     FF          			.byte	0ffh
17445                     	;
17446  CB5C     FF          			.byte	0ffh
17447                     	;
17448  CB5D     FF          			.byte	0ffh
17449                     	;
17450  CB5E     FF          			.byte	0ffh
17451                     	;
17452  CB5F     FF          			.byte	0ffh
17453                     	;
17454  CB60     FF          			.byte	0ffh
17455                     	;
17456  CB61     FF          			.byte	0ffh
17457                     	;
17458  CB62     FE          			.byte	0feh
17459                     	;
17460  CB63     F0          			.byte	0f0h
17461                     	;
17462  CB64     FF          			.byte	0ffh
17463                     	;
  Sun Jan 12 14:21:22 2003                                                                                               Page  326




17464  CB65     9F          			.byte	09fh
17465                     	;
17466  CB66     FF          			.byte	0ffh
17467                     	;
17468  CB67     FF          			.byte	0ffh
17469                     	;
17470  CB68     FF          			.byte	0ffh
17471                     	;
17472  CB69     FF          			.byte	0ffh
17473                     	;
17474  CB6A     FF          			.byte	0ffh
17475                     	;
17476  CB6B     FF          			.byte	0ffh
17477                     	;
17478  CB6C     FF          			.byte	0ffh
17479                     	;
17480  CB6D     FF          			.byte	0ffh
17481                     	;
17482  CB6E     FF          			.byte	0ffh
17483                     	;
17484  CB6F     FF          			.byte	0ffh
17485                     	;
17486  CB70     FF          			.byte	0ffh
17487                     	;
17488  CB71     FF          			.byte	0ffh
17489                     	;
17490  CB72     FF          			.byte	0ffh
17491                     	;
17492  CB73     FF          			.byte	0ffh
17493                     	;
17494  CB74     FF          			.byte	0ffh
17495                     	;
17496  CB75     FF          			.byte	0ffh
17497                     	;
17498  CB76     FE          			.byte	0feh
17499                     	;
17500  CB77     FF          			.byte	0ffh
17501                     	;
17502  CB78     FF          			.byte	0ffh
17503                     	;
17504  CB79     FF          			.byte	0ffh
17505                     	;
17506  CB7A     FF          			.byte	0ffh
17507                     	;
17508  CB7B     FF          			.byte	0ffh
17509                     	;
17510  CB7C     FF          			.byte	0ffh
17511                     	;
17512  CB7D     FF          			.byte	0ffh
17513                     	;
17514  CB7E     FF          			.byte	0ffh
17515                     	;
17516  CB7F     FF          			.byte	0ffh
17517                     	;
17518  CB80     FF          			.byte	0ffh
17519                     	;
17520  CB81     FF          			.byte	0ffh
  Sun Jan 12 14:21:22 2003                                                                                               Page  327




17521                     	;
17522  CB82     FF          			.byte	0ffh
17523                     	;
17524  CB83     FF          			.byte	0ffh
17525                     	;
17526  CB84     FF          			.byte	0ffh
17527                     	;
17528  CB85     FF          			.byte	0ffh
17529                     	;
17530  CB86     FF          			.byte	0ffh
17531                     	;
17532  CB87     FF          			.byte	0ffh
17533                     	;
17534  CB88     FF          			.byte	0ffh
17535                     	;
17536  CB89     FF          			.byte	0ffh
17537                     	;
17538  CB8A     FE          			.byte	0feh
17539                     	;
17540                     			.attrib	_GameMTMainFace,1777,v,c,u,g,d,c,d,c,0780h,00h
17541                     	;
17542  CB8B     57          	_GameMTHappyEnd:	.byte	057h
17543                     	;
17544  CB8C     FE          			.byte	0feh
17545                     	;
17546  CB8D     77          			.byte	077h
17547                     	;
17548  CB8E     DF          			.byte	0dfh
17549                     	;
17550  CB8F     BD          			.byte	0bdh
17551                     	;
17552  CB90     F5          			.byte	0f5h
17553                     	;
17554  CB91     AF          			.byte	0afh
17555                     	;
17556  CB92     F8          			.byte	0f8h
17557                     	;
17558  CB93     BF          			.byte	0bfh
17559                     	;
17560  CB94     FD          			.byte	0fdh
17561                     	;
17562  CB95     DE          			.byte	0deh
17563                     	;
17564  CB96     BF          			.byte	0bfh
17565                     	;
17566  CB97     5E          			.byte	05eh
17567                     	;
17568  CB98     D5          			.byte	0d5h
17569                     	;
17570  CB99     6D          			.byte	06dh
17571                     	;
17572  CB9A     FB          			.byte	0fbh
17573                     	;
17574  CB9B     5F          			.byte	05fh
17575                     	;
17576  CB9C     FE          			.byte	0feh
17577                     	;
  Sun Jan 12 14:21:22 2003                                                                                               Page  328




17578  CB9D     FF          			.byte	0ffh
17579                     	;
17580  CB9E     B5          			.byte	0b5h
17581                     	;
17582  CB9F     5F          			.byte	05fh
17583                     	;
17584  CBA0     FF          			.byte	0ffh
17585                     	;
17586  CBA1     5F          			.byte	05fh
17587                     	;
17588  CBA2     7F          			.byte	07fh
17589                     	;
17590  CBA3     9E          			.byte	09eh
17591                     	;
17592  CBA4     AA          			.byte	0aah
17593                     	;
17594  CBA5     9E          			.byte	09eh
17595                     	;
17596  CBA6     DD          			.byte	0ddh
17597                     	;
17598  CBA7     DF          			.byte	0dfh
17599                     	;
17600  CBA8     7F          			.byte	07fh
17601                     	;
17602  CBA9     AB          			.byte	0abh
17603                     	;
17604  CBAA     6A          			.byte	06ah
17605                     	;
17606  CBAB     AF          			.byte	0afh
17607                     	;
17608  CBAC     FF          			.byte	0ffh
17609                     	;
17610  CBAD     FF          			.byte	0ffh
17611                     	;
17612  CBAE     5F          			.byte	05fh
17613                     	;
17614  CBAF     5B          			.byte	05bh
17615                     	;
17616  CBB0     CA          			.byte	0cah
17617                     	;
17618  CBB1     FD          			.byte	0fdh
17619                     	;
17620  CBB2     FF          			.byte	0ffh
17621                     	;
17622  CBB3     55          			.byte	055h
17623                     	;
17624  CBB4     CF          			.byte	0cfh
17625                     	;
17626  CBB5     57          			.byte	057h
17627                     	;
17628  CBB6     B4          			.byte	0b4h
17629                     	;
17630  CBB7     67          			.byte	067h
17631                     	;
17632  CBB8     FF          			.byte	0ffh
17633                     	;
17634  CBB9     FF          			.byte	0ffh
  Sun Jan 12 14:21:22 2003                                                                                               Page  329




17635                     	;
17636  CBBA     FF          			.byte	0ffh
17637                     	;
17638  CBBB     55          			.byte	055h
17639                     	;
17640  CBBC     F4          			.byte	0f4h
17641                     	;
17642  CBBD     EE          			.byte	0eeh
17643                     	;
17644  CBBE     BF          			.byte	0bfh
17645                     	;
17646  CBBF     AA          			.byte	0aah
17647                     	;
17648  CBC0     3D          			.byte	03dh
17649                     	;
17650  CBC1     5D          			.byte	05dh
17651                     	;
17652  CBC2     AA          			.byte	0aah
17653                     	;
17654  CBC3     EB          			.byte	0ebh
17655                     	;
17656  CBC4     FF          			.byte	0ffh
17657                     	;
17658  CBC5     FF          			.byte	0ffh
17659                     	;
17660  CBC6     EF          			.byte	0efh
17661                     	;
17662  CBC7     2B          			.byte	02bh
17663                     	;
17664  CBC8     EB          			.byte	0ebh
17665                     	;
17666  CBC9     DE          			.byte	0deh
17667                     	;
17668  CBCA     F7          			.byte	0f7h
17669                     	;
17670  CBCB     55          			.byte	055h
17671                     	;
17672  CBCC     FD          			.byte	0fdh
17673                     	;
17674  CBCD     7D          			.byte	07dh
17675                     	;
17676  CBCE     D5          			.byte	0d5h
17677                     	;
17678  CBCF     E3          			.byte	0e3h
17679                     	;
17680  CBD0     FF          			.byte	0ffh
17681                     	;
17682  CBD1     FF          			.byte	0ffh
17683                     	;
17684  CBD2     F5          			.byte	0f5h
17685                     	;
17686  CBD3     AA          			.byte	0aah
17687                     	;
17688  CBD4     EA          			.byte	0eah
17689                     	;
17690  CBD5     DF          			.byte	0dfh
17691                     	;
  Sun Jan 12 14:21:22 2003                                                                                               Page  330




17692  CBD6     BB          			.byte	0bbh
17693                     	;
17694  CBD7     54          			.byte	054h
17695                     	;
17696  CBD8     B5          			.byte	0b5h
17697                     	;
17698  CBD9     76          			.byte	076h
17699                     	;
17700  CBDA     DF          			.byte	0dfh
17701                     	;
17702  CBDB     75          			.byte	075h
17703                     	;
17704  CBDC     FF          			.byte	0ffh
17705                     	;
17706  CBDD     FF          			.byte	0ffh
17707                     	;
17708  CBDE     F5          			.byte	0f5h
17709                     	;
17710  CBDF     55          			.byte	055h
17711                     	;
17712  CBE0     EA          			.byte	0eah
17713                     	;
17714  CBE1     BB          			.byte	0bbh
17715                     	;
17716  CBE2     BC          			.byte	0bch
17717                     	;
17718  CBE3     8A          			.byte	08ah
17719                     	;
17720  CBE4     4A          			.byte	04ah
17721                     	;
17722  CBE5     6C          			.byte	06ch
17723                     	;
17724  CBE6     FE          			.byte	0feh
17725                     	;
17726  CBE7     E8          			.byte	0e8h
17727                     	;
17728  CBE8     FF          			.byte	0ffh
17729                     	;
17730  CBE9     FF          			.byte	0ffh
17731                     	;
17732  CBEA     FD          			.byte	0fdh
17733                     	;
17734  CBEB     AA          			.byte	0aah
17735                     	;
17736  CBEC     D5          			.byte	0d5h
17737                     	;
17738  CBED     7B          			.byte	07bh
17739                     	;
17740  CBEE     DF          			.byte	0dfh
17741                     	;
17742  CBEF     00          			.byte	000h
17743                     	;
17744  CBF0     94          			.byte	094h
17745                     	;
17746  CBF1     AF          			.byte	0afh
17747                     	;
17748  CBF2     BE          			.byte	0beh
  Sun Jan 12 14:21:22 2003                                                                                               Page  331




17749                     	;
17750  CBF3     F5          			.byte	0f5h
17751                     	;
17752  CBF4     7F          			.byte	07fh
17753                     	;
17754  CBF5     FF          			.byte	0ffh
17755                     	;
17756  CBF6     FE          			.byte	0feh
17757                     	;
17758  CBF7     5B          			.byte	05bh
17759                     	;
17760  CBF8     6A          			.byte	06ah
17761                     	;
17762  CBF9     BB          			.byte	0bbh
17763                     	;
17764  CBFA     A6          			.byte	0a6h
17765                     	;
17766  CBFB     00          			.byte	000h
17767                     	;
17768  CBFC     00          			.byte	000h
17769                     	;
17770  CBFD     79          			.byte	079h
17771                     	;
17772  CBFE     4A          			.byte	04ah
17773                     	;
17774  CBFF     F4          			.byte	0f4h
17775                     	;
17776  CC00     3F          			.byte	03fh
17777                     	;
17778  CC01     FF          			.byte	0ffh
17779                     	;
17780  CC02     FF          			.byte	0ffh
17781                     	;
17782  CC03     96          			.byte	096h
17783                     	;
17784  CC04     D5          			.byte	0d5h
17785                     	;
17786  CC05     7A          			.byte	07ah
17787                     	;
17788  CC06     D8          			.byte	0d8h
17789                     	;
17790  CC07     02          			.byte	002h
17791                     	;
17792  CC08     00          			.byte	000h
17793                     	;
17794  CC09     05          			.byte	005h
17795                     	;
17796  CC0A     B5          			.byte	0b5h
17797                     	;
17798  CC0B     6A          			.byte	06ah
17799                     	;
17800  CC0C     9F          			.byte	09fh
17801                     	;
17802  CC0D     FF          			.byte	0ffh
17803                     	;
17804  CC0E     FF          			.byte	0ffh
17805                     	;
  Sun Jan 12 14:21:22 2003                                                                                               Page  332




17806  CC0F     55          			.byte	055h
17807                     	;
17808  CC10     6A          			.byte	06ah
17809                     	;
17810  CC11     B5          			.byte	0b5h
17811                     	;
17812  CC12     40          			.byte	040h
17813                     	;
17814  CC13     80          			.byte	080h
17815                     	;
17816  CC14     00          			.byte	000h
17817                     	;
17818  CC15     08          			.byte	008h
17819                     	;
17820  CC16     09          			.byte	009h
17821                     	;
17822  CC17     55          			.byte	055h
17823                     	;
17824  CC18     4F          			.byte	04fh
17825                     	;
17826  CC19     FF          			.byte	0ffh
17827                     	;
17828  CC1A     FF          			.byte	0ffh
17829                     	;
17830  CC1B     AB          			.byte	0abh
17831                     	;
17832  CC1C     D5          			.byte	0d5h
17833                     	;
17834  CC1D     55          			.byte	055h
17835                     	;
17836  CC1E     22          			.byte	022h
17837                     	;
17838  CC1F     00          			.byte	000h
17839                     	;
17840  CC20     00          			.byte	000h
17841                     	;
17842  CC21     B6          			.byte	0b6h
17843                     	;
17844  CC22     02          			.byte	002h
17845                     	;
17846  CC23     AA          			.byte	0aah
17847                     	;
17848  CC24     AB          			.byte	0abh
17849                     	;
17850  CC25     FF          			.byte	0ffh
17851                     	;
17852  CC26     FF          			.byte	0ffh
17853                     	;
17854  CC27     5D          			.byte	05dh
17855                     	;
17856  CC28     6A          			.byte	06ah
17857                     	;
17858  CC29     AA          			.byte	0aah
17859                     	;
17860  CC2A     91          			.byte	091h
17861                     	;
17862  CC2B     44          			.byte	044h
  Sun Jan 12 14:21:22 2003                                                                                               Page  333




17863                     	;
17864  CC2C     00          			.byte	000h
17865                     	;
17866  CC2D     F6          			.byte	0f6h
17867                     	;
17868  CC2E     02          			.byte	002h
17869                     	;
17870  CC2F     AA          			.byte	0aah
17871                     	;
17872  CC30     A5          			.byte	0a5h
17873                     	;
17874  CC31     FF          			.byte	0ffh
17875                     	;
17876  CC32     FF          			.byte	0ffh
17877                     	;
17878  CC33     AA          			.byte	0aah
17879                     	;
17880  CC34     DA          			.byte	0dah
17881                     	;
17882  CC35     A9          			.byte	0a9h
17883                     	;
17884  CC36     09          			.byte	009h
17885                     	;
17886  CC37     FF          			.byte	0ffh
17887                     	;
17888  CC38     41          			.byte	041h
17889                     	;
17890  CC39     C3          			.byte	0c3h
17891                     	;
17892  CC3A     00          			.byte	000h
17893                     	;
17894  CC3B     55          			.byte	055h
17895                     	;
17896  CC3C     54          			.byte	054h
17897                     	;
17898  CC3D     FF          			.byte	0ffh
17899                     	;
17900  CC3E     FF          			.byte	0ffh
17901                     	;
17902  CC3F     56          			.byte	056h
17903                     	;
17904  CC40     AA          			.byte	0aah
17905                     	;
17906  CC41     AA          			.byte	0aah
17907                     	;
17908  CC42     27          			.byte	027h
17909                     	;
17910  CC43     FF          			.byte	0ffh
17911                     	;
17912  CC44     F0          			.byte	0f0h
17913                     	;
17914  CC45     02          			.byte	002h
17915                     	;
17916  CC46     00          			.byte	000h
17917                     	;
17918  CC47     2A          			.byte	02ah
17919                     	;
  Sun Jan 12 14:21:22 2003                                                                                               Page  334




17920  CC48     AA          			.byte	0aah
17921                     	;
17922  CC49     7F          			.byte	07fh
17923                     	;
17924  CC4A     FF          			.byte	0ffh
17925                     	;
17926  CC4B     AA          			.byte	0aah
17927                     	;
17928  CC4C     EA          			.byte	0eah
17929                     	;
17930  CC4D     A4          			.byte	0a4h
17931                     	;
17932  CC4E     8F          			.byte	08fh
17933                     	;
17934  CC4F     FF          			.byte	0ffh
17935                     	;
17936  CC50     FC          			.byte	0fch
17937                     	;
17938  CC51     00          			.byte	000h
17939                     	;
17940  CC52     00          			.byte	000h
17941                     	;
17942  CC53     02          			.byte	002h
17943                     	;
17944  CC54     54          			.byte	054h
17945                     	;
17946  CC55     BF          			.byte	0bfh
17947                     	;
17948  CC56     FF          			.byte	0ffh
17949                     	;
17950  CC57     AD          			.byte	0adh
17951                     	;
17952  CC58     55          			.byte	055h
17953                     	;
17954  CC59     50          			.byte	050h
17955                     	;
17956  CC5A     5F          			.byte	05fh
17957                     	;
17958  CC5B     FF          			.byte	0ffh
17959                     	;
17960  CC5C     FC          			.byte	0fch
17961                     	;
17962  CC5D     00          			.byte	000h
17963                     	;
17964  CC5E     00          			.byte	000h
17965                     	;
17966  CC5F     09          			.byte	009h
17967                     	;
17968  CC60     52          			.byte	052h
17969                     	;
17970  CC61     9F          			.byte	09fh
17971                     	;
17972  CC62     FF          			.byte	0ffh
17973                     	;
17974  CC63     55          			.byte	055h
17975                     	;
17976  CC64     6A          			.byte	06ah
  Sun Jan 12 14:21:22 2003                                                                                               Page  335




17977                     	;
17978  CC65     A9          			.byte	0a9h
17979                     	;
17980  CC66     0F          			.byte	00fh
17981                     	;
17982  CC67     FF          			.byte	0ffh
17983                     	;
17984  CC68     FE          			.byte	0feh
17985                     	;
17986  CC69     00          			.byte	000h
17987                     	;
17988  CC6A     00          			.byte	000h
17989                     	;
17990  CC6B     05          			.byte	005h
17991                     	;
17992  CC6C     55          			.byte	055h
17993                     	;
17994  CC6D     2F          			.byte	02fh
17995                     	;
17996  CC6E     FF          			.byte	0ffh
17997                     	;
17998  CC6F     56          			.byte	056h
17999                     	;
18000  CC70     AA          			.byte	0aah
18001                     	;
18002  CC71     C4          			.byte	0c4h
18003                     	;
18004  CC72     BF          			.byte	0bfh
18005                     	;
18006  CC73     FF          			.byte	0ffh
18007                     	;
18008  CC74     FE          			.byte	0feh
18009                     	;
18010  CC75     00          			.byte	000h
18011                     	;
18012  CC76     00          			.byte	000h
18013                     	;
18014  CC77     00          			.byte	000h
18015                     	;
18016  CC78     25          			.byte	025h
18017                     	;
18018  CC79     4F          			.byte	04fh
18019                     	;
18020  CC7A     FF          			.byte	0ffh
18021                     	;
18022  CC7B     57          			.byte	057h
18023                     	;
18024  CC7C     D5          			.byte	0d5h
18025                     	;
18026  CC7D     58          			.byte	058h
18027                     	;
18028  CC7E     1F          			.byte	01fh
18029                     	;
18030  CC7F     FF          			.byte	0ffh
18031                     	;
18032  CC80     FF          			.byte	0ffh
18033                     	;
  Sun Jan 12 14:21:22 2003                                                                                               Page  336




18034  CC81     00          			.byte	000h
18035                     	;
18036  CC82     00          			.byte	000h
18037                     	;
18038  CC83     01          			.byte	001h
18039                     	;
18040  CC84     4A          			.byte	04ah
18041                     	;
18042  CC85     AB          			.byte	0abh
18043                     	;
18044  CC86     FF          			.byte	0ffh
18045                     	;
18046  CC87     97          			.byte	097h
18047                     	;
18048  CC88     55          			.byte	055h
18049                     	;
18050  CC89     61          			.byte	061h
18051                     	;
18052  CC8A     7F          			.byte	07fh
18053                     	;
18054  CC8B     FF          			.byte	0ffh
18055                     	;
18056  CC8C     FF          			.byte	0ffh
18057                     	;
18058  CC8D     00          			.byte	000h
18059                     	;
18060  CC8E     08          			.byte	008h
18061                     	;
18062  CC8F     00          			.byte	000h
18063                     	;
18064  CC90     55          			.byte	055h
18065                     	;
18066  CC91     55          			.byte	055h
18067                     	;
18068  CC92     FF          			.byte	0ffh
18069                     	;
18070  CC93     2E          			.byte	02eh
18071                     	;
18072  CC94     AA          			.byte	0aah
18073                     	;
18074  CC95     B4          			.byte	0b4h
18075                     	;
18076  CC96     3F          			.byte	03fh
18077                     	;
18078  CC97     FF          			.byte	0ffh
18079                     	;
18080  CC98     FF          			.byte	0ffh
18081                     	;
18082  CC99     00          			.byte	000h
18083                     	;
18084  CC9A     7F          			.byte	07fh
18085                     	;
18086  CC9B     A0          			.byte	0a0h
18087                     	;
18088  CC9C     25          			.byte	025h
18089                     	;
18090  CC9D     55          			.byte	055h
  Sun Jan 12 14:21:22 2003                                                                                               Page  337




18091                     	;
18092  CC9E     FF          			.byte	0ffh
18093                     	;
18094  CC9F     B7          			.byte	0b7h
18095                     	;
18096  CCA0     55          			.byte	055h
18097                     	;
18098  CCA1     40          			.byte	040h
18099                     	;
18100  CCA2     7F          			.byte	07fh
18101                     	;
18102  CCA3     FF          			.byte	0ffh
18103                     	;
18104  CCA4     FC          			.byte	0fch
18105                     	;
18106  CCA5     01          			.byte	001h
18107                     	;
18108  CCA6     FF          			.byte	0ffh
18109                     	;
18110  CCA7     E8          			.byte	0e8h
18111                     	;
18112  CCA8     2A          			.byte	02ah
18113                     	;
18114  CCA9     AA          			.byte	0aah
18115                     	;
18116  CCAA     FF          			.byte	0ffh
18117                     	;
18118  CCAB     1D          			.byte	01dh
18119                     	;
18120  CCAC     55          			.byte	055h
18121                     	;
18122  CCAD     20          			.byte	020h
18123                     	;
18124  CCAE     7F          			.byte	07fh
18125                     	;
18126  CCAF     FF          			.byte	0ffh
18127                     	;
18128  CCB0     FE          			.byte	0feh
18129                     	;
18130  CCB1     00          			.byte	000h
18131                     	;
18132  CCB2     FF          			.byte	0ffh
18133                     	;
18134  CCB3     F4          			.byte	0f4h
18135                     	;
18136  CCB4     02          			.byte	002h
18137                     	;
18138  CCB5     AA          			.byte	0aah
18139                     	;
18140  CCB6     FF          			.byte	0ffh
18141                     	;
18142  CCB7     72          			.byte	072h
18143                     	;
18144  CCB8     AA          			.byte	0aah
18145                     	;
18146  CCB9     C0          			.byte	0c0h
18147                     	;
  Sun Jan 12 14:21:22 2003                                                                                               Page  338




18148  CCBA     3F          			.byte	03fh
18149                     	;
18150  CCBB     FF          			.byte	0ffh
18151                     	;
18152  CCBC     FE          			.byte	0feh
18153                     	;
18154  CCBD     01          			.byte	001h
18155                     	;
18156  CCBE     FF          			.byte	0ffh
18157                     	;
18158  CCBF     F8          			.byte	0f8h
18159                     	;
18160  CCC0     15          			.byte	015h
18161                     	;
18162  CCC1     55          			.byte	055h
18163                     	;
18164  CCC2     7F          			.byte	07fh
18165                     	;
18166  CCC3     7C          			.byte	07ch
18167                     	;
18168  CCC4     B5          			.byte	0b5h
18169                     	;
18170  CCC5     40          			.byte	040h
18171                     	;
18172  CCC6     3F          			.byte	03fh
18173                     	;
18174  CCC7     FF          			.byte	0ffh
18175                     	;
18176  CCC8     FE          			.byte	0feh
18177                     	;
18178  CCC9     03          			.byte	003h
18179                     	;
18180  CCCA     FF          			.byte	0ffh
18181                     	;
18182  CCCB     FE          			.byte	0feh
18183                     	;
18184  CCCC     02          			.byte	002h
18185                     	;
18186  CCCD     AA          			.byte	0aah
18187                     	;
18188  CCCE     BF          			.byte	0bfh
18189                     	;
18190  CCCF     63          			.byte	063h
18191                     	;
18192  CCD0     74          			.byte	074h
18193                     	;
18194  CCD1     80          			.byte	080h
18195                     	;
18196  CCD2     7F          			.byte	07fh
18197                     	;
18198  CCD3     FF          			.byte	0ffh
18199                     	;
18200  CCD4     FF          			.byte	0ffh
18201                     	;
18202  CCD5     0F          			.byte	00fh
18203                     	;
18204  CCD6     FF          			.byte	0ffh
  Sun Jan 12 14:21:22 2003                                                                                               Page  339




18205                     	;
18206  CCD7     FE          			.byte	0feh
18207                     	;
18208  CCD8     09          			.byte	009h
18209                     	;
18210  CCD9     55          			.byte	055h
18211                     	;
18212  CCDA     7F          			.byte	07fh
18213                     	;
18214  CCDB     74          			.byte	074h
18215                     	;
18216  CCDC     EA          			.byte	0eah
18217                     	;
18218  CCDD     C0          			.byte	0c0h
18219                     	;
18220  CCDE     3F          			.byte	03fh
18221                     	;
18222  CCDF     FF          			.byte	0ffh
18223                     	;
18224  CCE0     FE          			.byte	0feh
18225                     	;
18226  CCE1     3F          			.byte	03fh
18227                     	;
18228  CCE2     FF          			.byte	0ffh
18229                     	;
18230  CCE3     FF          			.byte	0ffh
18231                     	;
18232  CCE4     82          			.byte	082h
18233                     	;
18234  CCE5     AA          			.byte	0aah
18235                     	;
18236  CCE6     BF          			.byte	0bfh
18237                     	;
18238  CCE7     E5          			.byte	0e5h
18239                     	;
18240  CCE8     E9          			.byte	0e9h
18241                     	;
18242  CCE9     80          			.byte	080h
18243                     	;
18244  CCEA     3F          			.byte	03fh
18245                     	;
18246  CCEB     FF          			.byte	0ffh
18247                     	;
18248  CCEC     FC          			.byte	0fch
18249                     	;
18250  CCED     1F          			.byte	01fh
18251                     	;
18252  CCEE     FF          			.byte	0ffh
18253                     	;
18254  CCEF     FF          			.byte	0ffh
18255                     	;
18256  CCF0     05          			.byte	005h
18257                     	;
18258  CCF1     55          			.byte	055h
18259                     	;
18260  CCF2     7F          			.byte	07fh
18261                     	;
  Sun Jan 12 14:21:22 2003                                                                                               Page  340




18262  CCF3     F9          			.byte	0f9h
18263                     	;
18264  CCF4     EA          			.byte	0eah
18265                     	;
18266  CCF5     80          			.byte	080h
18267                     	;
18268  CCF6     07          			.byte	007h
18269                     	;
18270  CCF7     FF          			.byte	0ffh
18271                     	;
18272  CCF8     F8          			.byte	0f8h
18273                     	;
18274  CCF9     3F          			.byte	03fh
18275                     	;
18276  CCFA     FF          			.byte	0ffh
18277                     	;
18278  CCFB     FF          			.byte	0ffh
18279                     	;
18280  CCFC     80          			.byte	080h
18281                     	;
18282  CCFD     55          			.byte	055h
18283                     	;
18284  CCFE     5F          			.byte	05fh
18285                     	;
18286  CCFF     93          			.byte	093h
18287                     	;
18288  CD00     55          			.byte	055h
18289                     	;
18290  CD01     80          			.byte	080h
18291                     	;
18292  CD02     07          			.byte	007h
18293                     	;
18294  CD03     FF          			.byte	0ffh
18295                     	;
18296  CD04     F8          			.byte	0f8h
18297                     	;
18298  CD05     7F          			.byte	07fh
18299                     	;
18300  CD06     FF          			.byte	0ffh
18301                     	;
18302  CD07     FF          			.byte	0ffh
18303                     	;
18304  CD08     01          			.byte	001h
18305                     	;
18306  CD09     2A          			.byte	02ah
18307                     	;
18308  CD0A     BF          			.byte	0bfh
18309                     	;
18310  CD0B     BE          			.byte	0beh
18311                     	;
18312  CD0C     AA          			.byte	0aah
18313                     	;
18314  CD0D     80          			.byte	080h
18315                     	;
18316  CD0E     3B          			.byte	03bh
18317                     	;
18318  CD0F     FF          			.byte	0ffh
  Sun Jan 12 14:21:22 2003                                                                                               Page  341




18319                     	;
18320  CD10     F0          			.byte	0f0h
18321                     	;
18322  CD11     3F          			.byte	03fh
18323                     	;
18324  CD12     FF          			.byte	0ffh
18325                     	;
18326  CD13     FF          			.byte	0ffh
18327                     	;
18328  CD14     81          			.byte	081h
18329                     	;
18330  CD15     55          			.byte	055h
18331                     	;
18332  CD16     5F          			.byte	05fh
18333                     	;
18334  CD17     3A          			.byte	03ah
18335                     	;
18336  CD18     AA          			.byte	0aah
18337                     	;
18338  CD19     80          			.byte	080h
18339                     	;
18340  CD1A     7F          			.byte	07fh
18341                     	;
18342  CD1B     FF          			.byte	0ffh
18343                     	;
18344  CD1C     70          			.byte	070h
18345                     	;
18346  CD1D     7F          			.byte	07fh
18347                     	;
18348  CD1E     FF          			.byte	0ffh
18349                     	;
18350  CD1F     FF          			.byte	0ffh
18351                     	;
18352  CD20     83          			.byte	083h
18353                     	;
18354  CD21     55          			.byte	055h
18355                     	;
18356  CD22     AF          			.byte	0afh
18357                     	;
18358  CD23     37          			.byte	037h
18359                     	;
18360  CD24     AA          			.byte	0aah
18361                     	;
18362  CD25     C0          			.byte	0c0h
18363                     	;
18364  CD26     7F          			.byte	07fh
18365                     	;
18366  CD27     FF          			.byte	0ffh
18367                     	;
18368  CD28     00          			.byte	000h
18369                     	;
18370  CD29     7F          			.byte	07fh
18371                     	;
18372  CD2A     FF          			.byte	0ffh
18373                     	;
18374  CD2B     FF          			.byte	0ffh
18375                     	;
  Sun Jan 12 14:21:22 2003                                                                                               Page  342




18376  CD2C     82          			.byte	082h
18377                     	;
18378  CD2D     95          			.byte	095h
18379                     	;
18380  CD2E     AF          			.byte	0afh
18381                     	;
18382  CD2F     77          			.byte	077h
18383                     	;
18384  CD30     D5          			.byte	0d5h
18385                     	;
18386  CD31     80          			.byte	080h
18387                     	;
18388  CD32     7F          			.byte	07fh
18389                     	;
18390  CD33     FF          			.byte	0ffh
18391                     	;
18392  CD34     00          			.byte	000h
18393                     	;
18394  CD35     7F          			.byte	07fh
18395                     	;
18396  CD36     FF          			.byte	0ffh
18397                     	;
18398  CD37     FF          			.byte	0ffh
18399                     	;
18400  CD38     82          			.byte	082h
18401                     	;
18402  CD39     55          			.byte	055h
18403                     	;
18404  CD3A     AF          			.byte	0afh
18405                     	;
18406  CD3B     2E          			.byte	02eh
18407                     	;
18408  CD3C     AA          			.byte	0aah
18409                     	;
18410  CD3D     C0          			.byte	0c0h
18411                     	;
18412  CD3E     7F          			.byte	07fh
18413                     	;
18414  CD3F     FE          			.byte	0feh
18415                     	;
18416  CD40     00          			.byte	000h
18417                     	;
18418  CD41     FF          			.byte	0ffh
18419                     	;
18420  CD42     FF          			.byte	0ffh
18421                     	;
18422  CD43     FF          			.byte	0ffh
18423                     	;
18424  CD44     C2          			.byte	0c2h
18425                     	;
18426  CD45     A5          			.byte	0a5h
18427                     	;
18428  CD46     D7          			.byte	0d7h
18429                     	;
18430  CD47     7D          			.byte	07dh
18431                     	;
18432  CD48     D5          			.byte	0d5h
  Sun Jan 12 14:21:22 2003                                                                                               Page  343




18433                     	;
18434  CD49     80          			.byte	080h
18435                     	;
18436  CD4A     7F          			.byte	07fh
18437                     	;
18438  CD4B     FF          			.byte	0ffh
18439                     	;
18440  CD4C     02          			.byte	002h
18441                     	;
18442  CD4D     DF          			.byte	0dfh
18443                     	;
18444  CD4E     FF          			.byte	0ffh
18445                     	;
18446  CD4F     FF          			.byte	0ffh
18447                     	;
18448  CD50     C6          			.byte	0c6h
18449                     	;
18450  CD51     2B          			.byte	02bh
18451                     	;
18452  CD52     AF          			.byte	0afh
18453                     	;
18454  CD53     6F          			.byte	06fh
18455                     	;
18456  CD54     FA          			.byte	0fah
18457                     	;
18458  CD55     C0          			.byte	0c0h
18459                     	;
18460  CD56     FF          			.byte	0ffh
18461                     	;
18462  CD57     FF          			.byte	0ffh
18463                     	;
18464  CD58     86          			.byte	086h
18465                     	;
18466  CD59     FF          			.byte	0ffh
18467                     	;
18468  CD5A     FF          			.byte	0ffh
18469                     	;
18470  CD5B     FF          			.byte	0ffh
18471                     	;
18472  CD5C     C6          			.byte	0c6h
18473                     	;
18474  CD5D     53          			.byte	053h
18475                     	;
18476  CD5E     57          			.byte	057h
18477                     	;
18478  CD5F     5A          			.byte	05ah
18479                     	;
18480  CD60     FD          			.byte	0fdh
18481                     	;
18482  CD61     80          			.byte	080h
18483                     	;
18484  CD62     FF          			.byte	0ffh
18485                     	;
18486  CD63     FF          			.byte	0ffh
18487                     	;
18488  CD64     87          			.byte	087h
18489                     	;
  Sun Jan 12 14:21:22 2003                                                                                               Page  344




18490  CD65     FF          			.byte	0ffh
18491                     	;
18492  CD66     FF          			.byte	0ffh
18493                     	;
18494  CD67     FF          			.byte	0ffh
18495                     	;
18496  CD68     86          			.byte	086h
18497                     	;
18498  CD69     97          			.byte	097h
18499                     	;
18500  CD6A     57          			.byte	057h
18501                     	;
18502  CD6B     D6          			.byte	0d6h
18503                     	;
18504  CD6C     FE          			.byte	0feh
18505                     	;
18506  CD6D     C1          			.byte	0c1h
18507                     	;
18508  CD6E     FF          			.byte	0ffh
18509                     	;
18510  CD6F     FF          			.byte	0ffh
18511                     	;
18512  CD70     C7          			.byte	0c7h
18513                     	;
18514  CD71     FF          			.byte	0ffh
18515                     	;
18516  CD72     FF          			.byte	0ffh
18517                     	;
18518  CD73     FF          			.byte	0ffh
18519                     	;
18520  CD74     E6          			.byte	0e6h
18521                     	;
18522  CD75     57          			.byte	057h
18523                     	;
18524  CD76     AB          			.byte	0abh
18525                     	;
18526  CD77     BF          			.byte	0bfh
18527                     	;
18528  CD78     7F          			.byte	07fh
18529                     	;
18530  CD79     83          			.byte	083h
18531                     	;
18532  CD7A     FF          			.byte	0ffh
18533                     	;
18534  CD7B     FF          			.byte	0ffh
18535                     	;
18536  CD7C     EF          			.byte	0efh
18537                     	;
18538  CD7D     FD          			.byte	0fdh
18539                     	;
18540  CD7E     FF          			.byte	0ffh
18541                     	;
18542  CD7F     FF          			.byte	0ffh
18543                     	;
18544  CD80     C5          			.byte	0c5h
18545                     	;
18546  CD81     A7          			.byte	0a7h
  Sun Jan 12 14:21:22 2003                                                                                               Page  345




18547                     	;
18548  CD82     D7          			.byte	0d7h
18549                     	;
18550  CD83     DF          			.byte	0dfh
18551                     	;
18552  CD84     F6          			.byte	0f6h
18553                     	;
18554  CD85     A3          			.byte	0a3h
18555                     	;
18556  CD86     FF          			.byte	0ffh
18557                     	;
18558  CD87     FF          			.byte	0ffh
18559                     	;
18560  CD88     E7          			.byte	0e7h
18561                     	;
18562  CD89     FB          			.byte	0fbh
18563                     	;
18564  CD8A     FF          			.byte	0ffh
18565                     	;
18566  CD8B     FF          			.byte	0ffh
18567                     	;
18568  CD8C     CD          			.byte	0cdh
18569                     	;
18570  CD8D     17          			.byte	017h
18571                     	;
18572  CD8E     EB          			.byte	0ebh
18573                     	;
18574  CD8F     DE          			.byte	0deh
18575                     	;
18576  CD90     EB          			.byte	0ebh
18577                     	;
18578  CD91     87          			.byte	087h
18579                     	;
18580  CD92     FF          			.byte	0ffh
18581                     	;
18582  CD93     FF          			.byte	0ffh
18583                     	;
18584  CD94     CF          			.byte	0cfh
18585                     	;
18586  CD95     F3          			.byte	0f3h
18587                     	;
18588  CD96     FF          			.byte	0ffh
18589                     	;
18590  CD97     FF          			.byte	0ffh
18591                     	;
18592  CD98     AD          			.byte	0adh
18593                     	;
18594  CD99     4F          			.byte	04fh
18595                     	;
18596  CD9A     FB          			.byte	0fbh
18597                     	;
18598  CD9B     9E          			.byte	09eh
18599                     	;
18600  CD9C     D5          			.byte	0d5h
18601                     	;
18602  CD9D     A7          			.byte	0a7h
18603                     	;
  Sun Jan 12 14:21:22 2003                                                                                               Page  346




18604  CD9E     FF          			.byte	0ffh
18605                     	;
18606  CD9F     FF          			.byte	0ffh
18607                     	;
18608  CDA0     DF          			.byte	0dfh
18609                     	;
18610  CDA1     E3          			.byte	0e3h
18611                     	;
18612  CDA2     FF          			.byte	0ffh
18613                     	;
18614  CDA3     FF          			.byte	0ffh
18615                     	;
18616  CDA4     CE          			.byte	0ceh
18617                     	;
18618  CDA5     6F          			.byte	06fh
18619                     	;
18620  CDA6     DB          			.byte	0dbh
18621                     	;
18622  CDA7     BD          			.byte	0bdh
18623                     	;
18624  CDA8     95          			.byte	095h
18625                     	;
18626  CDA9     41          			.byte	041h
18627                     	;
18628  CDAA     FF          			.byte	0ffh
18629                     	;
18630  CDAB     FF          			.byte	0ffh
18631                     	;
18632  CDAC     FF          			.byte	0ffh
18633                     	;
18634  CDAD     07          			.byte	007h
18635                     	;
18636  CDAE     FF          			.byte	0ffh
18637                     	;
18638  CDAF     FF          			.byte	0ffh
18639                     	;
18640  CDB0     DD          			.byte	0ddh
18641                     	;
18642  CDB1     6D          			.byte	06dh
18643                     	;
18644  CDB2     55          			.byte	055h
18645                     	;
18646  CDB3     C7          			.byte	0c7h
18647                     	;
18648  CDB4     F7          			.byte	0f7h
18649                     	;
18650  CDB5     41          			.byte	041h
18651                     	;
18652  CDB6     FF          			.byte	0ffh
18653                     	;
18654  CDB7     FF          			.byte	0ffh
18655                     	;
18656  CDB8     FE          			.byte	0feh
18657                     	;
18658  CDB9     07          			.byte	007h
18659                     	;
18660  CDBA     FF          			.byte	0ffh
  Sun Jan 12 14:21:22 2003                                                                                               Page  347




18661                     	;
18662  CDBB     FF          			.byte	0ffh
18663                     	;
18664  CDBC     EE          			.byte	0eeh
18665                     	;
18666  CDBD     7F          			.byte	07fh
18667                     	;
18668  CDBE     BB          			.byte	0bbh
18669                     	;
18670  CDBF     9F          			.byte	09fh
18671                     	;
18672  CDC0     F7          			.byte	0f7h
18673                     	;
18674  CDC1     43          			.byte	043h
18675                     	;
18676  CDC2     FF          			.byte	0ffh
18677                     	;
18678  CDC3     FF          			.byte	0ffh
18679                     	;
18680  CDC4     FC          			.byte	0fch
18681                     	;
18682  CDC5     0F          			.byte	00fh
18683                     	;
18684  CDC6     FF          			.byte	0ffh
18685                     	;
18686  CDC7     FF          			.byte	0ffh
18687                     	;
18688  CDC8     DE          			.byte	0deh
18689                     	;
18690  CDC9     FF          			.byte	0ffh
18691                     	;
18692  CDCA     6E          			.byte	06eh
18693                     	;
18694  CDCB     CF          			.byte	0cfh
18695                     	;
18696  CDCC     FF          			.byte	0ffh
18697                     	;
18698  CDCD     63          			.byte	063h
18699                     	;
18700  CDCE     FF          			.byte	0ffh
18701                     	;
18702  CDCF     FF          			.byte	0ffh
18703                     	;
18704  CDD0     F8          			.byte	0f8h
18705                     	;
18706  CDD1     1F          			.byte	01fh
18707                     	;
18708  CDD2     FF          			.byte	0ffh
18709                     	;
18710  CDD3     FF          			.byte	0ffh
18711                     	;
18712  CDD4     DF          			.byte	0dfh
18713                     	;
18714  CDD5     6E          			.byte	06eh
18715                     	;
18716  CDD6     7E          			.byte	07eh
18717                     	;
  Sun Jan 12 14:21:22 2003                                                                                               Page  348




18718  CDD7     BF          			.byte	0bfh
18719                     	;
18720  CDD8     F6          			.byte	0f6h
18721                     	;
18722  CDD9     E3          			.byte	0e3h
18723                     	;
18724  CDDA     FF          			.byte	0ffh
18725                     	;
18726  CDDB     FF          			.byte	0ffh
18727                     	;
18728  CDDC     F8          			.byte	0f8h
18729                     	;
18730  CDDD     7F          			.byte	07fh
18731                     	;
18732  CDDE     FF          			.byte	0ffh
18733                     	;
18734  CDDF     FF          			.byte	0ffh
18735                     	;
18736  CDE0     DF          			.byte	0dfh
18737                     	;
18738  CDE1     2F          			.byte	02fh
18739                     	;
18740  CDE2     FA          			.byte	0fah
18741                     	;
18742  CDE3     9F          			.byte	09fh
18743                     	;
18744  CDE4     F6          			.byte	0f6h
18745                     	;
18746  CDE5     F3          			.byte	0f3h
18747                     	;
18748  CDE6     FF          			.byte	0ffh
18749                     	;
18750  CDE7     FF          			.byte	0ffh
18751                     	;
18752  CDE8     F0          			.byte	0f0h
18753                     	;
18754  CDE9     FF          			.byte	0ffh
18755                     	;
18756  CDEA     FF          			.byte	0ffh
18757                     	;
18758  CDEB     FF          			.byte	0ffh
18759                     	;
18760  CDEC     CD          			.byte	0cdh
18761                     	;
18762  CDED     B7          			.byte	0b7h
18763                     	;
18764  CDEE     BD          			.byte	0bdh
18765                     	;
18766  CDEF     FB          			.byte	0fbh
18767                     	;
18768  CDF0     6F          			.byte	06fh
18769                     	;
18770  CDF1     F3          			.byte	0f3h
18771                     	;
18772  CDF2     FF          			.byte	0ffh
18773                     	;
18774  CDF3     FF          			.byte	0ffh
  Sun Jan 12 14:21:22 2003                                                                                               Page  349




18775                     	;
18776  CDF4     F1          			.byte	0f1h
18777                     	;
18778  CDF5     FF          			.byte	0ffh
18779                     	;
18780  CDF6     FF          			.byte	0ffh
18781                     	;
18782  CDF7     FF          			.byte	0ffh
18783                     	;
18784  CDF8     9F          			.byte	09fh
18785                     	;
18786  CDF9     67          			.byte	067h
18787                     	;
18788  CDFA     FE          			.byte	0feh
18789                     	;
18790  CDFB     CB          			.byte	0cbh
18791                     	;
18792  CDFC     67          			.byte	067h
18793                     	;
18794  CDFD     FB          			.byte	0fbh
18795                     	;
18796  CDFE     FF          			.byte	0ffh
18797                     	;
18798  CDFF     FF          			.byte	0ffh
18799                     	;
18800  CE00     E1          			.byte	0e1h
18801                     	;
18802  CE01     FF          			.byte	0ffh
18803                     	;
18804  CE02     FF          			.byte	0ffh
18805                     	;
18806  CE03     FF          			.byte	0ffh
18807                     	;
18808  CE04     CF          			.byte	0cfh
18809                     	;
18810  CE05     EB          			.byte	0ebh
18811                     	;
18812  CE06     FF          			.byte	0ffh
18813                     	;
18814  CE07     BB          			.byte	0bbh
18815                     	;
18816  CE08     7E          			.byte	07eh
18817                     	;
18818  CE09     83          			.byte	083h
18819                     	;
18820  CE0A     FF          			.byte	0ffh
18821                     	;
18822  CE0B     FF          			.byte	0ffh
18823                     	;
18824  CE0C     E1          			.byte	0e1h
18825                     	;
18826  CE0D     FF          			.byte	0ffh
18827                     	;
18828  CE0E     FF          			.byte	0ffh
18829                     	;
18830  CE0F     FF          			.byte	0ffh
18831                     	;
  Sun Jan 12 14:21:22 2003                                                                                               Page  350




18832  CE10     AE          			.byte	0aeh
18833                     	;
18834  CE11     DF          			.byte	0dfh
18835                     	;
18836  CE12     AE          			.byte	0aeh
18837                     	;
18838  CE13     FB          			.byte	0fbh
18839                     	;
18840  CE14     7F          			.byte	07fh
18841                     	;
18842  CE15     53          			.byte	053h
18843                     	;
18844  CE16     FF          			.byte	0ffh
18845                     	;
18846  CE17     FF          			.byte	0ffh
18847                     	;
18848  CE18     F1          			.byte	0f1h
18849                     	;
18850  CE19     FF          			.byte	0ffh
18851                     	;
18852  CE1A     FF          			.byte	0ffh
18853                     	;
18854  CE1B     FF          			.byte	0ffh
18855                     	;
18856  CE1C     4F          			.byte	04fh
18857                     	;
18858  CE1D     AF          			.byte	0afh
18859                     	;
18860  CE1E     AF          			.byte	0afh
18861                     	;
18862  CE1F     F7          			.byte	0f7h
18863                     	;
18864  CE20     DB          			.byte	0dbh
18865                     	;
18866  CE21     A3          			.byte	0a3h
18867                     	;
18868  CE22     FF          			.byte	0ffh
18869                     	;
18870  CE23     FF          			.byte	0ffh
18871                     	;
18872  CE24     F8          			.byte	0f8h
18873                     	;
18874  CE25     FF          			.byte	0ffh
18875                     	;
18876  CE26     FF          			.byte	0ffh
18877                     	;
18878  CE27     FE          			.byte	0feh
18879                     	;
18880  CE28     A7          			.byte	0a7h
18881                     	;
18882  CE29     BF          			.byte	0bfh
18883                     	;
18884  CE2A     5F          			.byte	05fh
18885                     	;
18886  CE2B     FF          			.byte	0ffh
18887                     	;
18888  CE2C     7F          			.byte	07fh
  Sun Jan 12 14:21:22 2003                                                                                               Page  351




18889                     	;
18890  CE2D     C3          			.byte	0c3h
18891                     	;
18892  CE2E     FF          			.byte	0ffh
18893                     	;
18894  CE2F     FF          			.byte	0ffh
18895                     	;
18896  CE30     FC          			.byte	0fch
18897                     	;
18898  CE31     7F          			.byte	07fh
18899                     	;
18900  CE32     FF          			.byte	0ffh
18901                     	;
18902  CE33     FD          			.byte	0fdh
18903                     	;
18904  CE34     97          			.byte	097h
18905                     	;
18906  CE35     CB          			.byte	0cbh
18907                     	;
18908  CE36     7F          			.byte	07fh
18909                     	;
18910  CE37     EF          			.byte	0efh
18911                     	;
18912  CE38     5F          			.byte	05fh
18913                     	;
18914  CE39     71          			.byte	071h
18915                     	;
18916  CE3A     FF          			.byte	0ffh
18917                     	;
18918  CE3B     FF          			.byte	0ffh
18919                     	;
18920  CE3C     FE          			.byte	0feh
18921                     	;
18922  CE3D     7F          			.byte	07fh
18923                     	;
18924  CE3E     FB          			.byte	0fbh
18925                     	;
18926  CE3F     FB          			.byte	0fbh
18927                     	;
18928  CE40     4D          			.byte	04dh
18929                     	;
18930  CE41     9F          			.byte	09fh
18931                     	;
18932  CE42     7D          			.byte	07dh
18933                     	;
18934  CE43     1E          			.byte	01eh
18935                     	;
18936  CE44     FF          			.byte	0ffh
18937                     	;
18938  CE45     BB          			.byte	0bbh
18939                     	;
18940  CE46     FF          			.byte	0ffh
18941                     	;
18942  CE47     FF          			.byte	0ffh
18943                     	;
18944  CE48     FF          			.byte	0ffh
18945                     	;
  Sun Jan 12 14:21:22 2003                                                                                               Page  352




18946  CE49     BF          			.byte	0bfh
18947                     	;
18948  CE4A     FB          			.byte	0fbh
18949                     	;
18950  CE4B     FB          			.byte	0fbh
18951                     	;
18952  CE4C     ED          			.byte	0edh
18953                     	;
18954  CE4D     D3          			.byte	0d3h
18955                     	;
18956  CE4E     FF          			.byte	0ffh
18957                     	;
18958  CE4F     BE          			.byte	0beh
18959                     	;
18960  CE50     FF          			.byte	0ffh
18961                     	;
18962  CE51     63          			.byte	063h
18963                     	;
18964  CE52     FF          			.byte	0ffh
18965                     	;
18966  CE53     FF          			.byte	0ffh
18967                     	;
18968  CE54     FF          			.byte	0ffh
18969                     	;
18970  CE55     FF          			.byte	0ffh
18971                     	;
18972  CE56     FB          			.byte	0fbh
18973                     	;
18974  CE57     DD          			.byte	0ddh
18975                     	;
18976  CE58     AD          			.byte	0adh
18977                     	;
18978  CE59     FF          			.byte	0ffh
18979                     	;
18980  CE5A     BF          			.byte	0bfh
18981                     	;
18982  CE5B     3E          			.byte	03eh
18983                     	;
18984  CE5C     FB          			.byte	0fbh
18985                     	;
18986  CE5D     5F          			.byte	05fh
18987                     	;
18988  CE5E     FF          			.byte	0ffh
18989                     	;
18990  CE5F     FF          			.byte	0ffh
18991                     	;
18992  CE60     FF          			.byte	0ffh
18993                     	;
18994  CE61     FF          			.byte	0ffh
18995                     	;
18996  CE62     FA          			.byte	0fah
18997                     	;
18998  CE63     ED          			.byte	0edh
18999                     	;
19000  CE64     DA          			.byte	0dah
19001                     	;
19002  CE65     F3          			.byte	0f3h
  Sun Jan 12 14:21:22 2003                                                                                               Page  353




19003                     	;
19004  CE66     EE          			.byte	0eeh
19005                     	;
19006  CE67     3F          			.byte	03fh
19007                     	;
19008  CE68     FB          			.byte	0fbh
19009                     	;
19010  CE69     7F          			.byte	07fh
19011                     	;
19012  CE6A     FF          			.byte	0ffh
19013                     	;
19014  CE6B     FF          			.byte	0ffh
19015                     	;
19016  CE6C     FF          			.byte	0ffh
19017                     	;
19018  CE6D     FF          			.byte	0ffh
19019                     	;
19020  CE6E     FE          			.byte	0feh
19021                     	;
19022  CE6F     FB          			.byte	0fbh
19023                     	;
19024  CE70     EA          			.byte	0eah
19025                     	;
19026  CE71     F7          			.byte	0f7h
19027                     	;
19028  CE72     D6          			.byte	0d6h
19029                     	;
19030  CE73     5F          			.byte	05fh
19031                     	;
19032  CE74     FB          			.byte	0fbh
19033                     	;
19034  CE75     E3          			.byte	0e3h
19035                     	;
19036  CE76     FF          			.byte	0ffh
19037                     	;
19038  CE77     FF          			.byte	0ffh
19039                     	;
19040  CE78     F7          			.byte	0f7h
19041                     	;
19042  CE79     FF          			.byte	0ffh
19043                     	;
19044  CE7A     FE          			.byte	0feh
19045                     	;
19046  CE7B     69          			.byte	069h
19047                     	;
19048  CE7C     ED          			.byte	0edh
19049                     	;
19050  CE7D     B7          			.byte	0b7h
19051                     	;
19052  CE7E     AF          			.byte	0afh
19053                     	;
19054  CE7F     7E          			.byte	07eh
19055                     	;
19056  CE80     FB          			.byte	0fbh
19057                     	;
19058  CE81     83          			.byte	083h
19059                     	;
  Sun Jan 12 14:21:22 2003                                                                                               Page  354




19060  CE82     FF          			.byte	0ffh
19061                     	;
19062  CE83     FF          			.byte	0ffh
19063                     	;
19064  CE84     FB          			.byte	0fbh
19065                     	;
19066  CE85     FF          			.byte	0ffh
19067                     	;
19068  CE86     FE          			.byte	0feh
19069                     	;
19070  CE87     A5          			.byte	0a5h
19071                     	;
19072  CE88     FA          			.byte	0fah
19073                     	;
19074  CE89     D7          			.byte	0d7h
19075                     	;
19076  CE8A     BF          			.byte	0bfh
19077                     	;
19078                     			.attrib	_GameMTHappyEnd,1843,v,c,u,g,d,c,d,c,0300h,00h
19079                     	;
19080  CE8B     00          	_GameMTEagle:	.byte	000h
19081                     	;
19082  CE8C     6C          			.byte	06ch
19083                     	;
19084  CE8D     92          			.byte	092h
19085                     	;
19086  CE8E     10          			.byte	010h
19087                     	;
19088  CE8F     82          			.byte	082h
19089                     	;
19090  CE90     6C          			.byte	06ch
19091                     	;
19092  CE91     10          			.byte	010h
19093                     	;
19094  CE92     10          			.byte	010h
19095                     	;
19096  CE93     00          			.byte	000h
19097                     	;
19098  CE94     EE          			.byte	0eeh
19099                     	;
19100  CE95     10          			.byte	010h
19101                     	;
19102  CE96     10          			.byte	010h
19103                     	;
19104                     			.attrib	_GameMTEagle,1845,v,c,u,g,d,c,d,c,0ch,00h
19105                     	
19106                     			.global	_GameMTTalkUp
19107                     			.global	_GameMTTalkDown
19108                     			.global	_GameMTTalkSide
19109                     			.global	_GameMTTalkSigh
19110                     			.global	_GameMTTalkData
19111                     			.global	_GameMTUnknown
19112                     			.global	_GameMTNotice
19113                     			.global	_GameMTDi
19114                     			.global	_GameMTChar
19115                     			.global	_GameMTWorkPad
19116                     			.global	_GameMTEagle
  Sun Jan 12 14:21:22 2003                                                                                               Page  355




19117                     			.global	_GameMTCeng
19118                     			.global	_GameMTHelpData
19119                     			.global	_GameMTStartPoint
19120                     			.global	_GameMTBattlePad
19121                     			.global	_GameMTMainFace
19122                     			.global	_GameMTLiKai
19123                     			.global	_GameMTHappyEnd
19124                     			.global	_GameMTVictory
19125                     			.global	_GameMTHeroPic
19126                     			.global	_GameMTNum78
19127                     			.global	_GameMTNum39
19128                     			.global	_GameMTNum35
19129                     			.global	_GameMTMonData
19130                     			.global	_GameMTMonName
19131                     			.global	_GameMTUnitPic
19132                     			.program_mtdata
19133                     	
19134                     			.end


             Lines Assembled : 19134                  Errors : 0


